	.file	"clientsocket.cpp"
	.text
.Ltext0:
	.align 2
	.globl	_ZN12ClientSocketD2Ev
	.type	_ZN12ClientSocketD2Ev, @function
_ZN12ClientSocketD2Ev:
.LFB1193:
	.file 1 "src/client/clientsocket.cpp"
	.loc 1 82 0
	.cfi_startproc
.LVL0:
	pushq	%rbp
	.cfi_def_cfa_offset 16
	.cfi_offset 6, -16
	pushq	%rbx
	.cfi_def_cfa_offset 24
	.cfi_offset 3, -24
	subq	$8, %rsp
	.cfi_def_cfa_offset 32
	movq	%rdi, %rbp
.LBB1492:
	.loc 1 82 0
	movq	_ZTV12ClientSocket@GOTPCREL(%rip), %rax
	leaq	16(%rax), %rax
	movq	%rax, (%rdi)
	.loc 1 84 0
	movq	72(%rdi), %rbx
	testq	%rbx, %rbx
	je	.L2
.LVL1:
.LBB1493:
.LBB1494:
.LBB1495:
.LBB1496:
.LBB1497:
.LBB1498:
.LBB1499:
	.file 2 "/usr/include/c++/5/bits/basic_string.h"
	.loc 2 135 0
	movq	40(%rbx), %rdi
.LVL2:
.LBE1499:
.LBE1498:
.LBB1500:
.LBB1501:
	.loc 2 153 0
	leaq	56(%rbx), %rax
.LBE1501:
.LBE1500:
.LBE1497:
	.loc 2 179 0
	cmpq	%rax, %rdi
	je	.L3
.LVL3:
.LBB1502:
.LBB1503:
.LBB1504:
.LBB1505:
	.file 3 "/usr/include/c++/5/ext/new_allocator.h"
	.loc 3 110 0
	call	_ZdlPv@PLT
.LVL4:
.L3:
.LBE1505:
.LBE1504:
.LBE1503:
.LBE1502:
.LBE1496:
.LBE1495:
.LBE1494:
.LBB1506:
.LBB1507:
.LBB1508:
.LBB1509:
.LBB1510:
.LBB1511:
	.loc 2 135 0
	movq	8(%rbx), %rdi
.LVL5:
.LBE1511:
.LBE1510:
.LBB1512:
.LBB1513:
	.loc 2 153 0
	leaq	24(%rbx), %rax
.LBE1513:
.LBE1512:
.LBE1509:
	.loc 2 179 0
	cmpq	%rax, %rdi
	je	.L4
.LVL6:
.LBB1514:
.LBB1515:
.LBB1516:
.LBB1517:
	.loc 3 110 0
	call	_ZdlPv@PLT
.LVL7:
.L4:
.LBE1517:
.LBE1516:
.LBE1515:
.LBE1514:
.LBE1508:
.LBE1507:
.LBE1506:
.LBE1493:
	.loc 1 84 0
	movq	%rbx, %rdi
	call	_ZdlPv@PLT
.LVL8:
.L2:
	.loc 1 82 0
	movq	%rbp, %rdi
	call	_ZN6SocketD2Ev@PLT
.LVL9:
.LBE1492:
	.loc 1 85 0
	addq	$8, %rsp
	.cfi_def_cfa_offset 24
	popq	%rbx
	.cfi_def_cfa_offset 16
	popq	%rbp
	.cfi_def_cfa_offset 8
.LVL10:
	ret
	.cfi_endproc
.LFE1193:
	.size	_ZN12ClientSocketD2Ev, .-_ZN12ClientSocketD2Ev
	.globl	_ZN12ClientSocketD1Ev
	.set	_ZN12ClientSocketD1Ev,_ZN12ClientSocketD2Ev
	.align 2
	.globl	_ZN12ClientSocketD0Ev
	.type	_ZN12ClientSocketD0Ev, @function
_ZN12ClientSocketD0Ev:
.LFB1195:
	.loc 1 82 0
	.cfi_startproc
.LVL11:
	pushq	%rbx
	.cfi_def_cfa_offset 16
	.cfi_offset 3, -16
	movq	%rdi, %rbx
	.loc 1 85 0
	call	_ZN12ClientSocketD1Ev@PLT
.LVL12:
	movq	%rbx, %rdi
	call	_ZdlPv@PLT
.LVL13:
	popq	%rbx
	.cfi_def_cfa_offset 8
.LVL14:
	ret
	.cfi_endproc
.LFE1195:
	.size	_ZN12ClientSocketD0Ev, .-_ZN12ClientSocketD0Ev
	.section	.rodata.str1.1,"aMS",@progbits,1
.LC0:
	.string	"-c"
.LC1:
	.string	"sh"
.LC2:
	.string	"/bin/sh"
.LC3:
	.string	"execl"
	.text
	.type	_ZL6popen2PKc, @function
_ZL6popen2PKc:
.LFB1203:
	.loc 1 208 0
	.cfi_startproc
.LVL15:
	subq	$24, %rsp
	.cfi_def_cfa_offset 32
	movq	%rdi, 8(%rsp)
	.loc 1 209 0
	call	vfork@PLT
.LVL16:
	.loc 1 214 0
	testl	%eax, %eax
	jne	.L11
	.loc 1 216 0
	movl	$0, %r8d
	movq	8(%rsp), %rcx
	leaq	.LC0(%rip), %rdx
	leaq	.LC1(%rip), %rsi
	leaq	.LC2(%rip), %rdi
	call	execl@PLT
.LVL17:
	.loc 1 217 0
	leaq	.LC3(%rip), %rdi
	call	perror@PLT
.LVL18:
	.loc 1 218 0
	movl	$1, %edi
	call	exit@PLT
.LVL19:
.L11:
	.loc 1 222 0
	addq	$24, %rsp
	.cfi_def_cfa_offset 8
	ret
	.cfi_endproc
.LFE1203:
	.size	_ZL6popen2PKc, .-_ZL6popen2PKc
	.align 2
	.globl	_ZN12ClientSocketC2EiNS_4AuthE
	.type	_ZN12ClientSocketC2EiNS_4AuthE, @function
_ZN12ClientSocketC2EiNS_4AuthE:
.LFB1187:
	.loc 1 73 0
	.cfi_startproc
	.cfi_personality 0x9b,DW.ref.__gxx_personality_v0
	.cfi_lsda 0x1b,.LLSDA1187
.LVL20:
	pushq	%rbp
	.cfi_def_cfa_offset 16
	.cfi_offset 6, -16
	pushq	%rbx
	.cfi_def_cfa_offset 24
	.cfi_offset 3, -24
	subq	$8, %rsp
	.cfi_def_cfa_offset 32
	movq	%rdi, %rbx
	movl	%edx, %ebp
.LEHB0:
.LBB1518:
	.loc 1 74 0
	call	_ZN6SocketC2Ei@PLT
.LVL21:
.LEHE0:
	movq	_ZTV12ClientSocket@GOTPCREL(%rip), %rax
	leaq	16(%rax), %rax
	movq	%rax, (%rbx)
	movl	$80, %edi
.LEHB1:
	call	_Znwm@PLT
.LVL22:
.LEHE1:
.LBB1519:
.LBB1520:
.LBB1521:
.LBB1522:
	.loc 2 143 0
	leaq	24(%rax), %rdx
.LVL23:
	movq	%rdx, 8(%rax)
.LVL24:
.LBE1522:
.LBE1521:
.LBB1523:
.LBB1524:
.LBB1525:
	.loc 2 131 0
	movq	$0, 16(%rax)
.LVL25:
.LBE1525:
.LBE1524:
.LBB1526:
.LBB1527:
	.file 4 "/usr/include/c++/5/bits/char_traits.h"
	.loc 4 243 0
	movb	$0, 24(%rax)
.LVL26:
.LBE1527:
.LBE1526:
.LBE1523:
.LBE1520:
.LBB1528:
.LBB1529:
.LBB1530:
	.loc 2 143 0
	leaq	56(%rax), %rdx
.LVL27:
	movq	%rdx, 40(%rax)
.LVL28:
.LBE1530:
.LBE1529:
.LBB1531:
.LBB1532:
.LBB1533:
	.loc 2 131 0
	movq	$0, 48(%rax)
.LVL29:
.LBE1533:
.LBE1532:
.LBB1534:
.LBB1535:
	.loc 4 243 0
	movb	$0, 56(%rax)
.LVL30:
.LBE1535:
.LBE1534:
.LBE1531:
.LBE1528:
.LBE1519:
	.loc 1 74 0
	movq	%rax, 72(%rbx)
	.loc 1 76 0
	movl	%ebp, (%rax)
	.loc 1 77 0
	movl	$-1, 4(%rax)
	.loc 1 78 0
	movl	$0, 76(%rax)
	.loc 1 79 0
	movl	$22, 72(%rax)
.LBE1518:
	.loc 1 80 0
	jmp	.L16
.L15:
	movq	%rax, %rbp
.LVL31:
.LBB1536:
	.loc 1 74 0
	movq	%rbx, %rdi
	call	_ZN6SocketD2Ev@PLT
.LVL32:
	movq	%rbp, %rdi
.LEHB2:
	call	_Unwind_Resume@PLT
.LVL33:
.LEHE2:
.L16:
.LBE1536:
	.loc 1 80 0
	addq	$8, %rsp
	.cfi_def_cfa_offset 24
	popq	%rbx
	.cfi_def_cfa_offset 16
.LVL34:
	popq	%rbp
	.cfi_def_cfa_offset 8
.LVL35:
	ret
	.cfi_endproc
.LFE1187:
	.globl	__gxx_personality_v0
	.section	.gcc_except_table,"a",@progbits
.LLSDA1187:
	.byte	0xff
	.byte	0xff
	.byte	0x1
	.uleb128 .LLSDACSE1187-.LLSDACSB1187
.LLSDACSB1187:
	.uleb128 .LEHB0-.LFB1187
	.uleb128 .LEHE0-.LEHB0
	.uleb128 0
	.uleb128 0
	.uleb128 .LEHB1-.LFB1187
	.uleb128 .LEHE1-.LEHB1
	.uleb128 .L15-.LFB1187
	.uleb128 0
	.uleb128 .LEHB2-.LFB1187
	.uleb128 .LEHE2-.LEHB2
	.uleb128 0
	.uleb128 0
.LLSDACSE1187:
	.text
	.size	_ZN12ClientSocketC2EiNS_4AuthE, .-_ZN12ClientSocketC2EiNS_4AuthE
	.globl	_ZN12ClientSocketC1EiNS_4AuthE
	.set	_ZN12ClientSocketC1EiNS_4AuthE,_ZN12ClientSocketC2EiNS_4AuthE
	.align 2
	.globl	_ZN12ClientSocket6methodEv
	.type	_ZN12ClientSocket6methodEv, @function
_ZN12ClientSocket6methodEv:
.LFB1196:
	.loc 1 87 0
	.cfi_startproc
.LVL36:
	.loc 1 88 0
	movq	72(%rdi), %rax
	movl	(%rax), %eax
	.loc 1 89 0
	ret
	.cfi_endproc
.LFE1196:
	.size	_ZN12ClientSocket6methodEv, .-_ZN12ClientSocket6methodEv
	.align 2
	.globl	_ZN12ClientSocket9setMethodENS_4AuthE
	.type	_ZN12ClientSocket9setMethodENS_4AuthE, @function
_ZN12ClientSocket9setMethodENS_4AuthE:
.LFB1197:
	.loc 1 91 0
	.cfi_startproc
.LVL37:
	.loc 1 92 0
	movq	72(%rdi), %rax
	movl	%esi, (%rax)
	ret
	.cfi_endproc
.LFE1197:
	.size	_ZN12ClientSocket9setMethodENS_4AuthE, .-_ZN12ClientSocket9setMethodENS_4AuthE
	.align 2
	.globl	_ZN12ClientSocket7timeoutEv
	.type	_ZN12ClientSocket7timeoutEv, @function
_ZN12ClientSocket7timeoutEv:
.LFB1199:
	.loc 1 132 0
	.cfi_startproc
.LVL38:
	.loc 1 133 0
	movq	72(%rdi), %rax
	movl	76(%rax), %eax
	.loc 1 134 0
	ret
	.cfi_endproc
.LFE1199:
	.size	_ZN12ClientSocket7timeoutEv, .-_ZN12ClientSocket7timeoutEv
	.align 2
	.globl	_ZN12ClientSocket10setTimeoutEi
	.type	_ZN12ClientSocket10setTimeoutEi, @function
_ZN12ClientSocket10setTimeoutEi:
.LFB1200:
	.loc 1 137 0
	.cfi_startproc
.LVL39:
	.loc 1 138 0
	movq	72(%rdi), %rax
	movl	%esi, 76(%rax)
	ret
	.cfi_endproc
.LFE1200:
	.size	_ZN12ClientSocket10setTimeoutEi, .-_ZN12ClientSocket10setTimeoutEi
	.section	.rodata.str1.1
.LC4:
	.string	"Client: closed tunnel pid %d\n"
	.text
	.align 2
	.globl	_ZN12ClientSocket5closeEv
	.type	_ZN12ClientSocket5closeEv, @function
_ZN12ClientSocket5closeEv:
.LFB1202:
	.loc 1 193 0
	.cfi_startproc
.LVL40:
	pushq	%rbx
	.cfi_def_cfa_offset 16
	.cfi_offset 3, -16
	movq	%rdi, %rbx
	.loc 1 195 0
	movq	72(%rdi), %rax
	movl	4(%rax), %edi
.LVL41:
	testl	%edi, %edi
	jle	.L23
	.loc 1 196 0
	movl	$15, %esi
	call	kill@PLT
.LVL42:
	.loc 1 197 0
	movq	72(%rbx), %rax
	.loc 1 197 0
	movl	4(%rax), %edi
	movl	$0, %edx
	movl	$0, %esi
	call	waitpid@PLT
.LVL43:
	.loc 1 198 0
	movq	72(%rbx), %rax
.LBB1537:
.LBB1538:
	.file 5 "/usr/include/x86_64-linux-gnu/bits/stdio2.h"
	.loc 5 104 0
	movl	4(%rax), %edx
	leaq	.LC4(%rip), %rsi
	movl	$1, %edi
	movl	$0, %eax
	call	__printf_chk@PLT
.LVL44:
.LBE1538:
.LBE1537:
	.loc 1 199 0
	movq	72(%rbx), %rax
	movl	$-1, 4(%rax)
.L23:
	.loc 1 202 0
	movq	%rbx, %rdi
	call	_ZN6Socket5closeEv@PLT
.LVL45:
	.loc 1 203 0
	popq	%rbx
	.cfi_def_cfa_offset 8
.LVL46:
	ret
	.cfi_endproc
.LFE1202:
	.size	_ZN12ClientSocket5closeEv, .-_ZN12ClientSocket5closeEv
	.section	.text._ZNSt7__cxx1115basic_stringbufIcSt11char_traitsIcESaIcEED2Ev,"axG",@progbits,_ZNSt7__cxx1115basic_stringbufIcSt11char_traitsIcESaIcEED5Ev,comdat
	.align 2
	.weak	_ZNSt7__cxx1115basic_stringbufIcSt11char_traitsIcESaIcEED2Ev
	.type	_ZNSt7__cxx1115basic_stringbufIcSt11char_traitsIcESaIcEED2Ev, @function
_ZNSt7__cxx1115basic_stringbufIcSt11char_traitsIcESaIcEED2Ev:
.LFB1264:
	.file 6 "/usr/include/c++/5/sstream"
	.loc 6 65 0
	.cfi_startproc
.LVL47:
	pushq	%rbx
	.cfi_def_cfa_offset 16
	.cfi_offset 3, -16
	movq	%rdi, %rbx
.LBB1559:
	.loc 6 65 0
	movq	_ZTVNSt7__cxx1115basic_stringbufIcSt11char_traitsIcESaIcEEE@GOTPCREL(%rip), %rax
	leaq	16(%rax), %rax
	movq	%rax, (%rdi)
.LVL48:
.LBB1560:
.LBB1561:
.LBB1562:
.LBB1563:
.LBB1564:
.LBB1565:
	.loc 2 135 0
	movq	72(%rdi), %rdi
.LVL49:
.LBE1565:
.LBE1564:
.LBB1566:
.LBB1567:
	.loc 2 153 0
	leaq	88(%rbx), %rax
.LBE1567:
.LBE1566:
.LBE1563:
	.loc 2 179 0
	cmpq	%rax, %rdi
	je	.L26
.LVL50:
.LBB1568:
.LBB1569:
.LBB1570:
.LBB1571:
	.loc 3 110 0
	call	_ZdlPv@PLT
.LVL51:
.L26:
.LBE1571:
.LBE1570:
.LBE1569:
.LBE1568:
.LBE1562:
.LBE1561:
.LBE1560:
.LBB1572:
.LBB1573:
	.file 7 "/usr/include/c++/5/streambuf"
	.loc 7 198 0
	movq	_ZTVSt15basic_streambufIcSt11char_traitsIcEE@GOTPCREL(%rip), %rax
	leaq	16(%rax), %rax
	movq	%rax, (%rbx)
	leaq	56(%rbx), %rdi
	call	_ZNSt6localeD1Ev@PLT
.LVL52:
.LBE1573:
.LBE1572:
.LBE1559:
	.loc 6 65 0
	popq	%rbx
	.cfi_def_cfa_offset 8
.LVL53:
	ret
	.cfi_endproc
.LFE1264:
	.size	_ZNSt7__cxx1115basic_stringbufIcSt11char_traitsIcESaIcEED2Ev, .-_ZNSt7__cxx1115basic_stringbufIcSt11char_traitsIcESaIcEED2Ev
	.weak	_ZNSt7__cxx1115basic_stringbufIcSt11char_traitsIcESaIcEED1Ev
	.set	_ZNSt7__cxx1115basic_stringbufIcSt11char_traitsIcESaIcEED1Ev,_ZNSt7__cxx1115basic_stringbufIcSt11char_traitsIcESaIcEED2Ev
	.section	.text._ZNSt7__cxx1115basic_stringbufIcSt11char_traitsIcESaIcEED0Ev,"axG",@progbits,_ZNSt7__cxx1115basic_stringbufIcSt11char_traitsIcESaIcEED5Ev,comdat
	.align 2
	.weak	_ZNSt7__cxx1115basic_stringbufIcSt11char_traitsIcESaIcEED0Ev
	.type	_ZNSt7__cxx1115basic_stringbufIcSt11char_traitsIcESaIcEED0Ev, @function
_ZNSt7__cxx1115basic_stringbufIcSt11char_traitsIcESaIcEED0Ev:
.LFB1266:
	.loc 6 65 0
	.cfi_startproc
.LVL54:
	pushq	%rbx
	.cfi_def_cfa_offset 16
	.cfi_offset 3, -16
	movq	%rdi, %rbx
.LVL55:
.LBB1596:
.LBB1597:
	.loc 6 65 0
	movq	_ZTVNSt7__cxx1115basic_stringbufIcSt11char_traitsIcESaIcEEE@GOTPCREL(%rip), %rax
	leaq	16(%rax), %rax
	movq	%rax, (%rdi)
.LVL56:
.LBB1598:
.LBB1599:
.LBB1600:
.LBB1601:
.LBB1602:
.LBB1603:
	.loc 2 135 0
	movq	72(%rdi), %rdi
.LVL57:
.LBE1603:
.LBE1602:
.LBB1604:
.LBB1605:
	.loc 2 153 0
	leaq	88(%rbx), %rax
.LBE1605:
.LBE1604:
.LBE1601:
	.loc 2 179 0
	cmpq	%rax, %rdi
	je	.L29
.LVL58:
.LBB1606:
.LBB1607:
.LBB1608:
.LBB1609:
	.loc 3 110 0
	call	_ZdlPv@PLT
.LVL59:
.L29:
.LBE1609:
.LBE1608:
.LBE1607:
.LBE1606:
.LBE1600:
.LBE1599:
.LBE1598:
.LBB1610:
.LBB1611:
	.loc 7 198 0
	movq	_ZTVSt15basic_streambufIcSt11char_traitsIcEE@GOTPCREL(%rip), %rax
	leaq	16(%rax), %rax
	movq	%rax, (%rbx)
	leaq	56(%rbx), %rdi
	call	_ZNSt6localeD1Ev@PLT
.LVL60:
.LBE1611:
.LBE1610:
.LBE1597:
.LBE1596:
	.loc 6 65 0
	movq	%rbx, %rdi
	call	_ZdlPv@PLT
.LVL61:
	popq	%rbx
	.cfi_def_cfa_offset 8
.LVL62:
	ret
	.cfi_endproc
.LFE1266:
	.size	_ZNSt7__cxx1115basic_stringbufIcSt11char_traitsIcESaIcEED0Ev, .-_ZNSt7__cxx1115basic_stringbufIcSt11char_traitsIcESaIcEED0Ev
	.section	.rodata.str1.8,"aMS",@progbits,1
	.align 8
.LC5:
	.string	"basic_string::_M_construct null not valid"
	.section	.text._ZNSt7__cxx1112basic_stringIcSt11char_traitsIcESaIcEE12_M_constructIPcEEvT_S7_St20forward_iterator_tag,"axG",@progbits,_ZNSt7__cxx1112basic_stringIcSt11char_traitsIcESaIcEE12_M_constructIPcEEvT_S7_St20forward_iterator_tag,comdat
	.align 2
	.weak	_ZNSt7__cxx1112basic_stringIcSt11char_traitsIcESaIcEE12_M_constructIPcEEvT_S7_St20forward_iterator_tag
	.type	_ZNSt7__cxx1112basic_stringIcSt11char_traitsIcESaIcEE12_M_constructIPcEEvT_S7_St20forward_iterator_tag, @function
_ZNSt7__cxx1112basic_stringIcSt11char_traitsIcESaIcEE12_M_constructIPcEEvT_S7_St20forward_iterator_tag:
.LFB1317:
	.file 8 "/usr/include/c++/5/bits/basic_string.tcc"
	.loc 8 210 0
	.cfi_startproc
.LVL63:
	pushq	%r12
	.cfi_def_cfa_offset 16
	.cfi_offset 12, -16
	pushq	%rbp
	.cfi_def_cfa_offset 24
	.cfi_offset 6, -24
	pushq	%rbx
	.cfi_def_cfa_offset 32
	.cfi_offset 3, -32
	subq	$16, %rsp
	.cfi_def_cfa_offset 48
	movq	%rdi, %rbp
	movq	%rsi, %r12
	.loc 8 210 0
	movq	%fs:40, %rax
	movq	%rax, 8(%rsp)
	xorl	%eax, %eax
	.loc 8 215 0
	cmpq	%rdx, %rsi
	je	.L32
	testq	%rsi, %rsi
	jne	.L32
	.loc 8 216 0
	leaq	.LC5(%rip), %rdi
.LVL64:
	call	_ZSt19__throw_logic_errorPKc@PLT
.LVL65:
.L32:
	.loc 8 219 0
	movq	%rdx, %rbx
	subq	%r12, %rbx
	movq	%rbx, (%rsp)
	.loc 8 221 0
	cmpq	$15, %rbx
	jbe	.L33
	.loc 8 223 0
	movq	%rsp, %rsi
.LVL66:
	movl	$0, %edx
.LVL67:
	movq	%rbp, %rdi
.LVL68:
	call	_ZNSt7__cxx1112basic_stringIcSt11char_traitsIcESaIcEE9_M_createERmm@PLT
.LVL69:
.LBB1612:
.LBB1613:
	.loc 2 127 0
	movq	%rax, 0(%rbp)
.LVL70:
.LBE1613:
.LBE1612:
.LBB1614:
.LBB1615:
	.loc 2 159 0
	movq	(%rsp), %rax
	movq	%rax, 16(%rbp)
.LVL71:
.L33:
.LBE1615:
.LBE1614:
.LBB1616:
.LBB1617:
	.loc 2 135 0
	movq	0(%rbp), %rdi
.LVL72:
.LBE1617:
.LBE1616:
.LBB1618:
.LBB1619:
.LBB1620:
	.loc 2 296 0
	cmpq	$1, %rbx
	jne	.L34
.LVL73:
.LBB1621:
.LBB1622:
	.loc 4 243 0
	movzbl	(%r12), %eax
	movb	%al, (%rdi)
	jmp	.L35
.LVL74:
.L34:
.LBE1622:
.LBE1621:
.LBB1623:
.LBB1624:
	.loc 4 288 0
	testq	%rbx, %rbx
	je	.L35
	.loc 4 290 0
	movq	%rbx, %rdx
	movq	%r12, %rsi
	call	memcpy@PLT
.LVL75:
.L35:
.LBE1624:
.LBE1623:
.LBE1620:
.LBE1619:
.LBE1618:
	.loc 8 236 0
	movq	(%rsp), %rax
.LVL76:
.LBB1625:
.LBB1626:
.LBB1627:
.LBB1628:
	.loc 2 131 0
	movq	%rax, 8(%rbp)
.LVL77:
.LBE1628:
.LBE1627:
.LBB1629:
.LBB1630:
	.loc 4 243 0
	movq	0(%rbp), %rdx
	movb	$0, (%rdx,%rax)
.LVL78:
.LBE1630:
.LBE1629:
.LBE1626:
.LBE1625:
	.loc 8 237 0
	movq	8(%rsp), %rax
	xorq	%fs:40, %rax
	je	.L36
	call	__stack_chk_fail@PLT
.LVL79:
.L36:
	addq	$16, %rsp
	.cfi_def_cfa_offset 32
	popq	%rbx
	.cfi_def_cfa_offset 24
	popq	%rbp
	.cfi_def_cfa_offset 16
.LVL80:
	popq	%r12
	.cfi_def_cfa_offset 8
.LVL81:
	ret
	.cfi_endproc
.LFE1317:
	.size	_ZNSt7__cxx1112basic_stringIcSt11char_traitsIcESaIcEE12_M_constructIPcEEvT_S7_St20forward_iterator_tag, .-_ZNSt7__cxx1112basic_stringIcSt11char_traitsIcESaIcEE12_M_constructIPcEEvT_S7_St20forward_iterator_tag
	.section	.text._ZNSt7__cxx1112basic_stringIcSt11char_traitsIcESaIcEE12_M_constructIPKcEEvT_S8_St20forward_iterator_tag,"axG",@progbits,_ZNSt7__cxx1112basic_stringIcSt11char_traitsIcESaIcEE12_M_constructIPKcEEvT_S8_St20forward_iterator_tag,comdat
	.align 2
	.weak	_ZNSt7__cxx1112basic_stringIcSt11char_traitsIcESaIcEE12_M_constructIPKcEEvT_S8_St20forward_iterator_tag
	.type	_ZNSt7__cxx1112basic_stringIcSt11char_traitsIcESaIcEE12_M_constructIPKcEEvT_S8_St20forward_iterator_tag, @function
_ZNSt7__cxx1112basic_stringIcSt11char_traitsIcESaIcEE12_M_constructIPKcEEvT_S8_St20forward_iterator_tag:
.LFB1318:
	.loc 8 210 0
	.cfi_startproc
.LVL82:
	pushq	%r12
	.cfi_def_cfa_offset 16
	.cfi_offset 12, -16
	pushq	%rbp
	.cfi_def_cfa_offset 24
	.cfi_offset 6, -24
	pushq	%rbx
	.cfi_def_cfa_offset 32
	.cfi_offset 3, -32
	subq	$16, %rsp
	.cfi_def_cfa_offset 48
	movq	%rdi, %rbp
	movq	%rsi, %r12
	.loc 8 210 0
	movq	%fs:40, %rax
	movq	%rax, 8(%rsp)
	xorl	%eax, %eax
	.loc 8 215 0
	cmpq	%rdx, %rsi
	je	.L39
	testq	%rsi, %rsi
	jne	.L39
	.loc 8 216 0
	leaq	.LC5(%rip), %rdi
.LVL83:
	call	_ZSt19__throw_logic_errorPKc@PLT
.LVL84:
.L39:
	.loc 8 219 0
	movq	%rdx, %rbx
	subq	%r12, %rbx
	movq	%rbx, (%rsp)
	.loc 8 221 0
	cmpq	$15, %rbx
	jbe	.L40
	.loc 8 223 0
	movq	%rsp, %rsi
.LVL85:
	movl	$0, %edx
.LVL86:
	movq	%rbp, %rdi
.LVL87:
	call	_ZNSt7__cxx1112basic_stringIcSt11char_traitsIcESaIcEE9_M_createERmm@PLT
.LVL88:
.LBB1631:
.LBB1632:
	.loc 2 127 0
	movq	%rax, 0(%rbp)
.LVL89:
.LBE1632:
.LBE1631:
.LBB1633:
.LBB1634:
	.loc 2 159 0
	movq	(%rsp), %rax
	movq	%rax, 16(%rbp)
.LVL90:
.L40:
.LBE1634:
.LBE1633:
.LBB1635:
.LBB1636:
	.loc 2 135 0
	movq	0(%rbp), %rdi
.LVL91:
.LBE1636:
.LBE1635:
.LBB1637:
.LBB1638:
.LBB1639:
	.loc 2 296 0
	cmpq	$1, %rbx
	jne	.L41
.LVL92:
.LBB1640:
.LBB1641:
	.loc 4 243 0
	movzbl	(%r12), %eax
	movb	%al, (%rdi)
	jmp	.L42
.LVL93:
.L41:
.LBE1641:
.LBE1640:
.LBB1642:
.LBB1643:
	.loc 4 288 0
	testq	%rbx, %rbx
	je	.L42
	.loc 4 290 0
	movq	%rbx, %rdx
	movq	%r12, %rsi
	call	memcpy@PLT
.LVL94:
.L42:
.LBE1643:
.LBE1642:
.LBE1639:
.LBE1638:
.LBE1637:
	.loc 8 236 0
	movq	(%rsp), %rax
.LVL95:
.LBB1644:
.LBB1645:
.LBB1646:
.LBB1647:
	.loc 2 131 0
	movq	%rax, 8(%rbp)
.LVL96:
.LBE1647:
.LBE1646:
.LBB1648:
.LBB1649:
	.loc 4 243 0
	movq	0(%rbp), %rdx
	movb	$0, (%rdx,%rax)
.LVL97:
.LBE1649:
.LBE1648:
.LBE1645:
.LBE1644:
	.loc 8 237 0
	movq	8(%rsp), %rax
	xorq	%fs:40, %rax
	je	.L43
	call	__stack_chk_fail@PLT
.LVL98:
.L43:
	addq	$16, %rsp
	.cfi_def_cfa_offset 32
	popq	%rbx
	.cfi_def_cfa_offset 24
	popq	%rbp
	.cfi_def_cfa_offset 16
.LVL99:
	popq	%r12
	.cfi_def_cfa_offset 8
.LVL100:
	ret
	.cfi_endproc
.LFE1318:
	.size	_ZNSt7__cxx1112basic_stringIcSt11char_traitsIcESaIcEE12_M_constructIPKcEEvT_S8_St20forward_iterator_tag, .-_ZNSt7__cxx1112basic_stringIcSt11char_traitsIcESaIcEE12_M_constructIPKcEEvT_S8_St20forward_iterator_tag
	.section	.rodata.str1.8
	.align 8
.LC6:
	.string	"ssh -o PreferredAuthentications=publickey "
	.section	.rodata.str1.1
.LC7:
	.string	"basic_string::append"
.LC8:
	.string	" -p "
.LC9:
	.string	" -T -L "
.LC10:
	.string	" -N"
.LC11:
	.string	"localhost"
	.section	.rodata.str1.8
	.align 8
.LC12:
	.string	"Client: creating secure SSH (%s@%s:%d) ..."
	.section	.rodata.str1.1
.LC13:
	.string	"Client: created on pid %d"
	.text
	.align 2
	.globl	_ZN12ClientSocket7connectENSt7__cxx1112basic_stringIcSt11char_traitsIcESaIcEEEi
	.type	_ZN12ClientSocket7connectENSt7__cxx1112basic_stringIcSt11char_traitsIcESaIcEEEi, @function
_ZN12ClientSocket7connectENSt7__cxx1112basic_stringIcSt11char_traitsIcESaIcEEEi:
.LFB1201:
	.loc 1 142 0
	.cfi_startproc
	.cfi_personality 0x9b,DW.ref.__gxx_personality_v0
	.cfi_lsda 0x1b,.LLSDA1201
.LVL101:
	pushq	%rbp
	.cfi_def_cfa_offset 16
	.cfi_offset 6, -16
	movq	%rsp, %rbp
	.cfi_def_cfa_register 6
	pushq	%r15
	pushq	%r14
	pushq	%r13
	pushq	%r12
	pushq	%rbx
	subq	$1672, %rsp
	.cfi_offset 15, -24
	.cfi_offset 14, -32
	.cfi_offset 13, -40
	.cfi_offset 12, -48
	.cfi_offset 3, -56
	movq	%rdi, %r15
	movq	%rsi, %r14
	movl	%edx, -1652(%rbp)
	.loc 1 142 0
	movq	%fs:40, %rax
	movq	%rax, -56(%rbp)
	xorl	%eax, %eax
	.loc 1 144 0
	movq	72(%rdi), %rax
	movl	$-1, 4(%rax)
.LEHB3:
.LBB2878:
	.loc 1 147 0
	call	_ZN12ClientSocket6methodEv@PLT
.LVL102:
	cmpl	$1, %eax
	jne	.L46
.LVL103:
.LBB2879:
.LBB2880:
.LBB2881:
.LBB2882:
.LBB2883:
	.loc 2 109 0
	leaq	-1632(%rbp), %rdi
.LVL104:
	leaq	16(%rdi), %rax
	movq	%rax, -1632(%rbp)
.LVL105:
.LBE2883:
.LBE2882:
.LBB2884:
.LBB2885:
.LBB2886:
.LBB2887:
	.loc 2 195 0
	subq	$8, %rsp
	pushq	$0
	leaq	42+.LC6(%rip), %rdx
.LVL106:
	leaq	.LC6(%rip), %rsi
	call	_ZNSt7__cxx1112basic_stringIcSt11char_traitsIcESaIcEE12_M_constructIPKcEEvT_S8_St20forward_iterator_tag@PLT
.LVL107:
.LEHE3:
.LBE2887:
.LBE2886:
.LBE2885:
.LBE2884:
.LBE2881:
.LBE2880:
	.loc 1 153 0
	movq	72(%r15), %rax
.LVL108:
.LBB2888:
.LBB2889:
.LBB2890:
	.loc 2 716 0
	movq	16(%rax), %rdx
.LVL109:
.LBE2890:
.LBE2889:
.LBE2888:
	.loc 1 153 0
	addq	$16, %rsp
	testq	%rdx, %rdx
	je	.L47
.LVL110:
.LBB2891:
.LBB2892:
.LBB2893:
.LBB2894:
.LBB2895:
.LBB2896:
	.loc 2 109 0
	leaq	-1600(%rbp), %rdi
.LVL111:
	leaq	16(%rdi), %rcx
	movq	%rcx, -1600(%rbp)
.LVL112:
.LBE2896:
.LBE2895:
.LBB2897:
.LBB2898:
	.loc 2 135 0
	movq	8(%rax), %rsi
.LVL113:
.LBE2898:
.LBE2897:
.LBB2899:
.LBB2900:
.LBB2901:
.LBB2902:
	.loc 2 195 0
	addq	%rsi, %rdx
.LVL114:
	subq	$8, %rsp
	pushq	$0
.LEHB4:
	.cfi_escape 0x2e,0x10
	call	_ZNSt7__cxx1112basic_stringIcSt11char_traitsIcESaIcEE12_M_constructIPcEEvT_S7_St20forward_iterator_tag@PLT
.LVL115:
.LEHE4:
	addq	$16, %rsp
.LVL116:
.LBE2902:
.LBE2901:
.LBE2900:
.LBE2899:
.LBE2894:
.LBE2893:
.LBB2903:
.LBB2904:
	.loc 2 1042 0
	leaq	-1600(%rbp), %rdi
.LVL117:
	movl	$64, %r8d
	movl	$1, %ecx
	movl	$0, %edx
	movq	-1592(%rbp), %rsi
.LEHB5:
	.cfi_escape 0x2e,0
	call	_ZNSt7__cxx1112basic_stringIcSt11char_traitsIcESaIcEE14_M_replace_auxEmmmc@PLT
.LVL118:
.LEHE5:
	jmp	.L175
.L152:
	movq	%rax, %rbx
.LVL119:
.LBE2904:
.LBE2903:
.LBB2905:
.LBB2906:
.LBB2907:
.LBB2908:
.LBB2909:
.LBB2910:
	.loc 2 135 0
	movq	-1600(%rbp), %rdi
.LVL120:
.LBE2910:
.LBE2909:
.LBE2908:
	.loc 2 179 0
	leaq	-1584(%rbp), %rax
	cmpq	%rax, %rdi
	je	.L51
.LVL121:
.LBB2911:
.LBB2912:
.LBB2913:
.LBB2914:
	.loc 3 110 0
	call	_ZdlPv@PLT
.LVL122:
	jmp	.L51
.LVL123:
.L175:
.LBE2914:
.LBE2913:
.LBE2912:
.LBE2911:
.LBE2907:
.LBE2906:
.LBE2905:
.LBE2892:
.LBE2891:
.LBB2915:
.LBB2916:
.LBB2917:
	.loc 2 983 0
	leaq	-1632(%rbp), %rdi
.LVL124:
	movq	-1592(%rbp), %rdx
	movq	-1600(%rbp), %rsi
.LEHB6:
	call	_ZNSt7__cxx1112basic_stringIcSt11char_traitsIcESaIcEE9_M_appendEPKcm@PLT
.LVL125:
.LEHE6:
.LBE2917:
.LBE2916:
.LBE2915:
.LBB2918:
.LBB2919:
.LBB2920:
.LBB2921:
.LBB2922:
.LBB2923:
	.loc 2 135 0
	movq	-1600(%rbp), %rdi
.LVL126:
.LBE2923:
.LBE2922:
.LBE2921:
	.loc 2 179 0
	leaq	-1584(%rbp), %rax
	cmpq	%rax, %rdi
	je	.L47
.LVL127:
.LBB2924:
.LBB2925:
.LBB2926:
.LBB2927:
	.loc 3 110 0
	call	_ZdlPv@PLT
.LVL128:
.L47:
.LBE2927:
.LBE2926:
.LBE2925:
.LBE2924:
.LBE2920:
.LBE2919:
.LBE2918:
	.loc 1 158 0
	movq	72(%r15), %rdi
	cmpq	$0, 48(%rdi)
	jne	.L53
.LVL129:
	.loc 1 159 0
	addq	$40, %rdi
.LVL130:
.LBB2928:
.LBB2929:
.LBB2930:
	.loc 2 1095 0
	movq	%r14, %rsi
.LEHB7:
	call	_ZNSt7__cxx1112basic_stringIcSt11char_traitsIcESaIcEE9_M_assignERKS4_@PLT
.LVL131:
.L53:
.LBE2930:
.LBE2929:
.LBE2928:
	.loc 1 162 0
	movq	72(%r15), %rax
.LVL132:
.LBB2931:
.LBB2932:
.LBB2933:
	.loc 2 983 0
	movq	48(%rax), %rdx
	movq	40(%rax), %rsi
	leaq	-1632(%rbp), %rdi
.LVL133:
	call	_ZNSt7__cxx1112basic_stringIcSt11char_traitsIcESaIcEE9_M_appendEPKcm@PLT
.LVL134:
.LEHE7:
.LBE2933:
.LBE2932:
.LBE2931:
	.loc 1 163 0
	movq	72(%r15), %rax
	movq	%rax, -1664(%rbp)
.LVL135:
.LBB2934:
.LBB2935:
.LBB2936:
.LBB2937:
.LBB2938:
.LBB2939:
	.file 9 "/usr/include/c++/5/bits/basic_ios.h"
	.loc 9 462 0
	leaq	-1248(%rbp), %rbx
.LVL136:
	leaq	128(%rbx), %rdi
	call	_ZNSt8ios_baseC2Ev@PLT
.LVL137:
	movq	_ZTVSt9basic_iosIcSt11char_traitsIcEE@GOTPCREL(%rip), %rax
	leaq	16(%rax), %rax
	movq	%rax, -1120(%rbp)
	movq	$0, -904(%rbp)
	movb	$0, -896(%rbp)
	movb	$0, -895(%rbp)
	movq	$0, -888(%rbp)
	movq	$0, -880(%rbp)
	movq	$0, -872(%rbp)
	movq	$0, -864(%rbp)
.LVL138:
.LBE2939:
.LBE2938:
.LBB2940:
.LBB2941:
.LBB2942:
.LBB2943:
	.file 10 "/usr/include/c++/5/istream"
	.loc 10 607 0
	movq	_ZTTNSt7__cxx1118basic_stringstreamIcSt11char_traitsIcESaIcEEE@GOTPCREL(%rip), %rax
	movq	16(%rax), %rcx
	movq	%rcx, -1672(%rbp)
	movq	%rcx, -1248(%rbp)
	movq	24(%rax), %rax
	movq	%rax, %rsi
	movq	%rax, -1680(%rbp)
	movq	-24(%rcx), %rax
	movq	%rsi, -1248(%rbp,%rax)
	movq	$0, -1240(%rbp)
	.loc 10 608 0
	movq	-1248(%rbp), %rax
	addq	-24(%rax), %rbx
.LVL139:
	movq	%rbx, %rdi
	movl	$0, %esi
.LEHB8:
	call	_ZNSt9basic_iosIcSt11char_traitsIcEE4initEPSt15basic_streambufIcS1_E@PLT
.LVL140:
.LEHE8:
.LBE2943:
.LBE2942:
.LBB2944:
.LBB2945:
	.file 11 "/usr/include/c++/5/ostream"
	.loc 11 385 0
	movq	_ZTTNSt7__cxx1118basic_stringstreamIcSt11char_traitsIcESaIcEEE@GOTPCREL(%rip), %rax
	movq	32(%rax), %r12
	movq	%r12, -1232(%rbp)
	movq	40(%rax), %rax
	movq	%rax, %rcx
	movq	%rax, -1688(%rbp)
	movq	-24(%r12), %rax
	movq	%rcx, -1232(%rbp,%rax)
	movq	-1232(%rbp), %rax
	movq	-24(%rax), %rax
	leaq	-1232(%rbp,%rax), %rdi
	movl	$0, %esi
.LEHB9:
	call	_ZNSt9basic_iosIcSt11char_traitsIcEE4initEPSt15basic_streambufIcS1_E@PLT
.LVL141:
.LEHE9:
.LBE2945:
.LBE2944:
	.loc 10 860 0
	movq	_ZTTNSt7__cxx1118basic_stringstreamIcSt11char_traitsIcESaIcEEE@GOTPCREL(%rip), %rax
	movq	8(%rax), %r13
	movq	%r13, -1248(%rbp)
	movq	48(%rax), %rax
	movq	%rax, %rcx
	movq	%rax, -1696(%rbp)
	movq	-24(%r13), %rax
	movq	%rcx, -1248(%rbp,%rax)
.LVL142:
.LBE2941:
.LBE2940:
	.loc 6 691 0
	movq	_ZTVNSt7__cxx1118basic_stringstreamIcSt11char_traitsIcESaIcEEE@GOTPCREL(%rip), %rax
	leaq	24(%rax), %rdx
	movq	%rdx, -1248(%rbp)
	leaq	104(%rax), %rdx
	movq	%rdx, -1120(%rbp)
	leaq	64(%rax), %rax
	movq	%rax, -1232(%rbp)
.LVL143:
.LBB2949:
.LBB2950:
.LBB2951:
.LBB2952:
	.loc 7 466 0
	movq	_ZTVSt15basic_streambufIcSt11char_traitsIcEE@GOTPCREL(%rip), %rax
	leaq	16(%rax), %rax
	movq	%rax, -1224(%rbp)
	movq	$0, -1216(%rbp)
	movq	$0, -1208(%rbp)
	movq	$0, -1200(%rbp)
	movq	$0, -1192(%rbp)
	movq	$0, -1184(%rbp)
	movq	$0, -1176(%rbp)
	leaq	-1248(%rbp), %rbx
.LVL144:
	leaq	80(%rbx), %rdi
	call	_ZNSt6localeC1Ev@PLT
.LVL145:
.LBE2952:
.LBE2951:
	.loc 6 101 0
	movq	_ZTVNSt7__cxx1115basic_stringbufIcSt11char_traitsIcESaIcEEE@GOTPCREL(%rip), %rax
	leaq	16(%rax), %rax
	movq	%rax, -1224(%rbp)
	movl	$24, -1160(%rbp)
.LVL146:
.LBB2953:
.LBB2954:
.LBB2955:
	.loc 2 109 0
	leaq	112(%rbx), %rax
	movq	%rax, -1152(%rbp)
.LVL147:
.LBE2955:
.LBE2954:
.LBB2956:
.LBB2957:
.LBB2958:
	.loc 2 131 0
	movq	$0, -1144(%rbp)
.LVL148:
.LBE2958:
.LBE2957:
.LBB2959:
.LBB2960:
	.loc 4 243 0
	movb	$0, -1136(%rbp)
.LVL149:
.LBE2960:
.LBE2959:
.LBE2956:
.LBE2953:
.LBE2950:
.LBE2949:
	.loc 6 692 0
	leaq	24(%rbx), %rsi
	leaq	128(%rbx), %rdi
.LEHB10:
	call	_ZNSt9basic_iosIcSt11char_traitsIcEE4initEPSt15basic_streambufIcS1_E@PLT
.LVL150:
.LEHE10:
	jmp	.L176
.LVL151:
.L156:
	movq	%rax, %rbx
.LVL152:
.LBB2961:
.LBB2948:
.LBB2946:
.LBB2947:
	.loc 10 104 0
	movq	-1672(%rbp), %rax
	movq	%rax, -1248(%rbp)
	movq	-24(%rax), %rax
	movq	-1680(%rbp), %rcx
	movq	%rcx, -1248(%rbp,%rax)
.LVL153:
	jmp	.L56
.LVL154:
.L155:
	movq	%rax, %rbx
.LVL155:
.LBE2947:
.LBE2946:
.LBE2948:
.LBE2961:
	.loc 6 691 0
	leaq	-1224(%rbp), %rdi
	call	_ZNSt7__cxx1115basic_stringbufIcSt11char_traitsIcESaIcEED1Ev@PLT
.LVL156:
.LBB2962:
.LBB2963:
	.loc 10 856 0
	movq	%r13, -1248(%rbp)
	movq	-24(%r13), %rax
	movq	-1696(%rbp), %rcx
	movq	%rcx, -1248(%rbp,%rax)
.LVL157:
.LBB2964:
.LBB2965:
	.loc 11 93 0
	movq	%r12, -1232(%rbp)
	movq	-24(%r12), %rax
	movq	-1688(%rbp), %rcx
	movq	%rcx, -1232(%rbp,%rax)
.LVL158:
.LBE2965:
.LBE2964:
.LBB2966:
.LBB2967:
	.loc 10 104 0
	movq	-1672(%rbp), %rax
	movq	%rax, -1248(%rbp)
	movq	-24(%rax), %rax
	movq	-1680(%rbp), %rcx
	movq	%rcx, -1248(%rbp,%rax)
.LVL159:
	jmp	.L56
.LVL160:
.L154:
	movq	%rax, %rbx
.LVL161:
.L56:
.LBE2967:
.LBE2966:
.LBE2963:
.LBE2962:
.LBB2968:
.LBB2969:
	.loc 9 282 0
	movq	_ZTVSt9basic_iosIcSt11char_traitsIcEE@GOTPCREL(%rip), %rax
	leaq	16(%rax), %rax
	movq	%rax, -1120(%rbp)
	leaq	-1120(%rbp), %rdi
.LVL162:
	call	_ZNSt8ios_baseD2Ev@PLT
.LVL163:
	jmp	.L51
.LVL164:
.L176:
.LBE2969:
.LBE2968:
.LBE2937:
.LBE2936:
	.loc 1 58 0
	movq	-1664(%rbp), %rax
	movl	72(%rax), %esi
	leaq	-1232(%rbp), %rdi
.LEHB11:
	call	_ZNSolsEi@PLT
.LVL165:
.LEHE11:
.LBB2970:
.LBB2971:
.LBB2972:
.LBB2973:
.LBB2974:
.LBB2975:
	.loc 2 109 0
	leaq	-1552(%rbp), %rax
.LVL166:
	movq	%rax, -1568(%rbp)
.LVL167:
.LBE2975:
.LBE2974:
.LBB2976:
.LBB2977:
.LBB2978:
	.loc 2 131 0
	movq	$0, -1560(%rbp)
.LVL168:
.LBE2978:
.LBE2977:
.LBB2979:
.LBB2980:
	.loc 4 243 0
	movb	$0, -1552(%rbp)
.LVL169:
.LBE2980:
.LBE2979:
.LBE2976:
.LBE2973:
.LBB2981:
.LBB2982:
	.loc 7 532 0
	movq	-1184(%rbp), %rax
.LVL170:
.LBE2982:
.LBE2981:
	.loc 6 169 0
	testq	%rax, %rax
	je	.L58
.LVL171:
.LBB2983:
.LBB2984:
	.loc 7 488 0
	movq	-1200(%rbp), %rdx
.LVL172:
.LBE2984:
.LBE2983:
	.loc 6 172 0
	cmpq	%rdx, %rax
	jbe	.L59
.LVL173:
.LBB2985:
.LBB2986:
.LBB2987:
	.loc 2 109 0
	leaq	-1408(%rbp), %rdi
.LVL174:
	leaq	16(%rdi), %rdx
	movq	%rdx, -1408(%rbp)
.LVL175:
.LBE2987:
.LBE2986:
.LBB2988:
.LBB2989:
.LBB2990:
.LBB2991:
	.loc 2 195 0
	subq	$8, %rsp
	pushq	$0
.LVL176:
	movq	%rax, %rdx
	movq	-1192(%rbp), %rsi
.LVL177:
.LEHB12:
	.cfi_escape 0x2e,0x10
	call	_ZNSt7__cxx1112basic_stringIcSt11char_traitsIcESaIcEE12_M_constructIPcEEvT_S7_St20forward_iterator_tag@PLT
.LVL178:
.LEHE12:
	addq	$16, %rsp
.LVL179:
.LBE2991:
.LBE2990:
.LBE2989:
.LBE2988:
.LBE2985:
.LBB2992:
.LBB2993:
.LBB2994:
	.loc 2 1095 0
	leaq	-1408(%rbp), %rsi
.LVL180:
	leaq	-1568(%rbp), %rdi
.LVL181:
.LEHB13:
	.cfi_escape 0x2e,0
	call	_ZNSt7__cxx1112basic_stringIcSt11char_traitsIcESaIcEE9_M_assignERKS4_@PLT
.LVL182:
.LEHE13:
.LBE2994:
.LBE2993:
.LBE2992:
.LBB2995:
.LBB2996:
.LBB2997:
.LBB2998:
.LBB2999:
.LBB3000:
	.loc 2 135 0
	movq	-1408(%rbp), %rdi
.LVL183:
.LBE3000:
.LBE2999:
.LBE2998:
	.loc 2 179 0
	leaq	-1392(%rbp), %rax
	cmpq	%rax, %rdi
	je	.L61
.LVL184:
.LBB3001:
.LBB3002:
.LBB3003:
.LBB3004:
	.loc 3 110 0
	call	_ZdlPv@PLT
.LVL185:
	jmp	.L61
.LVL186:
.L59:
.LBE3004:
.LBE3003:
.LBE3002:
.LBE3001:
.LBE2997:
.LBE2996:
.LBE2995:
.LBB3005:
.LBB3006:
.LBB3007:
	.loc 2 109 0
	leaq	-1440(%rbp), %rdi
.LVL187:
	leaq	16(%rdi), %rax
	movq	%rax, -1440(%rbp)
.LVL188:
.LBE3007:
.LBE3006:
.LBB3008:
.LBB3009:
.LBB3010:
.LBB3011:
	.loc 2 195 0
	subq	$8, %rsp
	pushq	$0
.LVL189:
	movq	-1192(%rbp), %rsi
.LVL190:
.LEHB14:
	.cfi_escape 0x2e,0x10
	call	_ZNSt7__cxx1112basic_stringIcSt11char_traitsIcESaIcEE12_M_constructIPcEEvT_S7_St20forward_iterator_tag@PLT
.LVL191:
.LEHE14:
	addq	$16, %rsp
.LVL192:
.LBE3011:
.LBE3010:
.LBE3009:
.LBE3008:
.LBE3005:
.LBB3012:
.LBB3013:
.LBB3014:
	.loc 2 1095 0
	leaq	-1440(%rbp), %rsi
.LVL193:
	leaq	-1568(%rbp), %rdi
.LVL194:
.LEHB15:
	.cfi_escape 0x2e,0
	call	_ZNSt7__cxx1112basic_stringIcSt11char_traitsIcESaIcEE9_M_assignERKS4_@PLT
.LVL195:
.LEHE15:
.LBE3014:
.LBE3013:
.LBE3012:
.LBB3015:
.LBB3016:
.LBB3017:
.LBB3018:
.LBB3019:
.LBB3020:
	.loc 2 135 0
	movq	-1440(%rbp), %rdi
.LVL196:
.LBE3020:
.LBE3019:
.LBE3018:
	.loc 2 179 0
	leaq	-1424(%rbp), %rax
	cmpq	%rax, %rdi
	je	.L61
.LVL197:
.LBB3021:
.LBB3022:
.LBB3023:
.LBB3024:
	.loc 3 110 0
	call	_ZdlPv@PLT
.LVL198:
	jmp	.L61
.LVL199:
.L58:
.LBE3024:
.LBE3023:
.LBE3022:
.LBE3021:
.LBE3017:
.LBE3016:
.LBE3015:
.LBB3025:
.LBB3026:
.LBB3027:
	.loc 2 1095 0
	leaq	-1152(%rbp), %rsi
.LVL200:
	leaq	-1568(%rbp), %rdi
.LVL201:
.LEHB16:
	call	_ZNSt7__cxx1112basic_stringIcSt11char_traitsIcESaIcEE9_M_assignERKS4_@PLT
.LVL202:
.LEHE16:
	jmp	.L61
.LVL203:
.L159:
	movq	%rax, %rbx
.LVL204:
.LBE3027:
.LBE3026:
.LBE3025:
.LBB3028:
.LBB3029:
.LBB3030:
.LBB3031:
.LBB3032:
.LBB3033:
	.loc 2 135 0
	movq	-1408(%rbp), %rdi
.LVL205:
.LBE3033:
.LBE3032:
.LBE3031:
	.loc 2 179 0
	leaq	-1392(%rbp), %rax
	cmpq	%rax, %rdi
	je	.L65
.LVL206:
.LBB3034:
.LBB3035:
.LBB3036:
.LBB3037:
	.loc 3 110 0
	call	_ZdlPv@PLT
.LVL207:
	jmp	.L65
.LVL208:
.L158:
	movq	%rax, %rbx
.LVL209:
.LBE3037:
.LBE3036:
.LBE3035:
.LBE3034:
.LBE3030:
.LBE3029:
.LBE3028:
.LBB3038:
.LBB3039:
.LBB3040:
.LBB3041:
.LBB3042:
.LBB3043:
	.loc 2 135 0
	movq	-1440(%rbp), %rdi
.LVL210:
.LBE3043:
.LBE3042:
.LBE3041:
	.loc 2 179 0
	leaq	-1424(%rbp), %rax
	cmpq	%rax, %rdi
	je	.L65
.LVL211:
.LBB3044:
.LBB3045:
.LBB3046:
.LBB3047:
	.loc 3 110 0
	call	_ZdlPv@PLT
.LVL212:
	jmp	.L65
.LVL213:
.L157:
	movq	%rax, %rbx
.L65:
.LVL214:
.LBE3047:
.LBE3046:
.LBE3045:
.LBE3044:
.LBE3040:
.LBE3039:
.LBE3038:
.LBB3048:
.LBB3049:
.LBB3050:
.LBB3051:
.LBB3052:
.LBB3053:
	.loc 2 135 0
	movq	-1568(%rbp), %rdi
.LVL215:
.LBE3053:
.LBE3052:
.LBE3051:
	.loc 2 179 0
	leaq	-1552(%rbp), %rax
	cmpq	%rax, %rdi
	je	.L69
.LVL216:
.LBB3054:
.LBB3055:
.LBB3056:
.LBB3057:
	.loc 3 110 0
	call	_ZdlPv@PLT
.LVL217:
	jmp	.L69
.LVL218:
.L61:
.LBE3057:
.LBE3056:
.LBE3055:
.LBE3054:
.LBE3050:
.LBE3049:
.LBE3048:
.LBE2972:
.LBE2971:
.LBE2970:
.LBB3058:
.LBB3059:
	.loc 6 718 0
	movq	_ZTVNSt7__cxx1118basic_stringstreamIcSt11char_traitsIcESaIcEEE@GOTPCREL(%rip), %rax
	leaq	24(%rax), %rdx
	movq	%rdx, -1248(%rbp)
	leaq	104(%rax), %rdx
	movq	%rdx, -1120(%rbp)
	leaq	64(%rax), %rax
	movq	%rax, -1232(%rbp)
.LVL219:
.LBB3060:
.LBB3061:
	.loc 6 65 0
	movq	_ZTVNSt7__cxx1115basic_stringbufIcSt11char_traitsIcESaIcEEE@GOTPCREL(%rip), %rax
	leaq	16(%rax), %rax
	movq	%rax, -1224(%rbp)
.LVL220:
.LBB3062:
.LBB3063:
.LBB3064:
.LBB3065:
.LBB3066:
.LBB3067:
.LBB3068:
	.loc 2 135 0
	movq	-1152(%rbp), %rdi
.LVL221:
.LBE3068:
.LBE3067:
.LBE3066:
	.loc 2 179 0
	leaq	-1136(%rbp), %rax
	cmpq	%rax, %rdi
	je	.L70
.LVL222:
.LBB3069:
.LBB3070:
.LBB3071:
.LBB3072:
	.loc 3 110 0
	call	_ZdlPv@PLT
.LVL223:
.L70:
.LBE3072:
.LBE3071:
.LBE3070:
.LBE3069:
.LBE3065:
.LBE3064:
.LBE3063:
.LBE3062:
.LBB3073:
.LBB3074:
	.loc 7 198 0
	movq	_ZTVSt15basic_streambufIcSt11char_traitsIcEE@GOTPCREL(%rip), %rax
	leaq	16(%rax), %rax
	movq	%rax, -1224(%rbp)
	leaq	-1248(%rbp), %rbx
	leaq	80(%rbx), %rdi
	call	_ZNSt6localeD1Ev@PLT
.LVL224:
.LBE3074:
.LBE3073:
.LBE3061:
.LBE3060:
.LBB3075:
.LBB3076:
	.loc 10 856 0
	movq	_ZTTNSt7__cxx1118basic_stringstreamIcSt11char_traitsIcESaIcEEE@GOTPCREL(%rip), %rax
	movq	8(%rax), %r13
	movq	%r13, -1248(%rbp)
	movq	48(%rax), %rcx
	movq	%rcx, -1688(%rbp)
	movq	-24(%r13), %rdx
	movq	%rcx, -1248(%rbp,%rdx)
.LVL225:
.LBB3077:
.LBB3078:
	.loc 11 93 0
	movq	32(%rax), %r12
	movq	%r12, -1232(%rbp)
	movq	40(%rax), %rcx
	movq	%rcx, -1696(%rbp)
	movq	-24(%r12), %rdx
	movq	%rcx, -1232(%rbp,%rdx)
.LVL226:
.LBE3078:
.LBE3077:
.LBB3079:
.LBB3080:
	.loc 10 104 0
	movq	16(%rax), %rcx
	movq	%rcx, -1664(%rbp)
	movq	%rcx, -1248(%rbp)
	movq	24(%rax), %rax
	movq	%rax, %rsi
	movq	%rax, -1680(%rbp)
	movq	-24(%rcx), %rax
	movq	%rsi, -1248(%rbp,%rax)
.LVL227:
.LBE3080:
.LBE3079:
.LBE3076:
.LBE3075:
.LBB3081:
.LBB3082:
	.loc 9 282 0
	movq	_ZTVSt9basic_iosIcSt11char_traitsIcEE@GOTPCREL(%rip), %rax
	leaq	16(%rax), %rax
	movq	%rax, -1120(%rbp)
	leaq	128(%rbx), %rdi
.LEHB17:
	call	_ZNSt8ios_baseD2Ev@PLT
.LVL228:
.LEHE17:
.LBE3082:
.LBE3081:
.LBE3059:
.LBE3058:
.LBE2935:
.LBE2934:
.LBB3084:
.LBB3085:
.LBB3086:
.LBB3087:
.LBB3088:
	.loc 2 109 0
	leaq	-1536(%rbp), %rdi
.LVL229:
	leaq	16(%rdi), %rax
	movq	%rax, -1536(%rbp)
.LVL230:
.LBE3088:
.LBE3087:
.LBB3089:
.LBB3090:
.LBB3091:
	.loc 2 131 0
	movq	$0, -1528(%rbp)
.LVL231:
.LBE3091:
.LBE3090:
.LBB3092:
.LBB3093:
	.loc 4 243 0
	movb	$0, -1520(%rbp)
.LVL232:
.LBE3093:
.LBE3092:
.LBE3089:
.LBE3086:
	.loc 8 1159 0
	movq	-1560(%rbp), %rax
	leaq	4(%rax), %rsi
.LEHB18:
	call	_ZNSt7__cxx1112basic_stringIcSt11char_traitsIcESaIcEE7reserveEm@PLT
.LVL233:
.LEHE18:
	jmp	.L177
.LVL234:
.L153:
	movq	%rax, %rbx
.LVL235:
.L69:
.LBE3085:
.LBE3084:
.LBB3111:
.LBB3083:
	.loc 1 58 0
	leaq	-1248(%rbp), %rdi
	call	_ZNSt7__cxx1118basic_stringstreamIcSt11char_traitsIcESaIcEED1Ev@PLT
.LVL236:
	jmp	.L51
.LVL237:
.L177:
.LBE3083:
.LBE3111:
.LBB3112:
.LBB3110:
.LBB3094:
.LBB3095:
.LBB3096:
.LBB3097:
	.loc 2 270 0
	movabsq	$9223372036854775807, %rax
	subq	-1528(%rbp), %rax
	cmpq	$3, %rax
	ja	.L72
	.loc 2 271 0
	leaq	.LC7(%rip), %rdi
.LEHB19:
	call	_ZSt20__throw_length_errorPKc@PLT
.LVL238:
.L72:
.LBE3097:
.LBE3096:
	.loc 2 1015 0
	leaq	-1536(%rbp), %rdi
	movl	$4, %edx
	leaq	.LC8(%rip), %rsi
	call	_ZNSt7__cxx1112basic_stringIcSt11char_traitsIcESaIcEE9_M_appendEPKcm@PLT
.LVL239:
.LBE3095:
.LBE3094:
.LBB3098:
.LBB3099:
	.loc 2 983 0
	leaq	-1536(%rbp), %rdi
.LVL240:
	movq	-1560(%rbp), %rdx
	movq	-1568(%rbp), %rsi
	call	_ZNSt7__cxx1112basic_stringIcSt11char_traitsIcESaIcEE9_M_appendEPKcm@PLT
.LVL241:
.LEHE19:
	jmp	.L178
.LVL242:
.L160:
	movq	%rax, %rbx
.LVL243:
.LBE3099:
.LBE3098:
.LBB3100:
.LBB3101:
.LBB3102:
.LBB3103:
.LBB3104:
.LBB3105:
	.loc 2 135 0
	movq	-1536(%rbp), %rdi
.LVL244:
.LBE3105:
.LBE3104:
.LBE3103:
	.loc 2 179 0
	leaq	-1520(%rbp), %rax
	cmpq	%rax, %rdi
	je	.L76
.LVL245:
.LBB3106:
.LBB3107:
.LBB3108:
.LBB3109:
	.loc 3 110 0
	call	_ZdlPv@PLT
.LVL246:
	jmp	.L76
.LVL247:
.L178:
.LBE3109:
.LBE3108:
.LBE3107:
.LBE3106:
.LBE3102:
.LBE3101:
.LBE3100:
.LBE3110:
.LBE3112:
.LBB3113:
.LBB3114:
.LBB3115:
	.loc 2 983 0
	leaq	-1632(%rbp), %rdi
.LVL248:
	movq	-1528(%rbp), %rdx
	movq	-1536(%rbp), %rsi
.LEHB20:
	call	_ZNSt7__cxx1112basic_stringIcSt11char_traitsIcESaIcEE9_M_appendEPKcm@PLT
.LVL249:
.LEHE20:
.LBE3115:
.LBE3114:
.LBE3113:
.LBB3116:
.LBB3117:
.LBB3118:
.LBB3119:
.LBB3120:
.LBB3121:
	.loc 2 135 0
	movq	-1536(%rbp), %rdi
.LVL250:
.LBE3121:
.LBE3120:
.LBE3119:
	.loc 2 179 0
	leaq	-1520(%rbp), %rax
	cmpq	%rax, %rdi
	je	.L77
.LVL251:
.LBB3122:
.LBB3123:
.LBB3124:
.LBB3125:
	.loc 3 110 0
	call	_ZdlPv@PLT
.LVL252:
.L77:
.LBE3125:
.LBE3124:
.LBE3123:
.LBE3122:
.LBE3118:
.LBE3117:
.LBE3116:
.LBB3126:
.LBB3127:
.LBB3128:
.LBB3129:
.LBB3130:
.LBB3131:
	.loc 2 135 0
	movq	-1568(%rbp), %rdi
.LVL253:
.LBE3131:
.LBE3130:
.LBE3129:
	.loc 2 179 0
	leaq	-1552(%rbp), %rax
	cmpq	%rax, %rdi
	je	.L78
.LVL254:
.LBB3132:
.LBB3133:
.LBB3134:
.LBB3135:
	.loc 3 110 0
	call	_ZdlPv@PLT
.LVL255:
.L78:
.LBE3135:
.LBE3134:
.LBE3133:
.LBE3132:
.LBE3128:
.LBE3127:
.LBE3126:
.LBB3136:
.LBB3137:
.LBB3138:
.LBB3139:
.LBB3140:
	.loc 2 270 0
	movabsq	$9223372036854775807, %rax
	subq	-1624(%rbp), %rax
	cmpq	$6, %rax
	ja	.L79
	.loc 2 271 0
	leaq	.LC7(%rip), %rdi
.LEHB21:
	call	_ZSt20__throw_length_errorPKc@PLT
.LVL256:
.L79:
.LBE3140:
.LBE3139:
	.loc 2 1029 0
	leaq	-1632(%rbp), %rdi
	movl	$7, %edx
	leaq	.LC9(%rip), %rsi
	call	_ZNSt7__cxx1112basic_stringIcSt11char_traitsIcESaIcEE9_M_appendEPKcm@PLT
.LVL257:
.LEHE21:
.LBE3138:
.LBE3137:
.LBE3136:
	.loc 1 167 0
	movl	-1652(%rbp), %eax
	addl	$1, %eax
	movl	%eax, -1672(%rbp)
.LVL258:
.LBB3141:
.LBB3142:
.LBB3143:
.LBB3144:
.LBB3145:
.LBB3146:
	.loc 9 462 0
	leaq	-848(%rbp), %rbx
.LVL259:
	leaq	128(%rbx), %rdi
	call	_ZNSt8ios_baseC2Ev@PLT
.LVL260:
	movq	_ZTVSt9basic_iosIcSt11char_traitsIcEE@GOTPCREL(%rip), %rax
	leaq	16(%rax), %rax
	movq	%rax, -720(%rbp)
	movq	$0, -504(%rbp)
	movb	$0, -496(%rbp)
	movb	$0, -495(%rbp)
	movq	$0, -488(%rbp)
	movq	$0, -480(%rbp)
	movq	$0, -472(%rbp)
	movq	$0, -464(%rbp)
.LVL261:
.LBE3146:
.LBE3145:
.LBB3147:
.LBB3148:
.LBB3149:
.LBB3150:
	.loc 10 607 0
	movq	-1664(%rbp), %rax
	movq	%rax, -848(%rbp)
	movq	-24(%rax), %rax
	movq	-1680(%rbp), %rcx
	movq	%rcx, -848(%rbp,%rax)
	movq	$0, -840(%rbp)
	.loc 10 608 0
	movq	-848(%rbp), %rax
	addq	-24(%rax), %rbx
.LVL262:
	movq	%rbx, %rdi
	movl	$0, %esi
.LEHB22:
	call	_ZNSt9basic_iosIcSt11char_traitsIcEE4initEPSt15basic_streambufIcS1_E@PLT
.LVL263:
.LEHE22:
.LBE3150:
.LBE3149:
.LBB3151:
.LBB3152:
	.loc 11 385 0
	movq	%r12, -832(%rbp)
	movq	-24(%r12), %rax
	movq	-1696(%rbp), %rbx
	movq	%rbx, -832(%rbp,%rax)
	movq	-832(%rbp), %rax
	movq	-24(%rax), %rax
	leaq	-832(%rbp,%rax), %rdi
	movl	$0, %esi
.LEHB23:
	call	_ZNSt9basic_iosIcSt11char_traitsIcEE4initEPSt15basic_streambufIcS1_E@PLT
.LVL264:
.LEHE23:
.LBE3152:
.LBE3151:
	.loc 10 860 0
	movq	%r13, -848(%rbp)
	movq	-24(%r13), %rax
	movq	-1688(%rbp), %rbx
	movq	%rbx, -848(%rbp,%rax)
.LVL265:
.LBE3148:
.LBE3147:
	.loc 6 691 0
	movq	_ZTVNSt7__cxx1118basic_stringstreamIcSt11char_traitsIcESaIcEEE@GOTPCREL(%rip), %rax
	leaq	24(%rax), %rdx
	movq	%rdx, -848(%rbp)
	leaq	104(%rax), %rdx
	movq	%rdx, -720(%rbp)
	leaq	64(%rax), %rax
	movq	%rax, -832(%rbp)
.LVL266:
.LBB3156:
.LBB3157:
.LBB3158:
.LBB3159:
	.loc 7 466 0
	movq	_ZTVSt15basic_streambufIcSt11char_traitsIcEE@GOTPCREL(%rip), %rax
	leaq	16(%rax), %rax
	movq	%rax, -824(%rbp)
	movq	$0, -816(%rbp)
	movq	$0, -808(%rbp)
	movq	$0, -800(%rbp)
	movq	$0, -792(%rbp)
	movq	$0, -784(%rbp)
	movq	$0, -776(%rbp)
	leaq	-848(%rbp), %rbx
.LVL267:
	leaq	80(%rbx), %rdi
	call	_ZNSt6localeC1Ev@PLT
.LVL268:
.LBE3159:
.LBE3158:
	.loc 6 101 0
	movq	_ZTVNSt7__cxx1115basic_stringbufIcSt11char_traitsIcESaIcEEE@GOTPCREL(%rip), %rax
	leaq	16(%rax), %rax
	movq	%rax, -824(%rbp)
	movl	$24, -760(%rbp)
.LVL269:
.LBB3160:
.LBB3161:
.LBB3162:
	.loc 2 109 0
	leaq	112(%rbx), %rax
	movq	%rax, -752(%rbp)
.LVL270:
.LBE3162:
.LBE3161:
.LBB3163:
.LBB3164:
.LBB3165:
	.loc 2 131 0
	movq	$0, -744(%rbp)
.LVL271:
.LBE3165:
.LBE3164:
.LBB3166:
.LBB3167:
	.loc 4 243 0
	movb	$0, -736(%rbp)
.LVL272:
.LBE3167:
.LBE3166:
.LBE3163:
.LBE3160:
.LBE3157:
.LBE3156:
	.loc 6 692 0
	leaq	24(%rbx), %rsi
	leaq	128(%rbx), %rdi
.LEHB24:
	call	_ZNSt9basic_iosIcSt11char_traitsIcEE4initEPSt15basic_streambufIcS1_E@PLT
.LVL273:
.LEHE24:
	jmp	.L179
.LVL274:
.L164:
	movq	%rax, %rbx
.LVL275:
.LBB3168:
.LBB3155:
.LBB3153:
.LBB3154:
	.loc 10 104 0
	movq	-1664(%rbp), %rax
	movq	%rax, -848(%rbp)
	movq	-24(%rax), %rax
	movq	-1680(%rbp), %rcx
	movq	%rcx, -848(%rbp,%rax)
.LVL276:
	jmp	.L82
.LVL277:
.L163:
	movq	%rax, %rbx
.LVL278:
.LBE3154:
.LBE3153:
.LBE3155:
.LBE3168:
	.loc 6 691 0
	leaq	-824(%rbp), %rdi
	call	_ZNSt7__cxx1115basic_stringbufIcSt11char_traitsIcESaIcEED1Ev@PLT
.LVL279:
.LBB3169:
.LBB3170:
	.loc 10 856 0
	movq	%r13, -848(%rbp)
	movq	-24(%r13), %rax
	movq	-1688(%rbp), %rcx
	movq	%rcx, -848(%rbp,%rax)
.LVL280:
.LBB3171:
.LBB3172:
	.loc 11 93 0
	movq	%r12, -832(%rbp)
	movq	-24(%r12), %rax
	movq	-1696(%rbp), %rcx
	movq	%rcx, -832(%rbp,%rax)
.LVL281:
.LBE3172:
.LBE3171:
.LBB3173:
.LBB3174:
	.loc 10 104 0
	movq	-1664(%rbp), %rax
	movq	%rax, -848(%rbp)
	movq	-24(%rax), %rax
	movq	-1680(%rbp), %rcx
	movq	%rcx, -848(%rbp,%rax)
.LVL282:
	jmp	.L82
.LVL283:
.L162:
	movq	%rax, %rbx
.LVL284:
.L82:
.LBE3174:
.LBE3173:
.LBE3170:
.LBE3169:
.LBB3175:
.LBB3176:
	.loc 9 282 0
	movq	_ZTVSt9basic_iosIcSt11char_traitsIcEE@GOTPCREL(%rip), %rax
	leaq	16(%rax), %rax
	movq	%rax, -720(%rbp)
	leaq	-720(%rbp), %rdi
.LVL285:
	call	_ZNSt8ios_baseD2Ev@PLT
.LVL286:
	jmp	.L51
.LVL287:
.L179:
.LBE3176:
.LBE3175:
.LBE3144:
.LBE3143:
	.loc 1 58 0
	leaq	-832(%rbp), %rdi
	movl	-1672(%rbp), %esi
.LEHB25:
	call	_ZNSolsEi@PLT
.LVL288:
.LEHE25:
.LBB3177:
.LBB3178:
.LBB3179:
.LBB3180:
.LBB3181:
.LBB3182:
	.loc 2 109 0
	leaq	-1488(%rbp), %rax
.LVL289:
	movq	%rax, -1504(%rbp)
.LVL290:
.LBE3182:
.LBE3181:
.LBB3183:
.LBB3184:
.LBB3185:
	.loc 2 131 0
	movq	$0, -1496(%rbp)
.LVL291:
.LBE3185:
.LBE3184:
.LBB3186:
.LBB3187:
	.loc 4 243 0
	movb	$0, -1488(%rbp)
.LVL292:
.LBE3187:
.LBE3186:
.LBE3183:
.LBE3180:
.LBB3188:
.LBB3189:
	.loc 7 532 0
	movq	-784(%rbp), %rax
.LVL293:
.LBE3189:
.LBE3188:
	.loc 6 169 0
	testq	%rax, %rax
	je	.L84
.LVL294:
.LBB3190:
.LBB3191:
	.loc 7 488 0
	movq	-800(%rbp), %rdx
.LVL295:
.LBE3191:
.LBE3190:
	.loc 6 172 0
	cmpq	%rdx, %rax
	jbe	.L85
.LVL296:
.LBB3192:
.LBB3193:
.LBB3194:
	.loc 2 109 0
	leaq	-1344(%rbp), %rdi
.LVL297:
	leaq	16(%rdi), %rdx
	movq	%rdx, -1344(%rbp)
.LVL298:
.LBE3194:
.LBE3193:
.LBB3195:
.LBB3196:
.LBB3197:
.LBB3198:
	.loc 2 195 0
	subq	$8, %rsp
	pushq	$0
.LVL299:
	movq	%rax, %rdx
	movq	-792(%rbp), %rsi
.LVL300:
.LEHB26:
	.cfi_escape 0x2e,0x10
	call	_ZNSt7__cxx1112basic_stringIcSt11char_traitsIcESaIcEE12_M_constructIPcEEvT_S7_St20forward_iterator_tag@PLT
.LVL301:
.LEHE26:
	addq	$16, %rsp
.LVL302:
.LBE3198:
.LBE3197:
.LBE3196:
.LBE3195:
.LBE3192:
.LBB3199:
.LBB3200:
.LBB3201:
	.loc 2 1095 0
	leaq	-1344(%rbp), %rsi
.LVL303:
	leaq	-1504(%rbp), %rdi
.LVL304:
.LEHB27:
	.cfi_escape 0x2e,0
	call	_ZNSt7__cxx1112basic_stringIcSt11char_traitsIcESaIcEE9_M_assignERKS4_@PLT
.LVL305:
.LEHE27:
.LBE3201:
.LBE3200:
.LBE3199:
.LBB3202:
.LBB3203:
.LBB3204:
.LBB3205:
.LBB3206:
.LBB3207:
	.loc 2 135 0
	movq	-1344(%rbp), %rdi
.LVL306:
.LBE3207:
.LBE3206:
.LBE3205:
	.loc 2 179 0
	leaq	-1328(%rbp), %rax
	cmpq	%rax, %rdi
	je	.L87
.LVL307:
.LBB3208:
.LBB3209:
.LBB3210:
.LBB3211:
	.loc 3 110 0
	call	_ZdlPv@PLT
.LVL308:
	jmp	.L87
.LVL309:
.L85:
.LBE3211:
.LBE3210:
.LBE3209:
.LBE3208:
.LBE3204:
.LBE3203:
.LBE3202:
.LBB3212:
.LBB3213:
.LBB3214:
	.loc 2 109 0
	leaq	-1376(%rbp), %rdi
.LVL310:
	leaq	16(%rdi), %rax
	movq	%rax, -1376(%rbp)
.LVL311:
.LBE3214:
.LBE3213:
.LBB3215:
.LBB3216:
.LBB3217:
.LBB3218:
	.loc 2 195 0
	subq	$8, %rsp
	pushq	$0
.LVL312:
	movq	-792(%rbp), %rsi
.LVL313:
.LEHB28:
	.cfi_escape 0x2e,0x10
	call	_ZNSt7__cxx1112basic_stringIcSt11char_traitsIcESaIcEE12_M_constructIPcEEvT_S7_St20forward_iterator_tag@PLT
.LVL314:
.LEHE28:
	addq	$16, %rsp
.LVL315:
.LBE3218:
.LBE3217:
.LBE3216:
.LBE3215:
.LBE3212:
.LBB3219:
.LBB3220:
.LBB3221:
	.loc 2 1095 0
	leaq	-1376(%rbp), %rsi
.LVL316:
	leaq	-1504(%rbp), %rdi
.LVL317:
.LEHB29:
	.cfi_escape 0x2e,0
	call	_ZNSt7__cxx1112basic_stringIcSt11char_traitsIcESaIcEE9_M_assignERKS4_@PLT
.LVL318:
.LEHE29:
.LBE3221:
.LBE3220:
.LBE3219:
.LBB3222:
.LBB3223:
.LBB3224:
.LBB3225:
.LBB3226:
.LBB3227:
	.loc 2 135 0
	movq	-1376(%rbp), %rdi
.LVL319:
.LBE3227:
.LBE3226:
.LBE3225:
	.loc 2 179 0
	leaq	-1360(%rbp), %rax
	cmpq	%rax, %rdi
	je	.L87
.LVL320:
.LBB3228:
.LBB3229:
.LBB3230:
.LBB3231:
	.loc 3 110 0
	call	_ZdlPv@PLT
.LVL321:
	jmp	.L87
.LVL322:
.L84:
.LBE3231:
.LBE3230:
.LBE3229:
.LBE3228:
.LBE3224:
.LBE3223:
.LBE3222:
.LBB3232:
.LBB3233:
.LBB3234:
	.loc 2 1095 0
	leaq	-752(%rbp), %rsi
.LVL323:
	leaq	-1504(%rbp), %rdi
.LVL324:
.LEHB30:
	call	_ZNSt7__cxx1112basic_stringIcSt11char_traitsIcESaIcEE9_M_assignERKS4_@PLT
.LVL325:
.LEHE30:
	jmp	.L87
.LVL326:
.L167:
	movq	%rax, %rbx
.LVL327:
.LBE3234:
.LBE3233:
.LBE3232:
.LBB3235:
.LBB3236:
.LBB3237:
.LBB3238:
.LBB3239:
.LBB3240:
	.loc 2 135 0
	movq	-1344(%rbp), %rdi
.LVL328:
.LBE3240:
.LBE3239:
.LBE3238:
	.loc 2 179 0
	leaq	-1328(%rbp), %rax
	cmpq	%rax, %rdi
	je	.L91
.LVL329:
.LBB3241:
.LBB3242:
.LBB3243:
.LBB3244:
	.loc 3 110 0
	call	_ZdlPv@PLT
.LVL330:
	jmp	.L91
.LVL331:
.L166:
	movq	%rax, %rbx
.LVL332:
.LBE3244:
.LBE3243:
.LBE3242:
.LBE3241:
.LBE3237:
.LBE3236:
.LBE3235:
.LBB3245:
.LBB3246:
.LBB3247:
.LBB3248:
.LBB3249:
.LBB3250:
	.loc 2 135 0
	movq	-1376(%rbp), %rdi
.LVL333:
.LBE3250:
.LBE3249:
.LBE3248:
	.loc 2 179 0
	leaq	-1360(%rbp), %rax
	cmpq	%rax, %rdi
	je	.L91
.LVL334:
.LBB3251:
.LBB3252:
.LBB3253:
.LBB3254:
	.loc 3 110 0
	call	_ZdlPv@PLT
.LVL335:
	jmp	.L91
.LVL336:
.L165:
	movq	%rax, %rbx
.L91:
.LVL337:
.LBE3254:
.LBE3253:
.LBE3252:
.LBE3251:
.LBE3247:
.LBE3246:
.LBE3245:
.LBB3255:
.LBB3256:
.LBB3257:
.LBB3258:
.LBB3259:
.LBB3260:
	.loc 2 135 0
	movq	-1504(%rbp), %rdi
.LVL338:
.LBE3260:
.LBE3259:
.LBE3258:
	.loc 2 179 0
	leaq	-1488(%rbp), %rax
	cmpq	%rax, %rdi
	je	.L95
.LVL339:
.LBB3261:
.LBB3262:
.LBB3263:
.LBB3264:
	.loc 3 110 0
	call	_ZdlPv@PLT
.LVL340:
	jmp	.L95
.LVL341:
.L87:
.LBE3264:
.LBE3263:
.LBE3262:
.LBE3261:
.LBE3257:
.LBE3256:
.LBE3255:
.LBE3179:
.LBE3178:
.LBE3177:
.LBB3265:
.LBB3266:
	.loc 6 718 0
	movq	_ZTVNSt7__cxx1118basic_stringstreamIcSt11char_traitsIcESaIcEEE@GOTPCREL(%rip), %rax
	leaq	24(%rax), %rdx
	movq	%rdx, -848(%rbp)
	leaq	104(%rax), %rdx
	movq	%rdx, -720(%rbp)
	leaq	64(%rax), %rax
	movq	%rax, -832(%rbp)
.LVL342:
.LBB3267:
.LBB3268:
	.loc 6 65 0
	movq	_ZTVNSt7__cxx1115basic_stringbufIcSt11char_traitsIcESaIcEEE@GOTPCREL(%rip), %rax
	leaq	16(%rax), %rax
	movq	%rax, -824(%rbp)
.LVL343:
.LBB3269:
.LBB3270:
.LBB3271:
.LBB3272:
.LBB3273:
.LBB3274:
.LBB3275:
	.loc 2 135 0
	movq	-752(%rbp), %rdi
.LVL344:
.LBE3275:
.LBE3274:
.LBE3273:
	.loc 2 179 0
	leaq	-736(%rbp), %rax
	cmpq	%rax, %rdi
	je	.L96
.LVL345:
.LBB3276:
.LBB3277:
.LBB3278:
.LBB3279:
	.loc 3 110 0
	call	_ZdlPv@PLT
.LVL346:
.L96:
.LBE3279:
.LBE3278:
.LBE3277:
.LBE3276:
.LBE3272:
.LBE3271:
.LBE3270:
.LBE3269:
.LBB3280:
.LBB3281:
	.loc 7 198 0
	movq	_ZTVSt15basic_streambufIcSt11char_traitsIcEE@GOTPCREL(%rip), %rax
	leaq	16(%rax), %rax
	movq	%rax, -824(%rbp)
	leaq	-848(%rbp), %rbx
	leaq	80(%rbx), %rdi
	call	_ZNSt6localeD1Ev@PLT
.LVL347:
.LBE3281:
.LBE3280:
.LBE3268:
.LBE3267:
.LBB3282:
.LBB3283:
	.loc 10 856 0
	movq	_ZTTNSt7__cxx1118basic_stringstreamIcSt11char_traitsIcESaIcEEE@GOTPCREL(%rip), %rax
	movq	8(%rax), %r13
	movq	%r13, -848(%rbp)
	movq	48(%rax), %rcx
	movq	%rcx, -1696(%rbp)
	movq	-24(%r13), %rdx
	movq	%rcx, -848(%rbp,%rdx)
.LVL348:
.LBB3284:
.LBB3285:
	.loc 11 93 0
	movq	32(%rax), %r12
	movq	%r12, -832(%rbp)
	movq	40(%rax), %rsi
	movq	%rsi, -1704(%rbp)
	movq	-24(%r12), %rdx
	movq	%rsi, -832(%rbp,%rdx)
.LVL349:
.LBE3285:
.LBE3284:
.LBB3286:
.LBB3287:
	.loc 10 104 0
	movq	16(%rax), %rcx
	movq	%rcx, -1680(%rbp)
	movq	%rcx, -848(%rbp)
	movq	24(%rax), %rax
	movq	%rax, %rsi
	movq	%rax, -1688(%rbp)
	movq	-24(%rcx), %rax
	movq	%rsi, -848(%rbp,%rax)
.LVL350:
.LBE3287:
.LBE3286:
.LBE3283:
.LBE3282:
.LBB3288:
.LBB3289:
	.loc 9 282 0
	movq	_ZTVSt9basic_iosIcSt11char_traitsIcEE@GOTPCREL(%rip), %rax
	leaq	16(%rax), %rax
	movq	%rax, -720(%rbp)
	leaq	128(%rbx), %rdi
.LEHB31:
	call	_ZNSt8ios_baseD2Ev@PLT
.LVL351:
.LEHE31:
.LBE3289:
.LBE3288:
.LBE3266:
.LBE3265:
.LBE3142:
.LBE3141:
.LBB3291:
.LBB3292:
.LBB3293:
	.loc 2 983 0
	leaq	-1632(%rbp), %rdi
.LVL352:
	movq	-1496(%rbp), %rdx
	movq	-1504(%rbp), %rsi
.LEHB32:
	call	_ZNSt7__cxx1112basic_stringIcSt11char_traitsIcESaIcEE9_M_appendEPKcm@PLT
.LVL353:
.LEHE32:
	jmp	.L180
.LVL354:
.L161:
	movq	%rax, %rbx
.L95:
.LBE3293:
.LBE3292:
.LBE3291:
.LBB3294:
.LBB3290:
	.loc 1 58 0
	leaq	-848(%rbp), %rdi
	call	_ZNSt7__cxx1118basic_stringstreamIcSt11char_traitsIcESaIcEED1Ev@PLT
.LVL355:
	jmp	.L51
.LVL356:
.L180:
.LBE3290:
.LBE3294:
.LBB3295:
.LBB3296:
.LBB3297:
.LBB3298:
.LBB3299:
.LBB3300:
	.loc 2 135 0
	movq	-1504(%rbp), %rdi
.LVL357:
.LBE3300:
.LBE3299:
.LBE3298:
	.loc 2 179 0
	leaq	-1488(%rbp), %rax
	cmpq	%rax, %rdi
	je	.L98
.LVL358:
.LBB3301:
.LBB3302:
.LBB3303:
.LBB3304:
	.loc 3 110 0
	call	_ZdlPv@PLT
.LVL359:
.L98:
.LBE3304:
.LBE3303:
.LBE3302:
.LBE3301:
.LBE3297:
.LBE3296:
.LBE3295:
.LBB3305:
.LBB3306:
.LBB3307:
.LBB3308:
.LBB3309:
	.loc 2 716 0
	movq	-1624(%rbp), %rbx
.LVL360:
.LBE3309:
.LBE3308:
	.loc 2 1081 0
	leaq	1(%rbx), %rax
	movq	%rax, -1664(%rbp)
.LVL361:
.LBB3310:
.LBB3311:
	.loc 2 781 0
	leaq	-1616(%rbp), %rax
	cmpq	%rax, -1632(%rbp)
	je	.L144
	movq	-1616(%rbp), %rax
	jmp	.L99
.L144:
	movl	$15, %eax
.L99:
.LVL362:
.LBE3311:
.LBE3310:
	.loc 2 1081 0
	cmpq	%rax, -1664(%rbp)
	jbe	.L100
	.loc 2 1082 0
	leaq	-1632(%rbp), %rdi
	movl	$1, %r8d
	movl	$0, %ecx
	movl	$0, %edx
	movq	%rbx, %rsi
.LEHB33:
	call	_ZNSt7__cxx1112basic_stringIcSt11char_traitsIcESaIcEE9_M_mutateEmmPKcm@PLT
.LVL363:
.L100:
.LBB3312:
.LBB3313:
	.loc 4 243 0
	movq	-1632(%rbp), %rax
	movb	$58, (%rax,%rbx)
.LVL364:
.LBE3313:
.LBE3312:
.LBB3314:
.LBB3315:
.LBB3316:
.LBB3317:
	.loc 2 131 0
	movq	-1664(%rbp), %rax
	movq	%rax, -1624(%rbp)
.LVL365:
.LBE3317:
.LBE3316:
.LBB3318:
.LBB3319:
	.loc 4 243 0
	movq	-1632(%rbp), %rax
	movb	$0, 1(%rax,%rbx)
.LVL366:
.LBE3319:
.LBE3318:
.LBE3315:
.LBE3314:
.LBE3307:
.LBE3306:
.LBE3305:
.LBB3320:
.LBB3321:
.LBB3322:
	.loc 2 983 0
	movq	8(%r14), %rdx
	leaq	-1632(%rbp), %rdi
.LVL367:
	movq	(%r14), %rsi
	call	_ZNSt7__cxx1112basic_stringIcSt11char_traitsIcESaIcEE9_M_appendEPKcm@PLT
.LVL368:
.LBE3322:
.LBE3321:
.LBE3320:
.LBB3323:
.LBB3324:
.LBB3325:
.LBB3326:
.LBB3327:
	.loc 2 716 0
	movq	-1624(%rbp), %rbx
.LVL369:
.LBE3327:
.LBE3326:
	.loc 2 1081 0
	leaq	1(%rbx), %rax
	movq	%rax, -1664(%rbp)
.LVL370:
.LBB3328:
.LBB3329:
	.loc 2 781 0
	leaq	-1616(%rbp), %rax
	cmpq	%rax, -1632(%rbp)
	je	.L145
	movq	-1616(%rbp), %rax
	jmp	.L101
.L145:
	movl	$15, %eax
.L101:
.LVL371:
.LBE3329:
.LBE3328:
	.loc 2 1081 0
	cmpq	%rax, -1664(%rbp)
	jbe	.L102
	.loc 2 1082 0
	leaq	-1632(%rbp), %rdi
	movl	$1, %r8d
	movl	$0, %ecx
	movl	$0, %edx
	movq	%rbx, %rsi
	call	_ZNSt7__cxx1112basic_stringIcSt11char_traitsIcESaIcEE9_M_mutateEmmPKcm@PLT
.LVL372:
.LEHE33:
.L102:
.LBB3330:
.LBB3331:
	.loc 4 243 0
	movq	-1632(%rbp), %rax
	movb	$58, (%rax,%rbx)
.LVL373:
.LBE3331:
.LBE3330:
.LBB3332:
.LBB3333:
.LBB3334:
.LBB3335:
	.loc 2 131 0
	movq	-1664(%rbp), %rax
	movq	%rax, -1624(%rbp)
.LVL374:
.LBE3335:
.LBE3334:
.LBB3336:
.LBB3337:
	.loc 4 243 0
	movq	-1632(%rbp), %rax
	movb	$0, 1(%rax,%rbx)
.LVL375:
.LBE3337:
.LBE3336:
.LBE3333:
.LBE3332:
.LBE3325:
.LBE3324:
.LBE3323:
.LBB3338:
.LBB3339:
.LBB3340:
.LBB3341:
.LBB3342:
.LBB3343:
	.loc 9 462 0
	leaq	-448(%rbp), %rbx
.LVL376:
	leaq	128(%rbx), %rdi
	call	_ZNSt8ios_baseC2Ev@PLT
.LVL377:
	movq	_ZTVSt9basic_iosIcSt11char_traitsIcEE@GOTPCREL(%rip), %rax
	leaq	16(%rax), %rax
	movq	%rax, -320(%rbp)
	movq	$0, -104(%rbp)
	movb	$0, -96(%rbp)
	movb	$0, -95(%rbp)
	movq	$0, -88(%rbp)
	movq	$0, -80(%rbp)
	movq	$0, -72(%rbp)
	movq	$0, -64(%rbp)
.LVL378:
.LBE3343:
.LBE3342:
.LBB3344:
.LBB3345:
.LBB3346:
.LBB3347:
	.loc 10 607 0
	movq	-1680(%rbp), %rax
	movq	%rax, -448(%rbp)
	movq	-24(%rax), %rax
	movq	-1688(%rbp), %rsi
	movq	%rsi, -448(%rbp,%rax)
	movq	$0, -440(%rbp)
	.loc 10 608 0
	movq	-448(%rbp), %rax
	addq	-24(%rax), %rbx
.LVL379:
	movq	%rbx, %rdi
	movl	$0, %esi
.LEHB34:
	call	_ZNSt9basic_iosIcSt11char_traitsIcEE4initEPSt15basic_streambufIcS1_E@PLT
.LVL380:
.LEHE34:
.LBE3347:
.LBE3346:
.LBB3348:
.LBB3349:
	.loc 11 385 0
	movq	%r12, -432(%rbp)
	movq	-24(%r12), %rax
	movq	-1704(%rbp), %rbx
	movq	%rbx, -432(%rbp,%rax)
	movq	-432(%rbp), %rax
	movq	-24(%rax), %rax
	leaq	-432(%rbp,%rax), %rdi
	movl	$0, %esi
.LEHB35:
	call	_ZNSt9basic_iosIcSt11char_traitsIcEE4initEPSt15basic_streambufIcS1_E@PLT
.LVL381:
.LEHE35:
.LBE3349:
.LBE3348:
	.loc 10 860 0
	movq	%r13, -448(%rbp)
	movq	-24(%r13), %rax
	movq	-1696(%rbp), %rbx
	movq	%rbx, -448(%rbp,%rax)
.LVL382:
.LBE3345:
.LBE3344:
	.loc 6 691 0
	movq	_ZTVNSt7__cxx1118basic_stringstreamIcSt11char_traitsIcESaIcEEE@GOTPCREL(%rip), %rax
	leaq	24(%rax), %rdx
	movq	%rdx, -448(%rbp)
	leaq	104(%rax), %rdx
	movq	%rdx, -320(%rbp)
	leaq	64(%rax), %rax
	movq	%rax, -432(%rbp)
.LVL383:
.LBB3353:
.LBB3354:
.LBB3355:
.LBB3356:
	.loc 7 466 0
	movq	_ZTVSt15basic_streambufIcSt11char_traitsIcEE@GOTPCREL(%rip), %rax
	leaq	16(%rax), %rax
	movq	%rax, -424(%rbp)
	movq	$0, -416(%rbp)
	movq	$0, -408(%rbp)
	movq	$0, -400(%rbp)
	movq	$0, -392(%rbp)
	movq	$0, -384(%rbp)
	movq	$0, -376(%rbp)
	leaq	-448(%rbp), %rbx
.LVL384:
	leaq	80(%rbx), %rdi
	call	_ZNSt6localeC1Ev@PLT
.LVL385:
.LBE3356:
.LBE3355:
	.loc 6 101 0
	movq	_ZTVNSt7__cxx1115basic_stringbufIcSt11char_traitsIcESaIcEEE@GOTPCREL(%rip), %rax
	leaq	16(%rax), %rax
	movq	%rax, -424(%rbp)
	movl	$24, -360(%rbp)
.LVL386:
.LBB3357:
.LBB3358:
.LBB3359:
	.loc 2 109 0
	leaq	112(%rbx), %rax
	movq	%rax, -352(%rbp)
.LVL387:
.LBE3359:
.LBE3358:
.LBB3360:
.LBB3361:
.LBB3362:
	.loc 2 131 0
	movq	$0, -344(%rbp)
.LVL388:
.LBE3362:
.LBE3361:
.LBB3363:
.LBB3364:
	.loc 4 243 0
	movb	$0, -336(%rbp)
.LVL389:
.LBE3364:
.LBE3363:
.LBE3360:
.LBE3357:
.LBE3354:
.LBE3353:
	.loc 6 692 0
	leaq	24(%rbx), %rsi
	leaq	128(%rbx), %rdi
.LEHB36:
	call	_ZNSt9basic_iosIcSt11char_traitsIcEE4initEPSt15basic_streambufIcS1_E@PLT
.LVL390:
.LEHE36:
	jmp	.L181
.LVL391:
.L171:
	movq	%rax, %rbx
.LVL392:
.LBB3365:
.LBB3352:
.LBB3350:
.LBB3351:
	.loc 10 104 0
	movq	-1680(%rbp), %rax
	movq	%rax, -448(%rbp)
	movq	-24(%rax), %rax
	movq	-1688(%rbp), %rcx
	movq	%rcx, -448(%rbp,%rax)
.LVL393:
	jmp	.L105
.LVL394:
.L170:
	movq	%rax, %rbx
.LVL395:
.LBE3351:
.LBE3350:
.LBE3352:
.LBE3365:
	.loc 6 691 0
	leaq	-424(%rbp), %rdi
	call	_ZNSt7__cxx1115basic_stringbufIcSt11char_traitsIcESaIcEED1Ev@PLT
.LVL396:
.LBB3366:
.LBB3367:
	.loc 10 856 0
	movq	%r13, -448(%rbp)
	movq	-24(%r13), %rax
	movq	-1696(%rbp), %rcx
	movq	%rcx, -448(%rbp,%rax)
.LVL397:
.LBB3368:
.LBB3369:
	.loc 11 93 0
	movq	%r12, -432(%rbp)
	movq	-24(%r12), %rax
	movq	-1704(%rbp), %rcx
	movq	%rcx, -432(%rbp,%rax)
.LVL398:
.LBE3369:
.LBE3368:
.LBB3370:
.LBB3371:
	.loc 10 104 0
	movq	-1680(%rbp), %rax
	movq	%rax, -448(%rbp)
	movq	-24(%rax), %rax
	movq	-1688(%rbp), %rcx
	movq	%rcx, -448(%rbp,%rax)
.LVL399:
	jmp	.L105
.LVL400:
.L169:
	movq	%rax, %rbx
.LVL401:
.L105:
.LBE3371:
.LBE3370:
.LBE3367:
.LBE3366:
.LBB3372:
.LBB3373:
	.loc 9 282 0
	movq	_ZTVSt9basic_iosIcSt11char_traitsIcEE@GOTPCREL(%rip), %rax
	leaq	16(%rax), %rax
	movq	%rax, -320(%rbp)
	leaq	-320(%rbp), %rdi
.LVL402:
	call	_ZNSt8ios_baseD2Ev@PLT
.LVL403:
	jmp	.L51
.LVL404:
.L181:
.LBE3373:
.LBE3372:
.LBE3341:
.LBE3340:
	.loc 1 58 0
	leaq	-432(%rbp), %rdi
	movl	-1652(%rbp), %esi
.LEHB37:
	call	_ZNSolsEi@PLT
.LVL405:
.LEHE37:
.LBB3374:
.LBB3375:
.LBB3376:
.LBB3377:
.LBB3378:
.LBB3379:
	.loc 2 109 0
	leaq	-1456(%rbp), %rax
.LVL406:
	movq	%rax, -1472(%rbp)
.LVL407:
.LBE3379:
.LBE3378:
.LBB3380:
.LBB3381:
.LBB3382:
	.loc 2 131 0
	movq	$0, -1464(%rbp)
.LVL408:
.LBE3382:
.LBE3381:
.LBB3383:
.LBB3384:
	.loc 4 243 0
	movb	$0, -1456(%rbp)
.LVL409:
.LBE3384:
.LBE3383:
.LBE3380:
.LBE3377:
.LBB3385:
.LBB3386:
	.loc 7 532 0
	movq	-384(%rbp), %rax
.LVL410:
.LBE3386:
.LBE3385:
	.loc 6 169 0
	testq	%rax, %rax
	je	.L107
.LVL411:
.LBB3387:
.LBB3388:
	.loc 7 488 0
	movq	-400(%rbp), %rdx
.LVL412:
.LBE3388:
.LBE3387:
	.loc 6 172 0
	cmpq	%rdx, %rax
	jbe	.L108
.LVL413:
.LBB3389:
.LBB3390:
.LBB3391:
	.loc 2 109 0
	leaq	-1280(%rbp), %rdi
.LVL414:
	leaq	16(%rdi), %rdx
	movq	%rdx, -1280(%rbp)
.LVL415:
.LBE3391:
.LBE3390:
.LBB3392:
.LBB3393:
.LBB3394:
.LBB3395:
	.loc 2 195 0
	subq	$8, %rsp
	pushq	$0
.LVL416:
	movq	%rax, %rdx
	movq	-392(%rbp), %rsi
.LVL417:
.LEHB38:
	.cfi_escape 0x2e,0x10
	call	_ZNSt7__cxx1112basic_stringIcSt11char_traitsIcESaIcEE12_M_constructIPcEEvT_S7_St20forward_iterator_tag@PLT
.LVL418:
.LEHE38:
	addq	$16, %rsp
.LVL419:
.LBE3395:
.LBE3394:
.LBE3393:
.LBE3392:
.LBE3389:
.LBB3396:
.LBB3397:
.LBB3398:
	.loc 2 1095 0
	leaq	-1280(%rbp), %rsi
.LVL420:
	leaq	-1472(%rbp), %rdi
.LVL421:
.LEHB39:
	.cfi_escape 0x2e,0
	call	_ZNSt7__cxx1112basic_stringIcSt11char_traitsIcESaIcEE9_M_assignERKS4_@PLT
.LVL422:
.LEHE39:
.LBE3398:
.LBE3397:
.LBE3396:
.LBB3399:
.LBB3400:
.LBB3401:
.LBB3402:
.LBB3403:
.LBB3404:
	.loc 2 135 0
	movq	-1280(%rbp), %rdi
.LVL423:
.LBE3404:
.LBE3403:
.LBE3402:
	.loc 2 179 0
	leaq	-1264(%rbp), %rax
	cmpq	%rax, %rdi
	je	.L110
.LVL424:
.LBB3405:
.LBB3406:
.LBB3407:
.LBB3408:
	.loc 3 110 0
	call	_ZdlPv@PLT
.LVL425:
	jmp	.L110
.LVL426:
.L108:
.LBE3408:
.LBE3407:
.LBE3406:
.LBE3405:
.LBE3401:
.LBE3400:
.LBE3399:
.LBB3409:
.LBB3410:
.LBB3411:
	.loc 2 109 0
	leaq	-1312(%rbp), %rdi
.LVL427:
	leaq	16(%rdi), %rax
	movq	%rax, -1312(%rbp)
.LVL428:
.LBE3411:
.LBE3410:
.LBB3412:
.LBB3413:
.LBB3414:
.LBB3415:
	.loc 2 195 0
	subq	$8, %rsp
	pushq	$0
.LVL429:
	movq	-392(%rbp), %rsi
.LVL430:
.LEHB40:
	.cfi_escape 0x2e,0x10
	call	_ZNSt7__cxx1112basic_stringIcSt11char_traitsIcESaIcEE12_M_constructIPcEEvT_S7_St20forward_iterator_tag@PLT
.LVL431:
.LEHE40:
	addq	$16, %rsp
.LVL432:
.LBE3415:
.LBE3414:
.LBE3413:
.LBE3412:
.LBE3409:
.LBB3416:
.LBB3417:
.LBB3418:
	.loc 2 1095 0
	leaq	-1312(%rbp), %rsi
.LVL433:
	leaq	-1472(%rbp), %rdi
.LVL434:
.LEHB41:
	.cfi_escape 0x2e,0
	call	_ZNSt7__cxx1112basic_stringIcSt11char_traitsIcESaIcEE9_M_assignERKS4_@PLT
.LVL435:
.LEHE41:
.LBE3418:
.LBE3417:
.LBE3416:
.LBB3419:
.LBB3420:
.LBB3421:
.LBB3422:
.LBB3423:
.LBB3424:
	.loc 2 135 0
	movq	-1312(%rbp), %rdi
.LVL436:
.LBE3424:
.LBE3423:
.LBE3422:
	.loc 2 179 0
	leaq	-1296(%rbp), %rax
	cmpq	%rax, %rdi
	je	.L110
.LVL437:
.LBB3425:
.LBB3426:
.LBB3427:
.LBB3428:
	.loc 3 110 0
	call	_ZdlPv@PLT
.LVL438:
	jmp	.L110
.LVL439:
.L107:
.LBE3428:
.LBE3427:
.LBE3426:
.LBE3425:
.LBE3421:
.LBE3420:
.LBE3419:
.LBB3429:
.LBB3430:
.LBB3431:
	.loc 2 1095 0
	leaq	-352(%rbp), %rsi
.LVL440:
	leaq	-1472(%rbp), %rdi
.LVL441:
.LEHB42:
	call	_ZNSt7__cxx1112basic_stringIcSt11char_traitsIcESaIcEE9_M_assignERKS4_@PLT
.LVL442:
.LEHE42:
	jmp	.L110
.LVL443:
.L174:
	movq	%rax, %rbx
.LVL444:
.LBE3431:
.LBE3430:
.LBE3429:
.LBB3432:
.LBB3433:
.LBB3434:
.LBB3435:
.LBB3436:
.LBB3437:
	.loc 2 135 0
	movq	-1280(%rbp), %rdi
.LVL445:
.LBE3437:
.LBE3436:
.LBE3435:
	.loc 2 179 0
	leaq	-1264(%rbp), %rax
	cmpq	%rax, %rdi
	je	.L114
.LVL446:
.LBB3438:
.LBB3439:
.LBB3440:
.LBB3441:
	.loc 3 110 0
	call	_ZdlPv@PLT
.LVL447:
	jmp	.L114
.LVL448:
.L173:
	movq	%rax, %rbx
.LVL449:
.LBE3441:
.LBE3440:
.LBE3439:
.LBE3438:
.LBE3434:
.LBE3433:
.LBE3432:
.LBB3442:
.LBB3443:
.LBB3444:
.LBB3445:
.LBB3446:
.LBB3447:
	.loc 2 135 0
	movq	-1312(%rbp), %rdi
.LVL450:
.LBE3447:
.LBE3446:
.LBE3445:
	.loc 2 179 0
	leaq	-1296(%rbp), %rax
	cmpq	%rax, %rdi
	je	.L114
.LVL451:
.LBB3448:
.LBB3449:
.LBB3450:
.LBB3451:
	.loc 3 110 0
	call	_ZdlPv@PLT
.LVL452:
	jmp	.L114
.LVL453:
.L172:
	movq	%rax, %rbx
.L114:
.LVL454:
.LBE3451:
.LBE3450:
.LBE3449:
.LBE3448:
.LBE3444:
.LBE3443:
.LBE3442:
.LBB3452:
.LBB3453:
.LBB3454:
.LBB3455:
.LBB3456:
.LBB3457:
	.loc 2 135 0
	movq	-1472(%rbp), %rdi
.LVL455:
.LBE3457:
.LBE3456:
.LBE3455:
	.loc 2 179 0
	leaq	-1456(%rbp), %rax
	cmpq	%rax, %rdi
	je	.L118
.LVL456:
.LBB3458:
.LBB3459:
.LBB3460:
.LBB3461:
	.loc 3 110 0
	call	_ZdlPv@PLT
.LVL457:
	jmp	.L118
.LVL458:
.L110:
.LBE3461:
.LBE3460:
.LBE3459:
.LBE3458:
.LBE3454:
.LBE3453:
.LBE3452:
.LBE3376:
.LBE3375:
.LBE3374:
.LBB3462:
.LBB3463:
	.loc 6 718 0
	movq	_ZTVNSt7__cxx1118basic_stringstreamIcSt11char_traitsIcESaIcEEE@GOTPCREL(%rip), %rax
	leaq	24(%rax), %rdx
	movq	%rdx, -448(%rbp)
	leaq	104(%rax), %rdx
	movq	%rdx, -320(%rbp)
	leaq	64(%rax), %rax
	movq	%rax, -432(%rbp)
.LVL459:
.LBB3464:
.LBB3465:
	.loc 6 65 0
	movq	_ZTVNSt7__cxx1115basic_stringbufIcSt11char_traitsIcESaIcEEE@GOTPCREL(%rip), %rax
	leaq	16(%rax), %rax
	movq	%rax, -424(%rbp)
.LVL460:
.LBB3466:
.LBB3467:
.LBB3468:
.LBB3469:
.LBB3470:
.LBB3471:
.LBB3472:
	.loc 2 135 0
	movq	-352(%rbp), %rdi
.LVL461:
.LBE3472:
.LBE3471:
.LBE3470:
	.loc 2 179 0
	leaq	-336(%rbp), %rax
	cmpq	%rax, %rdi
	je	.L119
.LVL462:
.LBB3473:
.LBB3474:
.LBB3475:
.LBB3476:
	.loc 3 110 0
	call	_ZdlPv@PLT
.LVL463:
.L119:
.LBE3476:
.LBE3475:
.LBE3474:
.LBE3473:
.LBE3469:
.LBE3468:
.LBE3467:
.LBE3466:
.LBB3477:
.LBB3478:
	.loc 7 198 0
	movq	_ZTVSt15basic_streambufIcSt11char_traitsIcEE@GOTPCREL(%rip), %rax
	leaq	16(%rax), %rax
	movq	%rax, -424(%rbp)
	leaq	-448(%rbp), %rbx
	leaq	80(%rbx), %rdi
	call	_ZNSt6localeD1Ev@PLT
.LVL464:
.LBE3478:
.LBE3477:
.LBE3465:
.LBE3464:
.LBB3479:
.LBB3480:
	.loc 10 856 0
	movq	_ZTTNSt7__cxx1118basic_stringstreamIcSt11char_traitsIcESaIcEEE@GOTPCREL(%rip), %rax
	movq	8(%rax), %rdx
	movq	%rdx, -448(%rbp)
	movq	-24(%rdx), %rdx
	movq	48(%rax), %rcx
	movq	%rcx, -448(%rbp,%rdx)
.LVL465:
.LBB3481:
.LBB3482:
	.loc 11 93 0
	movq	32(%rax), %rdx
	movq	%rdx, -432(%rbp)
	movq	-24(%rdx), %rdx
	movq	40(%rax), %rcx
	movq	%rcx, -432(%rbp,%rdx)
.LVL466:
.LBE3482:
.LBE3481:
.LBB3483:
.LBB3484:
	.loc 10 104 0
	movq	16(%rax), %rdx
	movq	%rdx, -448(%rbp)
	movq	-24(%rdx), %rdx
	movq	24(%rax), %rax
	movq	%rax, -448(%rbp,%rdx)
.LVL467:
.LBE3484:
.LBE3483:
.LBE3480:
.LBE3479:
.LBB3485:
.LBB3486:
	.loc 9 282 0
	movq	_ZTVSt9basic_iosIcSt11char_traitsIcEE@GOTPCREL(%rip), %rax
	leaq	16(%rax), %rax
	movq	%rax, -320(%rbp)
	leaq	128(%rbx), %rdi
.LEHB43:
	call	_ZNSt8ios_baseD2Ev@PLT
.LVL468:
.LEHE43:
.LBE3486:
.LBE3485:
.LBE3463:
.LBE3462:
.LBE3339:
.LBE3338:
.LBB3488:
.LBB3489:
.LBB3490:
	.loc 2 983 0
	leaq	-1632(%rbp), %rdi
.LVL469:
	movq	-1464(%rbp), %rdx
	movq	-1472(%rbp), %rsi
.LEHB44:
	call	_ZNSt7__cxx1112basic_stringIcSt11char_traitsIcESaIcEE9_M_appendEPKcm@PLT
.LVL470:
.LEHE44:
	jmp	.L182
.LVL471:
.L168:
	movq	%rax, %rbx
.LVL472:
.L118:
.LBE3490:
.LBE3489:
.LBE3488:
.LBB3491:
.LBB3487:
	.loc 1 58 0
	leaq	-448(%rbp), %rdi
	call	_ZNSt7__cxx1118basic_stringstreamIcSt11char_traitsIcESaIcEED1Ev@PLT
.LVL473:
	jmp	.L51
.LVL474:
.L182:
.LBE3487:
.LBE3491:
.LBB3492:
.LBB3493:
.LBB3494:
.LBB3495:
.LBB3496:
.LBB3497:
	.loc 2 135 0
	movq	-1472(%rbp), %rdi
.LVL475:
.LBE3497:
.LBE3496:
.LBE3495:
	.loc 2 179 0
	leaq	-1456(%rbp), %rax
	cmpq	%rax, %rdi
	je	.L121
.LVL476:
.LBB3498:
.LBB3499:
.LBB3500:
.LBB3501:
	.loc 3 110 0
	call	_ZdlPv@PLT
.LVL477:
.L121:
.LBE3501:
.LBE3500:
.LBE3499:
.LBE3498:
.LBE3494:
.LBE3493:
.LBE3492:
.LBB3502:
.LBB3503:
.LBB3504:
.LBB3505:
.LBB3506:
	.loc 2 270 0
	movabsq	$9223372036854775807, %rax
	subq	-1624(%rbp), %rax
	cmpq	$2, %rax
	ja	.L122
	.loc 2 271 0
	leaq	.LC7(%rip), %rdi
.LEHB45:
	call	_ZSt20__throw_length_errorPKc@PLT
.LVL478:
.L122:
.LBE3506:
.LBE3505:
	.loc 2 1029 0
	leaq	-1632(%rbp), %rdi
	movl	$3, %edx
	leaq	.LC10(%rip), %rsi
	call	_ZNSt7__cxx1112basic_stringIcSt11char_traitsIcESaIcEE9_M_appendEPKcm@PLT
.LVL479:
.LBE3504:
.LBE3503:
.LBE3502:
.LBB3507:
.LBB3508:
.LBB3509:
	.loc 2 1167 0
	movq	8(%r14), %rdx
	movl	$9, %r8d
	leaq	.LC11(%rip), %rcx
	movl	$0, %esi
	movq	%r14, %rdi
	call	_ZNSt7__cxx1112basic_stringIcSt11char_traitsIcESaIcEE10_M_replaceEmmPKcm@PLT
.LVL480:
.LBE3509:
.LBE3508:
.LBE3507:
	.loc 1 179 0
	call	log_level@PLT
.LVL481:
	testb	$2, %al
	je	.L123
	.loc 1 179 0 is_stmt 0 discriminator 2
	movq	72(%r15), %rax
.LVL482:
.LBB3510:
.LBB3511:
	.loc 5 104 0 is_stmt 1 discriminator 2
	movq	40(%rax), %rcx
	movq	8(%rax), %rdx
	movl	72(%rax), %r8d
	leaq	.LC12(%rip), %rsi
	movl	$1, %edi
	movl	$0, %eax
	call	__printf_chk@PLT
.LVL483:
.LBE3511:
.LBE3510:
.LBB3512:
.LBB3513:
	.loc 5 104 0 is_stmt 0
	movl	$10, %edi
	call	putchar@PLT
.LVL484:
.L123:
.LBE3513:
.LBE3512:
	.loc 1 180 0 is_stmt 1
	movq	72(%r15), %rbx
	movq	-1632(%rbp), %rdi
	call	_ZL6popen2PKc
.LVL485:
	movl	%eax, 4(%rbx)
	testl	%eax, %eax
	jns	.L124
.LVL486:
.LBB3514:
.LBB3515:
.LBB3516:
.LBB3517:
.LBB3518:
.LBB3519:
	.loc 2 135 0
	movq	-1632(%rbp), %rdi
.LVL487:
.LBE3519:
.LBE3518:
.LBE3517:
	.loc 2 179 0
	leaq	-1616(%rbp), %rax
	cmpq	%rax, %rdi
	je	.L125
.LVL488:
.LBB3520:
.LBB3521:
.LBB3522:
.LBB3523:
	.loc 3 110 0
	call	_ZdlPv@PLT
.LVL489:
.L125:
.LBE3523:
.LBE3522:
.LBE3521:
.LBE3520:
.LBE3516:
.LBE3515:
.LBE3514:
	.loc 1 181 0
	movl	$-1, %ebx
	jmp	.L126
.L124:
	.loc 1 184 0
	call	log_level@PLT
.LVL490:
	testb	$2, %al
	je	.L127
.LVL491:
	.loc 1 184 0 is_stmt 0 discriminator 2
	movq	72(%r15), %rax
.LBB3524:
.LBB3525:
	.loc 5 104 0 is_stmt 1 discriminator 2
	movl	4(%rax), %edx
	leaq	.LC13(%rip), %rsi
	movl	$1, %edi
	movl	$0, %eax
	call	__printf_chk@PLT
.LVL492:
.LBE3525:
.LBE3524:
.LBB3526:
.LBB3527:
	.loc 5 104 0 is_stmt 0
	movl	$10, %edi
	call	putchar@PLT
.LVL493:
.L127:
.LBE3527:
.LBE3526:
.LBB3528:
	.loc 1 185 0 is_stmt 1
	movq	72(%r15), %rax
	movl	76(%rax), %ecx
	testl	%ecx, %ecx
	jle	.L128
.LBB3529:
	.loc 1 186 0
	movl	$274877907, %edx
	movl	%ecx, %eax
	imull	%edx
	sarl	$6, %edx
	movl	%ecx, %eax
	sarl	$31, %eax
	subl	%eax, %edx
	movslq	%edx, %rax
	movq	%rax, -1648(%rbp)
	imull	$1000, %edx, %edx
	subl	%edx, %ecx
	imull	$1000, %ecx, %ecx
	movslq	%ecx, %rcx
	movq	%rcx, -1640(%rbp)
	.loc 1 186 0
	leaq	-1648(%rbp), %r8
	movl	$0, %ecx
	movl	$0, %edx
	movl	$0, %esi
	movl	$0, %edi
	call	select@PLT
.LVL494:
.LEHE45:
.L128:
.LBE3529:
.LBE3528:
.LBB3530:
.LBB3531:
.LBB3532:
.LBB3533:
.LBB3534:
.LBB3535:
	.loc 2 135 0
	movq	-1632(%rbp), %rdi
.LVL495:
.LBE3535:
.LBE3534:
.LBE3533:
	.loc 2 179 0
	leaq	-1616(%rbp), %rax
	cmpq	%rax, %rdi
	je	.L129
.LVL496:
.LBB3536:
.LBB3537:
.LBB3538:
.LBB3539:
	.loc 3 110 0
	call	_ZdlPv@PLT
.LVL497:
.L129:
.LBE3539:
.LBE3538:
.LBE3537:
.LBE3536:
.LBE3532:
.LBE3531:
.LBE3530:
	.loc 1 176 0
	movl	-1672(%rbp), %eax
	movl	%eax, -1652(%rbp)
.LVL498:
.L46:
.LBE2879:
.LBE2878:
.LBB3601:
.LBB3602:
.LBB3603:
.LBB3604:
	.loc 2 109 0
	leaq	-448(%rbp), %rbx
.LVL499:
	leaq	16(%rbx), %rax
	movq	%rax, -448(%rbp)
.LVL500:
.LBE3604:
.LBE3603:
.LBB3605:
.LBB3606:
	.loc 2 135 0
	movq	(%r14), %rsi
.LVL501:
.LBE3606:
.LBE3605:
.LBB3607:
.LBB3608:
.LBB3609:
.LBB3610:
	.loc 2 195 0
	movq	%rsi, %rdx
	addq	8(%r14), %rdx
.LVL502:
	subq	$8, %rsp
	pushq	$0
.LVL503:
	movq	%rbx, %rdi
.LEHB46:
	call	_ZNSt7__cxx1112basic_stringIcSt11char_traitsIcESaIcEE12_M_constructIPcEEvT_S7_St20forward_iterator_tag@PLT
.LVL504:
.LEHE46:
.LBE3610:
.LBE3609:
.LBE3608:
.LBE3607:
.LBE3602:
.LBE3601:
	.loc 1 189 0
	addq	$16, %rsp
	movl	-1652(%rbp), %edx
	movq	%rbx, %rsi
	movq	%r15, %rdi
.LEHB47:
	call	_ZN6Socket7connectENSt7__cxx1112basic_stringIcSt11char_traitsIcESaIcEEEi@PLT
.LVL505:
.LEHE47:
	movl	%eax, %ebx
.LVL506:
.LBB3611:
.LBB3612:
.LBB3613:
.LBB3614:
.LBB3615:
.LBB3616:
	.loc 2 135 0
	movq	-448(%rbp), %rdi
.LVL507:
.LBE3616:
.LBE3615:
.LBE3614:
	.loc 2 179 0
	leaq	-432(%rbp), %rax
	cmpq	%rax, %rdi
	je	.L126
.LVL508:
.LBB3617:
.LBB3618:
.LBB3619:
.LBB3620:
	.loc 3 110 0
	call	_ZdlPv@PLT
.LVL509:
.L126:
.LBE3620:
.LBE3619:
.LBE3618:
.LBE3617:
.LBE3613:
.LBE3612:
.LBE3611:
	.loc 1 190 0 discriminator 2
	movl	%ebx, %eax
	movq	-56(%rbp), %rcx
	xorq	%fs:40, %rcx
	je	.L143
	jmp	.L183
.LVL510:
.L147:
	movq	%rax, %rbx
.LVL511:
.LBB3621:
.LBB3600:
.LBB3540:
.LBB3541:
.LBB3542:
.LBB3543:
.LBB3544:
.LBB3545:
	.loc 2 135 0
	movq	-1600(%rbp), %rdi
.LVL512:
.LBE3545:
.LBE3544:
.LBE3543:
	.loc 2 179 0
	leaq	-1584(%rbp), %rax
	cmpq	%rax, %rdi
	je	.L51
.LVL513:
.LBB3546:
.LBB3547:
.LBB3548:
.LBB3549:
	.loc 3 110 0
	call	_ZdlPv@PLT
.LVL514:
	jmp	.L51
.LVL515:
.L148:
	movq	%rax, %rbx
.LVL516:
.LBE3549:
.LBE3548:
.LBE3547:
.LBE3546:
.LBE3542:
.LBE3541:
.LBE3540:
.LBB3550:
.LBB3551:
.LBB3552:
.LBB3553:
.LBB3554:
.LBB3555:
	.loc 2 135 0
	movq	-1536(%rbp), %rdi
.LVL517:
.LBE3555:
.LBE3554:
.LBE3553:
	.loc 2 179 0
	leaq	-1520(%rbp), %rax
	cmpq	%rax, %rdi
	je	.L76
.LVL518:
.LBB3556:
.LBB3557:
.LBB3558:
.LBB3559:
	.loc 3 110 0
	call	_ZdlPv@PLT
.LVL519:
.L76:
.LBE3559:
.LBE3558:
.LBE3557:
.LBE3556:
.LBE3552:
.LBE3551:
.LBE3550:
.LBB3560:
.LBB3561:
.LBB3562:
.LBB3563:
.LBB3564:
.LBB3565:
	.loc 2 135 0 discriminator 6
	movq	-1568(%rbp), %rdi
.LVL520:
.LBE3565:
.LBE3564:
.LBE3563:
	.loc 2 179 0 discriminator 6
	leaq	-1552(%rbp), %rax
	cmpq	%rax, %rdi
	je	.L51
.LVL521:
.LBB3566:
.LBB3567:
.LBB3568:
.LBB3569:
	.loc 3 110 0
	call	_ZdlPv@PLT
.LVL522:
	jmp	.L51
.LVL523:
.L149:
	movq	%rax, %rbx
.LVL524:
.LBE3569:
.LBE3568:
.LBE3567:
.LBE3566:
.LBE3562:
.LBE3561:
.LBE3560:
.LBB3570:
.LBB3571:
.LBB3572:
.LBB3573:
.LBB3574:
.LBB3575:
	.loc 2 135 0
	movq	-1504(%rbp), %rdi
.LVL525:
.LBE3575:
.LBE3574:
.LBE3573:
	.loc 2 179 0
	leaq	-1488(%rbp), %rax
	cmpq	%rax, %rdi
	je	.L51
.LVL526:
.LBB3576:
.LBB3577:
.LBB3578:
.LBB3579:
	.loc 3 110 0
	call	_ZdlPv@PLT
.LVL527:
	jmp	.L51
.LVL528:
.L150:
	movq	%rax, %rbx
.LVL529:
.LBE3579:
.LBE3578:
.LBE3577:
.LBE3576:
.LBE3572:
.LBE3571:
.LBE3570:
.LBB3580:
.LBB3581:
.LBB3582:
.LBB3583:
.LBB3584:
.LBB3585:
	.loc 2 135 0
	movq	-1472(%rbp), %rdi
.LVL530:
.LBE3585:
.LBE3584:
.LBE3583:
	.loc 2 179 0
	leaq	-1456(%rbp), %rax
	cmpq	%rax, %rdi
	je	.L51
.LVL531:
.LBB3586:
.LBB3587:
.LBB3588:
.LBB3589:
	.loc 3 110 0
	call	_ZdlPv@PLT
.LVL532:
	jmp	.L51
.LVL533:
.L146:
	movq	%rax, %rbx
.L51:
.LVL534:
.LBE3589:
.LBE3588:
.LBE3587:
.LBE3586:
.LBE3582:
.LBE3581:
.LBE3580:
.LBB3590:
.LBB3591:
.LBB3592:
.LBB3593:
.LBB3594:
.LBB3595:
	.loc 2 135 0
	movq	-1632(%rbp), %rdi
.LVL535:
.LBE3595:
.LBE3594:
.LBE3593:
	.loc 2 179 0
	leaq	-1616(%rbp), %rax
	cmpq	%rax, %rdi
	je	.L140
.LVL536:
.LBB3596:
.LBB3597:
.LBB3598:
.LBB3599:
	.loc 3 110 0
	call	_ZdlPv@PLT
.LVL537:
.L140:
	movq	%rbx, %rdi
.LEHB48:
	call	_Unwind_Resume@PLT
.LVL538:
.L151:
	movq	%rax, %rbx
.LVL539:
.LBE3599:
.LBE3598:
.LBE3597:
.LBE3596:
.LBE3592:
.LBE3591:
.LBE3590:
.LBE3600:
.LBE3621:
.LBB3622:
.LBB3623:
.LBB3624:
.LBB3625:
.LBB3626:
.LBB3627:
	.loc 2 135 0
	movq	-448(%rbp), %rdi
.LVL540:
.LBE3627:
.LBE3626:
.LBE3625:
	.loc 2 179 0
	leaq	-432(%rbp), %rax
	cmpq	%rax, %rdi
	je	.L142
.LVL541:
.LBB3628:
.LBB3629:
.LBB3630:
.LBB3631:
	.loc 3 110 0
	call	_ZdlPv@PLT
.LVL542:
.L142:
	movq	%rbx, %rdi
	call	_Unwind_Resume@PLT
.LVL543:
.LEHE48:
.L183:
.LBE3631:
.LBE3630:
.LBE3629:
.LBE3628:
.LBE3624:
.LBE3623:
.LBE3622:
	.loc 1 190 0
	call	__stack_chk_fail@PLT
.LVL544:
.L143:
	leaq	-40(%rbp), %rsp
	popq	%rbx
	popq	%r12
	popq	%r13
	popq	%r14
.LVL545:
	popq	%r15
.LVL546:
	popq	%rbp
	.cfi_def_cfa 7, 8
	ret
	.cfi_endproc
.LFE1201:
	.section	.gcc_except_table
.LLSDA1201:
	.byte	0xff
	.byte	0xff
	.byte	0x1
	.uleb128 .LLSDACSE1201-.LLSDACSB1201
.LLSDACSB1201:
	.uleb128 .LEHB3-.LFB1201
	.uleb128 .LEHE3-.LEHB3
	.uleb128 0
	.uleb128 0
	.uleb128 .LEHB4-.LFB1201
	.uleb128 .LEHE4-.LEHB4
	.uleb128 .L146-.LFB1201
	.uleb128 0
	.uleb128 .LEHB5-.LFB1201
	.uleb128 .LEHE5-.LEHB5
	.uleb128 .L152-.LFB1201
	.uleb128 0
	.uleb128 .LEHB6-.LFB1201
	.uleb128 .LEHE6-.LEHB6
	.uleb128 .L147-.LFB1201
	.uleb128 0
	.uleb128 .LEHB7-.LFB1201
	.uleb128 .LEHE7-.LEHB7
	.uleb128 .L146-.LFB1201
	.uleb128 0
	.uleb128 .LEHB8-.LFB1201
	.uleb128 .LEHE8-.LEHB8
	.uleb128 .L154-.LFB1201
	.uleb128 0
	.uleb128 .LEHB9-.LFB1201
	.uleb128 .LEHE9-.LEHB9
	.uleb128 .L156-.LFB1201
	.uleb128 0
	.uleb128 .LEHB10-.LFB1201
	.uleb128 .LEHE10-.LEHB10
	.uleb128 .L155-.LFB1201
	.uleb128 0
	.uleb128 .LEHB11-.LFB1201
	.uleb128 .LEHE11-.LEHB11
	.uleb128 .L153-.LFB1201
	.uleb128 0
	.uleb128 .LEHB12-.LFB1201
	.uleb128 .LEHE12-.LEHB12
	.uleb128 .L157-.LFB1201
	.uleb128 0
	.uleb128 .LEHB13-.LFB1201
	.uleb128 .LEHE13-.LEHB13
	.uleb128 .L159-.LFB1201
	.uleb128 0
	.uleb128 .LEHB14-.LFB1201
	.uleb128 .LEHE14-.LEHB14
	.uleb128 .L157-.LFB1201
	.uleb128 0
	.uleb128 .LEHB15-.LFB1201
	.uleb128 .LEHE15-.LEHB15
	.uleb128 .L158-.LFB1201
	.uleb128 0
	.uleb128 .LEHB16-.LFB1201
	.uleb128 .LEHE16-.LEHB16
	.uleb128 .L157-.LFB1201
	.uleb128 0
	.uleb128 .LEHB17-.LFB1201
	.uleb128 .LEHE17-.LEHB17
	.uleb128 .L146-.LFB1201
	.uleb128 0
	.uleb128 .LEHB18-.LFB1201
	.uleb128 .LEHE18-.LEHB18
	.uleb128 .L160-.LFB1201
	.uleb128 0
	.uleb128 .LEHB19-.LFB1201
	.uleb128 .LEHE19-.LEHB19
	.uleb128 .L160-.LFB1201
	.uleb128 0
	.uleb128 .LEHB20-.LFB1201
	.uleb128 .LEHE20-.LEHB20
	.uleb128 .L148-.LFB1201
	.uleb128 0
	.uleb128 .LEHB21-.LFB1201
	.uleb128 .LEHE21-.LEHB21
	.uleb128 .L146-.LFB1201
	.uleb128 0
	.uleb128 .LEHB22-.LFB1201
	.uleb128 .LEHE22-.LEHB22
	.uleb128 .L162-.LFB1201
	.uleb128 0
	.uleb128 .LEHB23-.LFB1201
	.uleb128 .LEHE23-.LEHB23
	.uleb128 .L164-.LFB1201
	.uleb128 0
	.uleb128 .LEHB24-.LFB1201
	.uleb128 .LEHE24-.LEHB24
	.uleb128 .L163-.LFB1201
	.uleb128 0
	.uleb128 .LEHB25-.LFB1201
	.uleb128 .LEHE25-.LEHB25
	.uleb128 .L161-.LFB1201
	.uleb128 0
	.uleb128 .LEHB26-.LFB1201
	.uleb128 .LEHE26-.LEHB26
	.uleb128 .L165-.LFB1201
	.uleb128 0
	.uleb128 .LEHB27-.LFB1201
	.uleb128 .LEHE27-.LEHB27
	.uleb128 .L167-.LFB1201
	.uleb128 0
	.uleb128 .LEHB28-.LFB1201
	.uleb128 .LEHE28-.LEHB28
	.uleb128 .L165-.LFB1201
	.uleb128 0
	.uleb128 .LEHB29-.LFB1201
	.uleb128 .LEHE29-.LEHB29
	.uleb128 .L166-.LFB1201
	.uleb128 0
	.uleb128 .LEHB30-.LFB1201
	.uleb128 .LEHE30-.LEHB30
	.uleb128 .L165-.LFB1201
	.uleb128 0
	.uleb128 .LEHB31-.LFB1201
	.uleb128 .LEHE31-.LEHB31
	.uleb128 .L146-.LFB1201
	.uleb128 0
	.uleb128 .LEHB32-.LFB1201
	.uleb128 .LEHE32-.LEHB32
	.uleb128 .L149-.LFB1201
	.uleb128 0
	.uleb128 .LEHB33-.LFB1201
	.uleb128 .LEHE33-.LEHB33
	.uleb128 .L146-.LFB1201
	.uleb128 0
	.uleb128 .LEHB34-.LFB1201
	.uleb128 .LEHE34-.LEHB34
	.uleb128 .L169-.LFB1201
	.uleb128 0
	.uleb128 .LEHB35-.LFB1201
	.uleb128 .LEHE35-.LEHB35
	.uleb128 .L171-.LFB1201
	.uleb128 0
	.uleb128 .LEHB36-.LFB1201
	.uleb128 .LEHE36-.LEHB36
	.uleb128 .L170-.LFB1201
	.uleb128 0
	.uleb128 .LEHB37-.LFB1201
	.uleb128 .LEHE37-.LEHB37
	.uleb128 .L168-.LFB1201
	.uleb128 0
	.uleb128 .LEHB38-.LFB1201
	.uleb128 .LEHE38-.LEHB38
	.uleb128 .L172-.LFB1201
	.uleb128 0
	.uleb128 .LEHB39-.LFB1201
	.uleb128 .LEHE39-.LEHB39
	.uleb128 .L174-.LFB1201
	.uleb128 0
	.uleb128 .LEHB40-.LFB1201
	.uleb128 .LEHE40-.LEHB40
	.uleb128 .L172-.LFB1201
	.uleb128 0
	.uleb128 .LEHB41-.LFB1201
	.uleb128 .LEHE41-.LEHB41
	.uleb128 .L173-.LFB1201
	.uleb128 0
	.uleb128 .LEHB42-.LFB1201
	.uleb128 .LEHE42-.LEHB42
	.uleb128 .L172-.LFB1201
	.uleb128 0
	.uleb128 .LEHB43-.LFB1201
	.uleb128 .LEHE43-.LEHB43
	.uleb128 .L146-.LFB1201
	.uleb128 0
	.uleb128 .LEHB44-.LFB1201
	.uleb128 .LEHE44-.LEHB44
	.uleb128 .L150-.LFB1201
	.uleb128 0
	.uleb128 .LEHB45-.LFB1201
	.uleb128 .LEHE45-.LEHB45
	.uleb128 .L146-.LFB1201
	.uleb128 0
	.uleb128 .LEHB46-.LFB1201
	.uleb128 .LEHE46-.LEHB46
	.uleb128 0
	.uleb128 0
	.uleb128 .LEHB47-.LFB1201
	.uleb128 .LEHE47-.LEHB47
	.uleb128 .L151-.LFB1201
	.uleb128 0
	.uleb128 .LEHB48-.LFB1201
	.uleb128 .LEHE48-.LEHB48
	.uleb128 0
	.uleb128 0
.LLSDACSE1201:
	.text
	.size	_ZN12ClientSocket7connectENSt7__cxx1112basic_stringIcSt11char_traitsIcESaIcEEEi, .-_ZN12ClientSocket7connectENSt7__cxx1112basic_stringIcSt11char_traitsIcESaIcEEEi
	.section	.rodata.str1.1
.LC14:
	.string	"basic_string::substr"
	.section	.rodata.str1.8
	.align 8
.LC15:
	.string	"%s: __pos (which is %zu) > this->size() (which is %zu)"
	.align 8
.LC16:
	.string	"Client: invalid port given: %s"
	.text
	.align 2
	.globl	_ZN12ClientSocket14setCredentialsENSt7__cxx1112basic_stringIcSt11char_traitsIcESaIcEEE
	.type	_ZN12ClientSocket14setCredentialsENSt7__cxx1112basic_stringIcSt11char_traitsIcESaIcEEE, @function
_ZN12ClientSocket14setCredentialsENSt7__cxx1112basic_stringIcSt11char_traitsIcESaIcEEE:
.LFB1198:
	.loc 1 96 0
	.cfi_startproc
	.cfi_personality 0x9b,DW.ref.__gxx_personality_v0
	.cfi_lsda 0x1b,.LLSDA1198
.LVL547:
	pushq	%r15
	.cfi_def_cfa_offset 16
	.cfi_offset 15, -16
	pushq	%r14
	.cfi_def_cfa_offset 24
	.cfi_offset 14, -24
	pushq	%r13
	.cfi_def_cfa_offset 32
	.cfi_offset 13, -32
	pushq	%r12
	.cfi_def_cfa_offset 40
	.cfi_offset 12, -40
	pushq	%rbp
	.cfi_def_cfa_offset 48
	.cfi_offset 6, -48
	pushq	%rbx
	.cfi_def_cfa_offset 56
	.cfi_offset 3, -56
	subq	$56, %rsp
	.cfi_def_cfa_offset 112
	movq	%rdi, %r13
	movq	%rsi, %rbx
	.loc 1 96 0
	movq	%fs:40, %rax
	movq	%rax, 40(%rsp)
	xorl	%eax, %eax
	.loc 1 98 0
	movq	72(%rdi), %rax
.LVL548:
.LBB3886:
.LBB3887:
.LBB3888:
.LBB3889:
	.loc 2 131 0
	movq	$0, 16(%rax)
.LVL549:
.LBE3889:
.LBE3888:
.LBB3890:
.LBB3891:
	.loc 2 135 0
	movq	8(%rax), %rax
.LVL550:
.LBE3891:
.LBE3890:
.LBB3892:
.LBB3893:
	.loc 4 243 0
	movb	$0, (%rax)
.LVL551:
.LBE3893:
.LBE3892:
.LBE3887:
.LBE3886:
	.loc 1 99 0
	movq	72(%rdi), %rax
.LVL552:
.LBB3894:
.LBB3895:
.LBB3896:
.LBB3897:
	.loc 2 131 0
	movq	$0, 48(%rax)
.LVL553:
.LBE3897:
.LBE3896:
.LBB3898:
.LBB3899:
	.loc 2 135 0
	movq	40(%rax), %rax
.LVL554:
.LBE3899:
.LBE3898:
.LBB3900:
.LBB3901:
	.loc 4 243 0
	movb	$0, (%rax)
.LVL555:
.LBE3901:
.LBE3900:
.LBE3895:
.LBE3894:
	.loc 1 103 0
	movl	$0, %edx
	movl	$64, %esi
.LVL556:
	movq	%rbx, %rdi
.LVL557:
.LEHB49:
	call	_ZNKSt7__cxx1112basic_stringIcSt11char_traitsIcESaIcEE4findEcm@PLT
.LVL558:
	.loc 1 104 0
	cmpl	$-1, %eax
	je	.L205
	movq	%rax, %rbp
.LVL559:
.LBB3902:
.LBB3903:
.LBB3904:
.LBB3905:
	.loc 2 109 0
	movq	%rsp, %r12
	leaq	16(%rsp), %rax
.LVL560:
	movq	%rax, (%rsp)
.LVL561:
.LBE3905:
.LBE3904:
.LBB3906:
.LBB3907:
.LBB3908:
	.loc 2 135 0
	movq	(%rbx), %rsi
.LVL562:
.LBE3908:
.LBE3907:
.LBB3909:
.LBB3910:
.LBB3911:
.LBB3912:
	.loc 2 195 0
	movslq	%ebp, %rdx
.LVL563:
	cmpq	%rdx, 8(%rbx)
	cmovbe	8(%rbx), %rdx
.LVL564:
	addq	%rsi, %rdx
	subq	$8, %rsp
	.cfi_def_cfa_offset 120
.LVL565:
	pushq	$0
	.cfi_def_cfa_offset 128
.LVL566:
	movq	%r12, %rdi
	call	_ZNSt7__cxx1112basic_stringIcSt11char_traitsIcESaIcEE12_M_constructIPKcEEvT_S8_St20forward_iterator_tag@PLT
.LVL567:
.LEHE49:
.LBE3912:
.LBE3911:
.LBE3910:
.LBE3909:
.LBE3906:
.LBE3903:
.LBE3902:
.LBB3913:
.LBB3914:
.LBB3915:
	.loc 2 1095 0
	addq	$16, %rsp
	.cfi_def_cfa_offset 112
.LBE3915:
.LBE3914:
.LBE3913:
	.loc 1 105 0
	movq	72(%r13), %rax
	leaq	8(%rax), %rdi
.LVL568:
.LBB3918:
.LBB3917:
.LBB3916:
	.loc 2 1095 0
	movq	%r12, %rsi
.LEHB50:
	call	_ZNSt7__cxx1112basic_stringIcSt11char_traitsIcESaIcEE9_M_assignERKS4_@PLT
.LVL569:
.LEHE50:
.LBE3916:
.LBE3917:
.LBE3918:
.LBB3919:
.LBB3920:
.LBB3921:
.LBB3922:
.LBB3923:
.LBB3924:
	.loc 2 135 0
	movq	(%rsp), %rdi
.LVL570:
.LBE3924:
.LBE3923:
.LBE3922:
	.loc 2 179 0
	leaq	16(%rsp), %rax
	cmpq	%rax, %rdi
	je	.L187
.LVL571:
.LBB3925:
.LBB3926:
.LBB3927:
.LBB3928:
	.loc 3 110 0
	call	_ZdlPv@PLT
.LVL572:
.L187:
.LBE3928:
.LBE3927:
.LBE3926:
.LBE3925:
.LBE3921:
.LBE3920:
.LBE3919:
	.loc 1 106 0
	addl	$1, %ebp
.LVL573:
	jmp	.L186
.LVL574:
.L205:
	.loc 1 109 0
	movl	$0, %ebp
.LVL575:
.L186:
	.loc 1 112 0
	movl	8(%rbx), %r12d
	subl	%ebp, %r12d
.LVL576:
	.loc 1 113 0
	movl	$0, %edx
	movl	$58, %esi
	movq	%rbx, %rdi
.LEHB51:
	call	_ZNKSt7__cxx1112basic_stringIcSt11char_traitsIcESaIcEE4findEcm@PLT
.LVL577:
.LBB3929:
	.loc 1 114 0
	cmpl	$-1, %eax
	je	.L189
.LBB3930:
	.loc 1 115 0
	addl	$1, %eax
.LVL578:
	movslq	%eax, %rdx
.LVL579:
.LBB3931:
.LBB3932:
.LBB3933:
.LBB3934:
.LBB3935:
.LBB3936:
	.loc 2 716 0
	movq	8(%rbx), %rcx
.LVL580:
.LBE3936:
.LBE3935:
	.loc 2 260 0
	cmpq	%rcx, %rdx
	jbe	.L190
	.loc 2 261 0
	leaq	.LC14(%rip), %rsi
	leaq	.LC15(%rip), %rdi
	movl	$0, %eax
.LVL581:
	call	_ZSt24__throw_out_of_range_fmtPKcz@PLT
.LVL582:
.L190:
.LBE3934:
.LBE3933:
.LBB3937:
.LBB3938:
.LBB3939:
	.loc 2 109 0
	movq	%rsp, %rdi
	leaq	16(%rsp), %rax
.LVL583:
	movq	%rax, (%rsp)
.LVL584:
.LBE3939:
.LBE3938:
.LBB3940:
.LBB3941:
.LBB3942:
.LBB3943:
.LBB3944:
	.loc 2 195 0
	movq	%rdx, %rsi
	addq	(%rbx), %rsi
.LVL585:
	addq	(%rbx), %rcx
.LVL586:
	movq	%rcx, %rdx
.LVL587:
	subq	$8, %rsp
	.cfi_def_cfa_offset 120
.LVL588:
	pushq	$0
	.cfi_def_cfa_offset 128
	call	_ZNSt7__cxx1112basic_stringIcSt11char_traitsIcESaIcEE12_M_constructIPKcEEvT_S8_St20forward_iterator_tag@PLT
.LVL589:
.LEHE51:
.LBE3944:
.LBE3943:
.LBE3942:
.LBE3941:
.LBE3940:
.LBE3937:
.LBE3932:
.LBE3931:
.LBB3945:
.LBB3946:
	.loc 2 722 0
	movq	24(%rsp), %r14
.LVL590:
.LBE3946:
.LBE3945:
	.loc 1 117 0
	movq	72(%r13), %r15
.LVL591:
.LBB3947:
.LBB3948:
	.file 12 "/usr/include/stdlib.h"
	.loc 12 280 0
	movl	$10, %edx
	movl	$0, %esi
	movq	16(%rsp), %rdi
	call	strtol@PLT
.LVL592:
.LBE3948:
.LBE3947:
	.loc 1 117 0
	movl	%eax, 72(%r15)
	.loc 1 118 0
	movq	72(%r13), %rax
	movl	72(%rax), %eax
	subl	$1, %eax
	addq	$16, %rsp
	.cfi_def_cfa_offset 112
	cmpl	$65534, %eax
	jbe	.L191
.LEHB52:
	.loc 1 119 0
	call	log_level@PLT
.LVL593:
	testb	$1, %al
	je	.L192
.LVL594:
.LBB3949:
.LBB3950:
	.loc 5 98 0
	movq	(%rsp), %rcx
	leaq	.LC16(%rip), %rdx
	movl	$1, %esi
	movq	stderr@GOTPCREL(%rip), %rax
.LVL595:
	movq	(%rax), %rdi
	movl	$0, %eax
.LVL596:
	call	__fprintf_chk@PLT
.LVL597:
.LBE3950:
.LBE3949:
	.loc 1 119 0
	movq	stderr@GOTPCREL(%rip), %rax
.LVL598:
.LBB3951:
.LBB3952:
	.loc 5 98 0
	movq	(%rax), %rsi
	movl	$10, %edi
	call	fputc@PLT
.LVL599:
.LEHE52:
.L192:
.LBE3952:
.LBE3951:
.LBB3953:
.LBB3954:
.LBB3955:
.LBB3956:
.LBB3957:
.LBB3958:
	.loc 2 135 0
	movq	(%rsp), %rdi
.LVL600:
.LBE3958:
.LBE3957:
.LBE3956:
	.loc 2 179 0
	leaq	16(%rsp), %rax
	cmpq	%rax, %rdi
	je	.L193
.LVL601:
.LBB3959:
.LBB3960:
.LBB3961:
.LBB3962:
	.loc 3 110 0
	call	_ZdlPv@PLT
.LVL602:
.L193:
.LBE3962:
.LBE3961:
.LBE3960:
.LBE3959:
.LBE3955:
.LBE3954:
.LBE3953:
	.loc 1 120 0
	movl	$0, %eax
	jmp	.L194
.L191:
.LVL603:
.LBB3963:
.LBB3964:
.LBB3965:
.LBB3966:
.LBB3967:
.LBB3968:
	.loc 2 135 0
	movq	(%rsp), %rdi
.LVL604:
.LBE3968:
.LBE3967:
.LBE3966:
	.loc 2 179 0
	leaq	16(%rsp), %rax
	cmpq	%rax, %rdi
	je	.L195
.LVL605:
.LBB3969:
.LBB3970:
.LBB3971:
.LBB3972:
	.loc 3 110 0
	call	_ZdlPv@PLT
.LVL606:
.L195:
.LBE3972:
.LBE3971:
.LBE3970:
.LBE3969:
.LBE3965:
.LBE3964:
.LBE3963:
	.loc 1 116 0
	addq	$1, %r14
.LVL607:
	subl	%r14d, %r12d
.LVL608:
.L189:
.LBE3930:
.LBE3929:
	.loc 1 125 0
	testl	%r12d, %r12d
	jle	.L206
	.loc 1 126 0
	movslq	%r12d, %r12
	movslq	%ebp, %rdx
.LVL609:
.LBB3984:
.LBB3985:
.LBB3986:
.LBB3987:
.LBB3988:
.LBB3989:
	.loc 2 716 0
	movq	8(%rbx), %rcx
.LVL610:
.LBE3989:
.LBE3988:
	.loc 2 260 0
	cmpq	%rcx, %rdx
	jbe	.L196
	.loc 2 261 0
	leaq	.LC14(%rip), %rsi
	leaq	.LC15(%rip), %rdi
	movl	$0, %eax
.LEHB53:
	call	_ZSt24__throw_out_of_range_fmtPKcz@PLT
.LVL611:
.L196:
.LBE3987:
.LBE3986:
.LBB3990:
.LBB3991:
.LBB3992:
	.loc 2 109 0
	movq	%rsp, %r14
	leaq	16(%rsp), %rax
	movq	%rax, (%rsp)
.LVL612:
.LBE3992:
.LBE3991:
.LBB3993:
	.loc 2 415 0
	movq	%rdx, %rsi
	addq	(%rbx), %rsi
.LVL613:
.LBB3994:
.LBB3995:
.LBB3996:
.LBB3997:
	.loc 2 195 0
	subq	%rdx, %rcx
.LVL614:
	cmpq	%r12, %rcx
	cmovbe	%rcx, %r12
.LVL615:
	leaq	(%rsi,%r12), %rdx
.LVL616:
	subq	$8, %rsp
	.cfi_def_cfa_offset 120
.LVL617:
	pushq	$0
	.cfi_def_cfa_offset 128
	movq	%r14, %rdi
	call	_ZNSt7__cxx1112basic_stringIcSt11char_traitsIcESaIcEE12_M_constructIPKcEEvT_S8_St20forward_iterator_tag@PLT
.LVL618:
.LEHE53:
.LBE3997:
.LBE3996:
.LBE3995:
.LBE3994:
.LBE3993:
.LBE3990:
.LBE3985:
.LBE3984:
.LBB3998:
.LBB3999:
.LBB4000:
	.loc 2 1095 0
	addq	$16, %rsp
	.cfi_def_cfa_offset 112
.LBE4000:
.LBE3999:
.LBE3998:
	.loc 1 126 0
	movq	72(%r13), %rdi
	addq	$40, %rdi
.LVL619:
.LBB4003:
.LBB4002:
.LBB4001:
	.loc 2 1095 0
	movq	%r14, %rsi
.LEHB54:
	call	_ZNSt7__cxx1112basic_stringIcSt11char_traitsIcESaIcEE9_M_assignERKS4_@PLT
.LVL620:
.LEHE54:
.LBE4001:
.LBE4002:
.LBE4003:
.LBB4004:
.LBB4005:
.LBB4006:
.LBB4007:
.LBB4008:
.LBB4009:
	.loc 2 135 0
	movq	(%rsp), %rdi
.LVL621:
.LBE4009:
.LBE4008:
.LBE4007:
	.loc 2 179 0
	leaq	16(%rsp), %rax
	cmpq	%rax, %rdi
	je	.L197
.LVL622:
.LBB4010:
.LBB4011:
.LBB4012:
.LBB4013:
	.loc 3 110 0
	call	_ZdlPv@PLT
.LVL623:
.L197:
.LBE4013:
.LBE4012:
.LBE4011:
.LBE4010:
.LBE4006:
.LBE4005:
.LBE4004:
	.loc 1 128 0
	movl	$1, %eax
	jmp	.L194
.LVL624:
.L206:
	movl	$1, %eax
.LVL625:
.L194:
	.loc 1 129 0 discriminator 2
	movq	40(%rsp), %rcx
	xorq	%fs:40, %rcx
	je	.L204
	jmp	.L210
.LVL626:
.L207:
	movq	%rax, %rbx
.LVL627:
.LBB4014:
.LBB4015:
.LBB4016:
.LBB4017:
.LBB4018:
.LBB4019:
	.loc 2 135 0
	movq	(%rsp), %rdi
.LVL628:
.LBE4019:
.LBE4018:
.LBE4017:
	.loc 2 179 0
	leaq	16(%rsp), %rax
	cmpq	%rax, %rdi
	je	.L199
.LVL629:
.LBB4020:
.LBB4021:
.LBB4022:
.LBB4023:
	.loc 3 110 0
	call	_ZdlPv@PLT
.LVL630:
.L199:
	movq	%rbx, %rdi
.LEHB55:
	call	_Unwind_Resume@PLT
.LVL631:
.L208:
	movq	%rax, %rbx
.LVL632:
.LBE4023:
.LBE4022:
.LBE4021:
.LBE4020:
.LBE4016:
.LBE4015:
.LBE4014:
.LBB4024:
.LBB3983:
.LBB3973:
.LBB3974:
.LBB3975:
.LBB3976:
.LBB3977:
.LBB3978:
	.loc 2 135 0
	movq	(%rsp), %rdi
.LVL633:
.LBE3978:
.LBE3977:
.LBE3976:
	.loc 2 179 0
	leaq	16(%rsp), %rax
	cmpq	%rax, %rdi
	je	.L201
.LVL634:
.LBB3979:
.LBB3980:
.LBB3981:
.LBB3982:
	.loc 3 110 0
	call	_ZdlPv@PLT
.LVL635:
.L201:
	movq	%rbx, %rdi
	call	_Unwind_Resume@PLT
.LVL636:
.L209:
	movq	%rax, %rbx
.LVL637:
.LBE3982:
.LBE3981:
.LBE3980:
.LBE3979:
.LBE3975:
.LBE3974:
.LBE3973:
.LBE3983:
.LBE4024:
.LBB4025:
.LBB4026:
.LBB4027:
.LBB4028:
.LBB4029:
.LBB4030:
	.loc 2 135 0
	movq	(%rsp), %rdi
.LVL638:
.LBE4030:
.LBE4029:
.LBE4028:
	.loc 2 179 0
	leaq	16(%rsp), %rax
	cmpq	%rax, %rdi
	je	.L203
.LVL639:
.LBB4031:
.LBB4032:
.LBB4033:
.LBB4034:
	.loc 3 110 0
	call	_ZdlPv@PLT
.LVL640:
.L203:
	movq	%rbx, %rdi
	call	_Unwind_Resume@PLT
.LVL641:
.LEHE55:
.L210:
.LBE4034:
.LBE4033:
.LBE4032:
.LBE4031:
.LBE4027:
.LBE4026:
.LBE4025:
	.loc 1 129 0
	call	__stack_chk_fail@PLT
.LVL642:
.L204:
	addq	$56, %rsp
	.cfi_def_cfa_offset 56
	popq	%rbx
	.cfi_def_cfa_offset 48
.LVL643:
	popq	%rbp
	.cfi_def_cfa_offset 40
.LVL644:
	popq	%r12
	.cfi_def_cfa_offset 32
	popq	%r13
	.cfi_def_cfa_offset 24
.LVL645:
	popq	%r14
	.cfi_def_cfa_offset 16
	popq	%r15
	.cfi_def_cfa_offset 8
	ret
	.cfi_endproc
.LFE1198:
	.section	.gcc_except_table
.LLSDA1198:
	.byte	0xff
	.byte	0xff
	.byte	0x1
	.uleb128 .LLSDACSE1198-.LLSDACSB1198
.LLSDACSB1198:
	.uleb128 .LEHB49-.LFB1198
	.uleb128 .LEHE49-.LEHB49
	.uleb128 0
	.uleb128 0
	.uleb128 .LEHB50-.LFB1198
	.uleb128 .LEHE50-.LEHB50
	.uleb128 .L207-.LFB1198
	.uleb128 0
	.uleb128 .LEHB51-.LFB1198
	.uleb128 .LEHE51-.LEHB51
	.uleb128 0
	.uleb128 0
	.uleb128 .LEHB52-.LFB1198
	.uleb128 .LEHE52-.LEHB52
	.uleb128 .L208-.LFB1198
	.uleb128 0
	.uleb128 .LEHB53-.LFB1198
	.uleb128 .LEHE53-.LEHB53
	.uleb128 0
	.uleb128 0
	.uleb128 .LEHB54-.LFB1198
	.uleb128 .LEHE54-.LEHB54
	.uleb128 .L209-.LFB1198
	.uleb128 0
	.uleb128 .LEHB55-.LFB1198
	.uleb128 .LEHE55-.LEHB55
	.uleb128 0
	.uleb128 0
.LLSDACSE1198:
	.text
	.size	_ZN12ClientSocket14setCredentialsENSt7__cxx1112basic_stringIcSt11char_traitsIcESaIcEEE, .-_ZN12ClientSocket14setCredentialsENSt7__cxx1112basic_stringIcSt11char_traitsIcESaIcEEE
	.type	_GLOBAL__sub_I_clientsocket.cpp, @function
_GLOBAL__sub_I_clientsocket.cpp:
.LFB1360:
	.loc 1 222 0
	.cfi_startproc
	subq	$8, %rsp
	.cfi_def_cfa_offset 16
.LVL646:
.LBB4037:
.LBB4038:
	.file 13 "/usr/include/c++/5/iostream"
	.loc 13 74 0
	leaq	_ZStL8__ioinit(%rip), %rdi
	call	_ZNSt8ios_base4InitC1Ev@PLT
.LVL647:
	leaq	__dso_handle(%rip), %rdx
	leaq	_ZStL8__ioinit(%rip), %rsi
	movq	_ZNSt8ios_base4InitD1Ev@GOTPCREL(%rip), %rdi
	call	__cxa_atexit@PLT
.LVL648:
.LBE4038:
.LBE4037:
	.loc 1 222 0
	addq	$8, %rsp
	.cfi_def_cfa_offset 8
	ret
	.cfi_endproc
.LFE1360:
	.size	_GLOBAL__sub_I_clientsocket.cpp, .-_GLOBAL__sub_I_clientsocket.cpp
	.section	.init_array,"aw"
	.align 8
	.quad	_GLOBAL__sub_I_clientsocket.cpp
	.weak	_ZTS12ClientSocket
	.section	.rodata._ZTS12ClientSocket,"aG",@progbits,_ZTS12ClientSocket,comdat
	.align 8
	.type	_ZTS12ClientSocket, @object
	.size	_ZTS12ClientSocket, 15
_ZTS12ClientSocket:
	.string	"12ClientSocket"
	.weak	_ZTI12ClientSocket
	.section	.data.rel.ro._ZTI12ClientSocket,"awG",@progbits,_ZTI12ClientSocket,comdat
	.align 8
	.type	_ZTI12ClientSocket, @object
	.size	_ZTI12ClientSocket, 24
_ZTI12ClientSocket:
	.quad	_ZTVN10__cxxabiv120__si_class_type_infoE+16
	.quad	_ZTS12ClientSocket
	.quad	_ZTI6Socket
	.weak	_ZTV12ClientSocket
	.section	.data.rel.ro._ZTV12ClientSocket,"awG",@progbits,_ZTV12ClientSocket,comdat
	.align 8
	.type	_ZTV12ClientSocket, @object
	.size	_ZTV12ClientSocket, 32
_ZTV12ClientSocket:
	.quad	0
	.quad	_ZTI12ClientSocket
	.quad	_ZN12ClientSocketD1Ev
	.quad	_ZN12ClientSocketD0Ev
	.local	_ZStL8__ioinit
	.comm	_ZStL8__ioinit,1,1
	.text
.Letext0:
	.file 14 "/usr/include/c++/5/bits/stringfwd.h"
	.file 15 "/usr/include/c++/5/bits/cpp_type_traits.h"
	.file 16 "/usr/include/c++/5/bits/stl_iterator_base_types.h"
	.file 17 "/usr/include/c++/5/cwchar"
	.file 18 "/usr/include/x86_64-linux-gnu/c++/5/bits/c++config.h"
	.file 19 "/usr/include/c++/5/bits/allocator.h"
	.file 20 "/usr/include/c++/5/clocale"
	.file 21 "/usr/include/c++/5/bits/ios_base.h"
	.file 22 "/usr/include/c++/5/cwctype"
	.file 23 "/usr/include/c++/5/cstdio"
	.file 24 "/usr/include/c++/5/cstdlib"
	.file 25 "/usr/include/c++/5/bits/ostream.tcc"
	.file 26 "/usr/include/c++/5/bits/basic_ios.tcc"
	.file 27 "/usr/include/c++/5/bits/stl_iterator_base_funcs.h"
	.file 28 "/usr/include/c++/5/iosfwd"
	.file 29 "/usr/include/c++/5/bits/functexcept.h"
	.file 30 "/usr/include/c++/5/debug/debug.h"
	.file 31 "/usr/include/c++/5/bits/predefined_ops.h"
	.file 32 "/usr/include/c++/5/ext/numeric_traits.h"
	.file 33 "/usr/include/c++/5/ext/alloc_traits.h"
	.file 34 "/usr/include/c++/5/bits/stl_iterator.h"
	.file 35 "/usr/include/c++/5/ext/type_traits.h"
	.file 36 "/usr/include/stdio.h"
	.file 37 "/usr/include/libio.h"
	.file 38 "<built-in>"
	.file 39 "/usr/lib/gcc/x86_64-linux-gnu/5/include/stddef.h"
	.file 40 "/usr/include/wchar.h"
	.file 41 "/usr/include/x86_64-linux-gnu/bits/wchar2.h"
	.file 42 "/usr/include/time.h"
	.file 43 "/usr/include/locale.h"
	.file 44 "/usr/include/x86_64-linux-gnu/bits/types.h"
	.file 45 "/usr/include/sched.h"
	.file 46 "/usr/include/x86_64-linux-gnu/bits/time.h"
	.file 47 "/usr/include/x86_64-linux-gnu/c++/5/bits/atomic_word.h"
	.file 48 "./src/proto/socket.hpp"
	.file 49 "src/client/clientsocket.hpp"
	.file 50 "/usr/include/_G_config.h"
	.file 51 "./src/shared/common.h"
	.file 52 "/usr/include/wctype.h"
	.file 53 "/usr/include/x86_64-linux-gnu/bits/stdio.h"
	.file 54 "/usr/include/x86_64-linux-gnu/bits/stdlib-float.h"
	.file 55 "/usr/include/x86_64-linux-gnu/bits/stdlib-bsearch.h"
	.file 56 "/usr/include/x86_64-linux-gnu/bits/stdlib.h"
	.file 57 "/usr/include/x86_64-linux-gnu/sys/time.h"
	.file 58 "/usr/include/c++/5/new"
	.file 59 "/usr/include/unistd.h"
	.file 60 "/usr/include/signal.h"
	.file 61 "/usr/include/x86_64-linux-gnu/sys/wait.h"
	.file 62 "/usr/include/x86_64-linux-gnu/sys/select.h"
	.section	.data.DW.ref.__gxx_personality_v0,"awG",@progbits,DW.ref.__gxx_personality_v0,comdat
	.align 8
	.type	DW.ref.__gxx_personality_v0, @object
	.size	DW.ref.__gxx_personality_v0, 8
DW.ref.__gxx_personality_v0:
	.quad	__gxx_personality_v0
	.hidden	__dso_handle
	.ident	"GCC: (Ubuntu 5.4.0-6ubuntu1~16.04.10) 5.4.0 20160609"
	.section	.note.GNU-stack,"",@progbits
