	.file	"usbnet.cpp"
	.text
.Ltext0:
	.section	.text._ZN8CmdFlagsD2Ev,"axG",@progbits,_ZN8CmdFlagsD5Ev,comdat
	.align 2
	.weak	_ZN8CmdFlagsD2Ev
	.type	_ZN8CmdFlagsD2Ev, @function
_ZN8CmdFlagsD2Ev:
.LFB988:
	.file 1 "./src/shared/cmdflags.hpp"
	.loc 1 42 0
	.cfi_startproc
.LVL0:
	pushq	%rbx
	.cfi_def_cfa_offset 16
	.cfi_offset 3, -16
	movq	%rdi, %rbx
.LVL1:
.LBB1455:
.LBB1456:
.LBB1457:
.LBB1458:
.LBB1459:
.LBB1460:
	.file 2 "/usr/include/c++/5/bits/basic_string.h"
	.loc 2 135 0
	movq	56(%rdi), %rdi
.LVL2:
.LBE1460:
.LBE1459:
.LBB1461:
.LBB1462:
	.loc 2 153 0
	leaq	72(%rbx), %rax
.LBE1462:
.LBE1461:
.LBE1458:
	.loc 2 179 0
	cmpq	%rax, %rdi
	je	.L2
.LVL3:
.LBB1463:
.LBB1464:
.LBB1465:
.LBB1466:
	.file 3 "/usr/include/c++/5/ext/new_allocator.h"
	.loc 3 110 0
	call	_ZdlPv@PLT
.LVL4:
.L2:
.LBE1466:
.LBE1465:
.LBE1464:
.LBE1463:
.LBE1457:
.LBE1456:
.LBE1455:
.LBB1467:
.LBB1468:
.LBB1469:
	.file 4 "/usr/include/c++/5/bits/stl_vector.h"
	.loc 4 161 0
	movq	32(%rbx), %rdi
.LVL5:
.LBB1470:
.LBB1471:
	.loc 4 177 0
	testq	%rdi, %rdi
	je	.L3
.LVL6:
.LBB1472:
.LBB1473:
.LBB1474:
	.loc 3 110 0
	call	_ZdlPv@PLT
.LVL7:
.L3:
.LBE1474:
.LBE1473:
.LBE1472:
.LBE1471:
.LBE1470:
.LBE1469:
.LBE1468:
.LBE1467:
.LBB1475:
.LBB1476:
.LBB1477:
	.loc 4 161 0
	movq	8(%rbx), %rdi
.LVL8:
.LBB1478:
.LBB1479:
	.loc 4 177 0
	testq	%rdi, %rdi
	je	.L1
.LVL9:
.LBB1480:
.LBB1481:
.LBB1482:
	.loc 3 110 0
	call	_ZdlPv@PLT
.LVL10:
.L1:
.LBE1482:
.LBE1481:
.LBE1480:
.LBE1479:
.LBE1478:
.LBE1477:
.LBE1476:
.LBE1475:
	.loc 1 42 0
	popq	%rbx
	.cfi_def_cfa_offset 8
.LVL11:
	ret
	.cfi_endproc
.LFE988:
	.size	_ZN8CmdFlagsD2Ev, .-_ZN8CmdFlagsD2Ev
	.weak	_ZN8CmdFlagsD1Ev
	.set	_ZN8CmdFlagsD1Ev,_ZN8CmdFlagsD2Ev
	.section	.rodata.str1.1,"aMS",@progbits,1
.LC0:
	.string	"vector::_M_insert_aux"
	.section	.text._ZNSt6vectorI6OptionSaIS0_EE13_M_insert_auxEN9__gnu_cxx17__normal_iteratorIPS0_S2_EERKS0_,"axG",@progbits,_ZNSt6vectorI6OptionSaIS0_EE13_M_insert_auxEN9__gnu_cxx17__normal_iteratorIPS0_S2_EERKS0_,comdat
	.align 2
	.weak	_ZNSt6vectorI6OptionSaIS0_EE13_M_insert_auxEN9__gnu_cxx17__normal_iteratorIPS0_S2_EERKS0_
	.type	_ZNSt6vectorI6OptionSaIS0_EE13_M_insert_auxEN9__gnu_cxx17__normal_iteratorIPS0_S2_EERKS0_, @function
_ZNSt6vectorI6OptionSaIS0_EE13_M_insert_auxEN9__gnu_cxx17__normal_iteratorIPS0_S2_EERKS0_:
.LFB1041:
	.file 5 "/usr/include/c++/5/bits/vector.tcc"
	.loc 5 326 0
	.cfi_startproc
.LVL12:
	pushq	%r15
	.cfi_def_cfa_offset 16
	.cfi_offset 15, -16
	pushq	%r14
	.cfi_def_cfa_offset 24
	.cfi_offset 14, -24
	pushq	%r13
	.cfi_def_cfa_offset 32
	.cfi_offset 13, -32
	pushq	%r12
	.cfi_def_cfa_offset 40
	.cfi_offset 12, -40
	pushq	%rbp
	.cfi_def_cfa_offset 48
	.cfi_offset 6, -48
	pushq	%rbx
	.cfi_def_cfa_offset 56
	.cfi_offset 3, -56
	subq	$24, %rsp
	.cfi_def_cfa_offset 80
.LBB1535:
	.loc 5 330 0
	movq	8(%rdi), %rax
	cmpq	16(%rdi), %rax
	je	.L7
.LVL13:
.LBB1536:
.LBB1537:
.LBB1538:
.LBB1539:
	.loc 3 130 0
	testq	%rax, %rax
	je	.L8
	movq	-40(%rax), %rcx
	movq	%rcx, (%rax)
	movq	-32(%rax), %rcx
	movq	%rcx, 8(%rax)
	movq	-24(%rax), %rcx
	movq	%rcx, 16(%rax)
	movq	-16(%rax), %rcx
	movq	%rcx, 24(%rax)
	movq	-8(%rax), %rcx
	movq	%rcx, 32(%rax)
.L8:
.LVL14:
.LBE1539:
.LBE1538:
.LBE1537:
	.loc 5 335 0
	movq	8(%rdi), %rax
	leaq	40(%rax), %rcx
	movq	%rcx, 8(%rdi)
	.loc 5 337 0
	movl	(%rdx), %r11d
.LVL15:
	movq	8(%rdx), %r10
.LVL16:
	movq	16(%rdx), %r9
.LVL17:
	movq	24(%rdx), %r8
.LVL18:
	movzbl	32(%rdx), %ebx
	.loc 5 339 0
	leaq	-40(%rax), %rdx
.LVL19:
.LBB1540:
.LBB1541:
.LBB1542:
.LBB1543:
.LBB1544:
.LBB1545:
	.file 6 "/usr/include/c++/5/bits/stl_algobase.h"
	.loc 6 548 0
	movq	%rdx, %rdi
.LVL20:
	subq	%rsi, %rdi
	sarq	$3, %rdi
	movabsq	$-3689348814741910323, %rcx
	imulq	%rcx, %rdi
	movq	%rdi, %rcx
.LVL21:
	testq	%rdi, %rdi
	jle	.L9
.LVL22:
.L28:
	.loc 6 549 0
	subq	$40, %rax
.LVL23:
	subq	$40, %rdx
.LVL24:
	movq	(%rdx), %rdi
	movq	%rdi, (%rax)
	movq	8(%rdx), %rdi
	movq	%rdi, 8(%rax)
	movq	16(%rdx), %rdi
	movq	%rdi, 16(%rax)
	movq	24(%rdx), %rdi
	movq	%rdi, 24(%rax)
	movzbl	32(%rdx), %edi
	movb	%dil, 32(%rax)
.LVL25:
	.loc 6 548 0
	subq	$1, %rcx
.LVL26:
	jne	.L28
.L9:
.LVL27:
.LBE1545:
.LBE1544:
.LBE1543:
.LBE1542:
.LBE1541:
.LBE1540:
	.loc 5 343 0
	movl	%r11d, (%rsi)
	movq	%r10, 8(%rsi)
	movq	%r9, 16(%rsi)
	movq	%r8, 24(%rsi)
	movb	%bl, 32(%rsi)
.LVL28:
.LBE1536:
	jmp	.L6
.LVL29:
.L7:
	movq	%rsi, %r13
	movq	%rdx, %rbp
	movq	%rsi, %rbx
	movq	%rdi, %r12
.LVL30:
.LBB1546:
.LBB1547:
.LBB1548:
.LBB1549:
.LBB1550:
	.loc 4 655 0
	movq	(%rdi), %rcx
	subq	%rcx, %rax
	sarq	$3, %rax
	movabsq	$-3689348814741910323, %rdx
.LVL31:
	imulq	%rdx, %rax
.LVL32:
.LBE1550:
.LBE1549:
	.loc 4 1424 0
	movabsq	$461168601842738790, %rdx
	cmpq	%rdx, %rax
	jne	.L12
.LVL33:
	.loc 4 1425 0
	leaq	.LC0(%rip), %rdi
.LVL34:
	call	_ZSt20__throw_length_errorPKc@PLT
.LVL35:
.L12:
.LBB1551:
.LBB1552:
	.loc 6 224 0
	testq	%rax, %rax
	je	.L13
.LVL36:
.LBE1552:
.LBE1551:
	.loc 4 1427 0
	leaq	(%rax,%rax), %r15
.LVL37:
	.loc 4 1428 0
	cmpq	%r15, %rax
	ja	.L14
	movabsq	$461168601842738790, %rax
	cmpq	%rax, %r15
	ja	.L14
.LVL38:
.LBE1548:
.LBE1547:
.LBB1555:
.LBB1556:
	.file 7 "/usr/include/c++/5/bits/stl_iterator.h"
	.loc 7 926 0
	movq	%rsi, %rax
	subq	%rcx, %rax
	movq	%rax, 8(%rsp)
.LVL39:
.LBE1556:
.LBE1555:
.LBB1559:
.LBB1560:
	.loc 4 170 0
	testq	%r15, %r15
	je	.L25
.LVL40:
.LBB1561:
.LBB1562:
.LBB1563:
	.loc 3 101 0
	movabsq	$461168601842738790, %rax
.LVL41:
	cmpq	%rax, %r15
	jbe	.L16
	.loc 3 102 0
	call	_ZSt17__throw_bad_allocv@PLT
.LVL42:
.L16:
	.loc 3 104 0
	leaq	(%r15,%r15,4), %rdi
.LVL43:
	salq	$3, %rdi
	call	_Znwm@PLT
.LVL44:
	movq	%rax, %r14
.LVL45:
	jmp	.L15
.LVL46:
.L25:
.LBE1563:
.LBE1562:
.LBE1561:
	.loc 4 170 0
	movl	$0, %r15d
	movl	$0, %r14d
.LVL47:
.L15:
.LBE1560:
.LBE1559:
.LBB1564:
.LBB1565:
.LBB1566:
	.loc 3 130 0
	movq	8(%rsp), %rax
	addq	%r14, %rax
.LVL48:
	je	.L17
	movq	0(%rbp), %rdx
	movq	%rdx, (%rax)
	movq	8(%rbp), %rdx
	movq	%rdx, 8(%rax)
	movq	16(%rbp), %rdx
	movq	%rdx, 16(%rax)
	movq	24(%rbp), %rdx
	movq	%rdx, 24(%rax)
	movq	32(%rbp), %rdx
	movq	%rdx, 32(%rax)
.L17:
.LVL49:
.LBE1566:
.LBE1565:
.LBE1564:
	.loc 5 372 0
	movq	(%r12), %rdi
.LVL50:
.LBB1567:
.LBB1568:
.LBB1569:
.LBB1570:
.LBB1571:
.LBB1572:
	.file 8 "/usr/include/c++/5/bits/stl_uninitialized.h"
	.loc 8 74 0
	cmpq	%rdi, %rbx
	je	.L27
	movq	%r14, %rdx
	movq	%rdi, %rax
.LVL51:
.L20:
.LBB1573:
.LBB1574:
	.file 9 "/usr/include/c++/5/bits/stl_construct.h"
	.loc 9 83 0
	testq	%rdx, %rdx
	je	.L19
	movq	(%rax), %rcx
	movq	%rcx, (%rdx)
	movq	8(%rax), %rcx
	movq	%rcx, 8(%rdx)
	movq	16(%rax), %rcx
	movq	%rcx, 16(%rdx)
	movq	24(%rax), %rcx
	movq	%rcx, 24(%rdx)
	movq	32(%rax), %rcx
	movq	%rcx, 32(%rdx)
.L19:
.LVL52:
.LBE1574:
.LBE1573:
	.loc 8 74 0
	addq	$40, %rax
.LVL53:
	addq	$40, %rdx
.LVL54:
	cmpq	%rax, %r13
	jne	.L20
	leaq	40(%rdi), %rax
.LVL55:
	movq	%rbx, %rdx
.LVL56:
	subq	%rax, %rdx
	shrq	$3, %rdx
	movabsq	$922337203685477581, %rax
	imulq	%rax, %rdx
	movabsq	$2305843009213693951, %rax
	andq	%rdx, %rax
	leaq	5(%rax,%rax,4), %rax
	leaq	(%r14,%rax,8), %rbp
.LVL57:
	jmp	.L18
.LVL58:
.L27:
	.loc 8 71 0
	movq	%r14, %rbp
.LVL59:
.L18:
.LBE1572:
.LBE1571:
.LBE1570:
.LBE1569:
.LBE1568:
.LBE1567:
	.loc 5 375 0
	addq	$40, %rbp
.LVL60:
	.loc 5 379 0
	movq	8(%r12), %rsi
.LVL61:
.LBB1575:
.LBB1576:
.LBB1577:
.LBB1578:
.LBB1579:
.LBB1580:
	.loc 8 74 0
	cmpq	%rsi, %rbx
	je	.L21
	movq	%rbp, %rdx
	movq	%rbx, %rax
.LVL62:
.L23:
.LBB1581:
.LBB1582:
	.loc 9 83 0
	testq	%rdx, %rdx
	je	.L22
	movq	(%rax), %rcx
	movq	%rcx, (%rdx)
	movq	8(%rax), %rcx
	movq	%rcx, 8(%rdx)
	movq	16(%rax), %rcx
	movq	%rcx, 16(%rdx)
	movq	24(%rax), %rcx
	movq	%rcx, 24(%rdx)
	movq	32(%rax), %rcx
	movq	%rcx, 32(%rdx)
.L22:
.LVL63:
.LBE1582:
.LBE1581:
	.loc 8 74 0
	addq	$40, %rax
.LVL64:
	addq	$40, %rdx
.LVL65:
	cmpq	%rax, %rsi
	jne	.L23
	addq	$40, %rbx
.LVL66:
	subq	%rbx, %rsi
.LVL67:
	shrq	$3, %rsi
	movabsq	$922337203685477581, %rax
.LVL68:
	imulq	%rax, %rsi
	movabsq	$2305843009213693951, %rax
	andq	%rax, %rsi
	leaq	5(%rsi,%rsi,4), %rax
	leaq	0(%rbp,%rax,8), %rbp
.LVL69:
.L21:
.LBE1580:
.LBE1579:
.LBE1578:
.LBE1577:
.LBE1576:
.LBE1575:
.LBB1583:
.LBB1584:
	.loc 4 177 0
	testq	%rdi, %rdi
	je	.L24
.LVL70:
.LBB1585:
.LBB1586:
.LBB1587:
	.loc 3 110 0
	call	_ZdlPv@PLT
.LVL71:
.L24:
.LBE1587:
.LBE1586:
.LBE1585:
.LBE1584:
.LBE1583:
	.loc 5 397 0
	movq	%r14, (%r12)
	.loc 5 398 0
	movq	%rbp, 8(%r12)
	.loc 5 399 0
	leaq	(%r15,%r15,4), %rax
	leaq	(%r14,%rax,8), %rax
	movq	%rax, 16(%r12)
.LBE1546:
.LBE1535:
	.loc 5 401 0
	jmp	.L6
.LVL72:
.L13:
.LBB1593:
.LBB1592:
.LBB1588:
.LBB1557:
	.loc 7 926 0
	movq	%rsi, %rax
	subq	%rcx, %rax
	movq	%rax, 8(%rsp)
.LVL73:
.LBE1557:
.LBE1588:
.LBB1589:
.LBB1553:
	.loc 4 1427 0
	movl	$1, %r15d
	jmp	.L16
.LVL74:
.L14:
.LBE1553:
.LBE1589:
.LBB1590:
.LBB1558:
	.loc 7 926 0
	movq	%rbx, %rax
	subq	%rcx, %rax
	movq	%rax, 8(%rsp)
.LVL75:
.LBE1558:
.LBE1590:
.LBB1591:
.LBB1554:
	.loc 4 1428 0
	movabsq	$461168601842738790, %r15
	jmp	.L16
.LVL76:
.L6:
.LBE1554:
.LBE1591:
.LBE1592:
.LBE1593:
	.loc 5 401 0
	addq	$24, %rsp
	.cfi_def_cfa_offset 56
	popq	%rbx
	.cfi_def_cfa_offset 48
	popq	%rbp
	.cfi_def_cfa_offset 40
	popq	%r12
	.cfi_def_cfa_offset 32
	popq	%r13
	.cfi_def_cfa_offset 24
	popq	%r14
	.cfi_def_cfa_offset 16
	popq	%r15
	.cfi_def_cfa_offset 8
	ret
	.cfi_endproc
.LFE1041:
	.size	_ZNSt6vectorI6OptionSaIS0_EE13_M_insert_auxEN9__gnu_cxx17__normal_iteratorIPS0_S2_EERKS0_, .-_ZNSt6vectorI6OptionSaIS0_EE13_M_insert_auxEN9__gnu_cxx17__normal_iteratorIPS0_S2_EERKS0_
	.section	.text._ZNSt6vectorI6OptionSaIS0_EE9push_backERKS0_,"axG",@progbits,_ZNSt6vectorI6OptionSaIS0_EE9push_backERKS0_,comdat
	.align 2
	.weak	_ZNSt6vectorI6OptionSaIS0_EE9push_backERKS0_
	.type	_ZNSt6vectorI6OptionSaIS0_EE9push_backERKS0_, @function
_ZNSt6vectorI6OptionSaIS0_EE9push_backERKS0_:
.LFB998:
	.loc 4 913 0
	.cfi_startproc
.LVL77:
	.loc 4 915 0
	movq	8(%rdi), %rax
	cmpq	16(%rdi), %rax
	je	.L34
.LVL78:
.LBB1594:
.LBB1595:
.LBB1596:
	.loc 3 130 0
	testq	%rax, %rax
	je	.L35
	movq	(%rsi), %rdx
	movq	%rdx, (%rax)
	movq	8(%rsi), %rdx
	movq	%rdx, 8(%rax)
	movq	16(%rsi), %rdx
	movq	%rdx, 16(%rax)
	movq	24(%rsi), %rdx
	movq	%rdx, 24(%rax)
	movq	32(%rsi), %rdx
	movq	%rdx, 32(%rax)
.L35:
.LVL79:
.LBE1596:
.LBE1595:
.LBE1594:
	.loc 4 919 0
	addq	$40, 8(%rdi)
	ret
.L34:
	.loc 4 913 0
	subq	$8, %rsp
	.cfi_def_cfa_offset 16
	movq	%rsi, %rdx
	.loc 4 925 0
	movq	%rax, %rsi
.LVL80:
	call	_ZNSt6vectorI6OptionSaIS0_EE13_M_insert_auxEN9__gnu_cxx17__normal_iteratorIPS0_S2_EERKS0_@PLT
.LVL81:
	.loc 4 927 0
	addq	$8, %rsp
	.cfi_def_cfa_offset 8
	ret
	.cfi_endproc
.LFE998:
	.size	_ZNSt6vectorI6OptionSaIS0_EE9push_backERKS0_, .-_ZNSt6vectorI6OptionSaIS0_EE9push_backERKS0_
	.section	.rodata.str1.1
.LC1:
	.string	"localhost"
.LC2:
	.string	"libusbnet.so"
.LC3:
	.string	"host"
.LC4:
	.string	"Target server host:[port]"
.LC5:
	.string	"localhost:22222"
.LC6:
	.string	"auth"
	.section	.rodata.str1.8,"aMS",@progbits,1
	.align 8
.LC7:
	.string	"Authentication token user@host[:port]"
	.section	.rodata.str1.1
.LC8:
	.string	""
.LC9:
	.string	"library"
.LC10:
	.string	"Preloaded library"
.LC11:
	.string	"timeout"
.LC12:
	.string	"Connection timeout (ms)."
.LC13:
	.string	"1000"
.LC14:
	.string	"quiet"
.LC15:
	.string	"Quiet output"
.LC16:
	.string	"help"
.LC17:
	.string	"Print help"
	.section	.rodata.str1.8
	.align 8
.LC18:
	.string	"Usage: usbnet [options] <executable>"
	.align 8
.LC19:
	.string	"basic_string::_M_construct null not valid"
	.align 8
.LC20:
	.string	"Client: invalid authentication method '%s'"
	.align 8
.LC21:
	.string	"Client: connecting to %s:%d ..."
	.section	.rodata.str1.1
.LC22:
	.string	"Client: connection failed."
.LC23:
	.string	"LD_PRELOAD=\""
.LC24:
	.string	"\" "
.LC25:
	.string	"Executing: %s"
.LC26:
	.string	"basic_string::append"
.LC27:
	.string	"Executing: "
.LC28:
	.string	"(%s)"
.LC29:
	.string	"%s"
.LC30:
	.string	"IPC: executable returned %d"
	.text
	.globl	main
	.type	main, @function
main:
.LFB986:
	.file 10 "src/client/usbnet.cpp"
	.loc 10 35 0
	.cfi_startproc
	.cfi_personality 0x9b,DW.ref.__gxx_personality_v0
	.cfi_lsda 0x1b,.LLSDA986
.LVL82:
	pushq	%r15
	.cfi_def_cfa_offset 16
	.cfi_offset 15, -16
	pushq	%r14
	.cfi_def_cfa_offset 24
	.cfi_offset 14, -24
	pushq	%r13
	.cfi_def_cfa_offset 32
	.cfi_offset 13, -32
	pushq	%r12
	.cfi_def_cfa_offset 40
	.cfi_offset 12, -40
	pushq	%rbp
	.cfi_def_cfa_offset 48
	.cfi_offset 6, -48
	pushq	%rbx
	.cfi_def_cfa_offset 56
	.cfi_offset 3, -56
	subq	$904, %rsp
	.cfi_def_cfa_offset 960
	movl	%edi, %ebx
	movq	%rsi, %rbp
	.loc 10 35 0
	movq	%fs:40, %rax
	movq	%rax, 888(%rsp)
	xorl	%eax, %eax
	.loc 10 37 0
	leaq	720(%rsp), %rdi
.LVL83:
	movl	$0, %edx
	movl	$-1, %esi
.LVL84:
.LEHB0:
	call	_ZN12ClientSocketC1EiNS_4AuthE@PLT
.LVL85:
.LEHE0:
	.loc 10 38 0
	leaq	256(%rsp), %rdx
	leaq	304(%rsp), %rdi
	leaq	.LC1(%rip), %rsi
.LEHB1:
	call	_ZNSt7__cxx1112basic_stringIcSt11char_traitsIcESaIcEEC1EPKcRKS3_@PLT
.LVL86:
.LEHE1:
.LBB2304:
.LBB2305:
.LBB2306:
	.loc 2 109 0 discriminator 1
	leaq	352(%rsp), %rax
.LVL87:
	movq	%rax, 336(%rsp)
.LVL88:
.LBE2306:
.LBE2305:
.LBB2307:
.LBB2308:
.LBB2309:
	.loc 2 131 0 discriminator 1
	movq	$0, 344(%rsp)
.LVL89:
.LBE2309:
.LBE2308:
.LBB2310:
.LBB2311:
	.file 11 "/usr/include/c++/5/bits/char_traits.h"
	.loc 11 243 0 discriminator 1
	movb	$0, 352(%rsp)
.LVL90:
.LBE2311:
.LBE2310:
.LBE2307:
.LBE2304:
	.loc 10 38 0 discriminator 1
	leaq	256(%rsp), %rdx
	leaq	368(%rsp), %rdi
	leaq	.LC2(%rip), %rsi
.LEHB2:
	call	_ZNSt7__cxx1112basic_stringIcSt11char_traitsIcESaIcEEC1EPKcRKS3_@PLT
.LVL91:
.LEHE2:
.LBB2312:
.LBB2313:
.LBB2314:
	.loc 2 109 0 discriminator 4
	leaq	416(%rsp), %rax
.LVL92:
	movq	%rax, 400(%rsp)
.LVL93:
.LBE2314:
.LBE2313:
.LBB2315:
.LBB2316:
.LBB2317:
	.loc 2 131 0 discriminator 4
	movq	$0, 408(%rsp)
.LVL94:
.LBE2317:
.LBE2316:
.LBB2318:
.LBB2319:
	.loc 11 243 0 discriminator 4
	movb	$0, 416(%rsp)
.LVL95:
.LBE2319:
.LBE2318:
.LBE2315:
.LBE2312:
	.loc 10 42 0 discriminator 4
	leaq	800(%rsp), %rdi
	movq	%rbp, %rdx
	movl	%ebx, %esi
.LEHB3:
	call	_ZN8CmdFlagsC1EiPPc@PLT
.LVL96:
.LEHE3:
.LBB2320:
.LBB2321:
.LBB2322:
.LBB2323:
	.loc 1 30 0
	movl	$104, 16(%rsp)
	leaq	.LC3(%rip), %rax
	movq	%rax, 24(%rsp)
	leaq	.LC4(%rip), %rax
	movq	%rax, 32(%rsp)
	leaq	.LC5(%rip), %rax
	movq	%rax, 40(%rsp)
	movb	$1, 48(%rsp)
.LVL97:
.LBE2323:
.LBE2322:
	.loc 1 57 0
	leaq	16(%rsp), %rsi
	leaq	832(%rsp), %rdi
.LEHB4:
	call	_ZNSt6vectorI6OptionSaIS0_EE9push_backERKS0_@PLT
.LVL98:
.LBE2321:
.LBE2320:
.LBB2324:
.LBB2325:
.LBB2326:
.LBB2327:
	.loc 1 30 0
	movl	$97, 64(%rsp)
	leaq	.LC6(%rip), %rax
	movq	%rax, 72(%rsp)
	leaq	.LC7(%rip), %rax
	movq	%rax, 80(%rsp)
	leaq	.LC8(%rip), %rax
	movq	%rax, 88(%rsp)
	movb	$1, 96(%rsp)
.LVL99:
.LBE2327:
.LBE2326:
	.loc 1 57 0
	leaq	64(%rsp), %rsi
	leaq	832(%rsp), %rdi
	call	_ZNSt6vectorI6OptionSaIS0_EE9push_backERKS0_@PLT
.LVL100:
.LBE2325:
.LBE2324:
.LBB2328:
.LBB2329:
.LBB2330:
.LBB2331:
	.loc 1 30 0
	movl	$108, 112(%rsp)
	leaq	.LC9(%rip), %rax
	movq	%rax, 120(%rsp)
	leaq	.LC10(%rip), %rax
	movq	%rax, 128(%rsp)
	leaq	.LC2(%rip), %rax
	movq	%rax, 136(%rsp)
	movb	$1, 144(%rsp)
.LVL101:
.LBE2331:
.LBE2330:
	.loc 1 57 0
	leaq	112(%rsp), %rsi
	leaq	832(%rsp), %rdi
	call	_ZNSt6vectorI6OptionSaIS0_EE9push_backERKS0_@PLT
.LVL102:
.LBE2329:
.LBE2328:
.LBB2332:
.LBB2333:
.LBB2334:
.LBB2335:
	.loc 1 30 0
	movl	$116, 160(%rsp)
	leaq	.LC11(%rip), %rax
	movq	%rax, 168(%rsp)
	leaq	.LC12(%rip), %rax
	movq	%rax, 176(%rsp)
	leaq	.LC13(%rip), %rax
	movq	%rax, 184(%rsp)
	movb	$1, 192(%rsp)
.LVL103:
.LBE2335:
.LBE2334:
	.loc 1 57 0
	leaq	160(%rsp), %rsi
	leaq	832(%rsp), %rdi
	call	_ZNSt6vectorI6OptionSaIS0_EE9push_backERKS0_@PLT
.LVL104:
.LBE2333:
.LBE2332:
.LBB2336:
.LBB2337:
.LBB2338:
.LBB2339:
	.loc 1 30 0
	movl	$113, 208(%rsp)
	leaq	.LC14(%rip), %rax
	movq	%rax, 216(%rsp)
	leaq	.LC15(%rip), %rax
	movq	%rax, 224(%rsp)
	leaq	.LC8(%rip), %rax
	movq	%rax, 232(%rsp)
	movb	$0, 240(%rsp)
.LVL105:
.LBE2339:
.LBE2338:
	.loc 1 57 0
	leaq	208(%rsp), %rsi
	leaq	832(%rsp), %rdi
	call	_ZNSt6vectorI6OptionSaIS0_EE9push_backERKS0_@PLT
.LVL106:
.LBE2337:
.LBE2336:
.LBB2340:
.LBB2341:
.LBB2342:
.LBB2343:
	.loc 1 30 0
	movl	$63, 256(%rsp)
	leaq	.LC16(%rip), %rax
	movq	%rax, 264(%rsp)
	leaq	.LC17(%rip), %rax
	movq	%rax, 272(%rsp)
	leaq	.LC8(%rip), %rax
	movq	%rax, 280(%rsp)
	movb	$0, 288(%rsp)
.LVL107:
.LBE2343:
.LBE2342:
	.loc 1 57 0
	leaq	256(%rsp), %rsi
	leaq	832(%rsp), %rdi
	call	_ZNSt6vectorI6OptionSaIS0_EE9push_backERKS0_@PLT
.LVL108:
.LBE2341:
.LBE2340:
	.loc 10 50 0
	leaq	256(%rsp), %rdx
	leaq	432(%rsp), %rdi
	leaq	.LC18(%rip), %rsi
	call	_ZNSt7__cxx1112basic_stringIcSt11char_traitsIcESaIcEEC1EPKcRKS3_@PLT
.LVL109:
.LEHE4:
.LBB2344:
.LBB2345:
.LBB2346:
.LBB2347:
	.loc 2 1095 0
	leaq	432(%rsp), %rsi
.LVL110:
	leaq	856(%rsp), %rdi
.LVL111:
.LEHB5:
	call	_ZNSt7__cxx1112basic_stringIcSt11char_traitsIcESaIcEE9_M_assignERKS4_@PLT
.LVL112:
.LEHE5:
.LBE2347:
.LBE2346:
.LBE2345:
.LBE2344:
.LBB2348:
.LBB2349:
.LBB2350:
.LBB2351:
.LBB2352:
.LBB2353:
	.loc 2 135 0
	movq	432(%rsp), %rdi
.LVL113:
.LBE2353:
.LBE2352:
.LBE2351:
	.loc 2 179 0
	leaq	448(%rsp), %rax
	cmpq	%rax, %rdi
	je	.L39
.LVL114:
.LBB2354:
.LBB2355:
.LBB2356:
.LBB2357:
	.loc 3 110 0
	call	_ZdlPv@PLT
.LVL115:
.L39:
.LBE2357:
.LBE2356:
.LBE2355:
.LBE2354:
.LBE2350:
.LBE2349:
.LBE2348:
	.loc 10 53 0
	leaq	624(%rsp), %rdi
	leaq	800(%rsp), %rsi
.LEHB6:
	call	_ZN8CmdFlags6getoptB5cxx11Ev@PLT
.LVL116:
.LEHE6:
	.loc 10 54 0
	movl	624(%rsp), %edx
	testl	%edx, %edx
	js	.L108
	movl	$1000, %ebp
.LVL117:
	movl	$22222, %r12d
.LBB2358:
.LBB2359:
.LBB2360:
	.loc 2 1095 0
	leaq	632(%rsp), %rbx
.LVL118:
.LBE2360:
.LBE2359:
.LBE2358:
	.loc 10 62 0
	leaq	464(%rsp), %r13
.LBB2363:
.LBB2364:
.LBB2365:
	.loc 2 179 0
	leaq	16(%r13), %r14
.LVL119:
.L53:
.LBE2365:
.LBE2364:
.LBE2363:
	.loc 10 57 0
	cmpl	$104, %edx
	je	.L42
	cmpl	$104, %edx
	jg	.L43
	cmpl	$63, %edx
	je	.L44
	cmpl	$97, %edx
	je	.L45
	testl	%edx, %edx
	jne	.L41
	jmp	.L46
.L43:
	cmpl	$113, %edx
	je	.L47
	cmpl	$116, %edx
	je	.L48
	cmpl	$108, %edx
	jne	.L41
	jmp	.L49
.L42:
.LVL120:
.LBB2375:
.LBB2362:
.LBB2361:
	.loc 2 1095 0
	leaq	304(%rsp), %rdi
.LVL121:
	movq	%rbx, %rsi
.LEHB7:
	call	_ZNSt7__cxx1112basic_stringIcSt11char_traitsIcESaIcEE9_M_assignERKS4_@PLT
.LVL122:
.LBE2361:
.LBE2362:
.LBE2375:
	.loc 10 60 0
	leaq	304(%rsp), %rdi
	movl	$0, %edx
	movl	$58, %esi
	call	_ZNKSt7__cxx1112basic_stringIcSt11char_traitsIcESaIcEE4findEcm@PLT
.LVL123:
	movq	%rax, %r15
.LVL124:
	.loc 10 61 0
	cmpl	$-1, %eax
	je	.L41
	.loc 10 62 0
	leal	1(%rax), %edx
	movslq	%edx, %rdx
	leaq	304(%rsp), %rsi
	movq	$-1, %rcx
	movq	%r13, %rdi
	call	_ZNKSt7__cxx1112basic_stringIcSt11char_traitsIcESaIcEE6substrEmm@PLT
.LVL125:
.LBB2376:
.LBB2377:
	.file 12 "/usr/include/stdlib.h"
	.loc 12 280 0
	movl	$10, %edx
	movl	$0, %esi
	movq	464(%rsp), %rdi
	call	strtol@PLT
.LVL126:
	movl	%eax, %r12d
.LVL127:
.LBE2377:
.LBE2376:
.LBB2378:
.LBB2374:
.LBB2373:
.LBB2366:
.LBB2367:
.LBB2368:
	.loc 2 135 0
	movq	464(%rsp), %rdi
.LVL128:
.LBE2368:
.LBE2367:
.LBE2366:
	.loc 2 179 0
	cmpq	%r14, %rdi
	je	.L50
.LVL129:
.LBB2369:
.LBB2370:
.LBB2371:
.LBB2372:
	.loc 3 110 0
	call	_ZdlPv@PLT
.LVL130:
.L50:
.LBE2372:
.LBE2371:
.LBE2370:
.LBE2369:
.LBE2373:
.LBE2374:
.LBE2378:
	.loc 10 63 0
	movslq	%r15d, %rsi
	leaq	304(%rsp), %rdi
	movq	$-1, %rdx
	call	_ZNSt7__cxx1112basic_stringIcSt11char_traitsIcESaIcEE5eraseEmm@PLT
.LVL131:
	jmp	.L41
.LVL132:
.L45:
.LBB2379:
.LBB2380:
.LBB2381:
	.loc 2 1095 0
	leaq	336(%rsp), %rdi
.LVL133:
	movq	%rbx, %rsi
	call	_ZNSt7__cxx1112basic_stringIcSt11char_traitsIcESaIcEE9_M_assignERKS4_@PLT
.LVL134:
	jmp	.L41
.LVL135:
.L49:
.LBE2381:
.LBE2380:
.LBE2379:
.LBB2382:
.LBB2383:
.LBB2384:
	leaq	368(%rsp), %rdi
.LVL136:
	movq	%rbx, %rsi
	call	_ZNSt7__cxx1112basic_stringIcSt11char_traitsIcESaIcEE9_M_assignERKS4_@PLT
.LVL137:
	jmp	.L41
.LVL138:
.L48:
.LBE2384:
.LBE2383:
.LBE2382:
.LBB2385:
.LBB2386:
	.loc 12 280 0
	movl	$10, %edx
	movl	$0, %esi
	movq	632(%rsp), %rdi
	call	strtol@PLT
.LVL139:
	movl	%eax, %ebp
.LVL140:
.LBE2386:
.LBE2385:
	.loc 10 68 0
	jmp	.L41
.LVL141:
.L47:
	.loc 10 69 0
	movl	$1, %edi
	call	log_setlevel@PLT
.LVL142:
	jmp	.L41
.L44:
	.loc 10 71 0
	leaq	800(%rsp), %rdi
	call	_ZN8CmdFlags9printHelpEv@PLT
.LVL143:
	jmp	.L129
.L46:
.LVL144:
.LBB2387:
.LBB2388:
.LBB2389:
	.loc 2 1095 0
	leaq	400(%rsp), %rdi
.LVL145:
	movq	%rbx, %rsi
	call	_ZNSt7__cxx1112basic_stringIcSt11char_traitsIcESaIcEE9_M_assignERKS4_@PLT
.LVL146:
.L41:
.LBE2389:
.LBE2388:
.LBE2387:
	.loc 10 82 0
	leaq	672(%rsp), %rdi
	leaq	800(%rsp), %rsi
	call	_ZN8CmdFlags6getoptB5cxx11Ev@PLT
.LVL147:
.LEHE7:
.LBB2390:
.LBB2391:
	.file 13 "/usr/include/c++/5/bits/stl_pair.h"
	.loc 13 96 0
	movl	672(%rsp), %eax
	movl	%eax, 624(%rsp)
.LVL148:
.LBB2392:
.LBB2393:
.LBB2394:
	.loc 2 1095 0
	leaq	680(%rsp), %rsi
.LVL149:
	movq	%rbx, %rdi
.LEHB8:
	call	_ZNSt7__cxx1112basic_stringIcSt11char_traitsIcESaIcEE9_M_assignERKS4_@PLT
.LVL150:
.LEHE8:
.LBE2394:
.LBE2393:
.LBE2392:
.LBE2391:
.LBE2390:
.LBB2395:
.LBB2396:
.LBB2397:
.LBB2398:
.LBB2399:
.LBB2400:
.LBB2401:
	.loc 2 135 0
	movq	680(%rsp), %rdi
.LVL151:
.LBE2401:
.LBE2400:
.LBE2399:
	.loc 2 179 0
	leaq	696(%rsp), %rax
	cmpq	%rax, %rdi
	je	.L52
.LVL152:
.LBB2402:
.LBB2403:
.LBB2404:
.LBB2405:
	.loc 3 110 0
	call	_ZdlPv@PLT
.LVL153:
.L52:
.LBE2405:
.LBE2404:
.LBE2403:
.LBE2402:
.LBE2398:
.LBE2397:
.LBE2396:
.LBE2395:
	.loc 10 54 0
	movl	624(%rsp), %edx
	testl	%edx, %edx
	jns	.L53
	jmp	.L40
.LVL154:
.L108:
	movl	$1000, %ebp
.LVL155:
	movl	$22222, %r12d
.LVL156:
.L40:
	.loc 10 86 0
	cmpq	$0, 408(%rsp)
	jne	.L54
	.loc 10 87 0
	leaq	800(%rsp), %rdi
.LEHB9:
	call	_ZN8CmdFlags9printHelpEv@PLT
.LVL157:
	jmp	.L130
.L54:
	.loc 10 92 0
	cmpq	$0, 344(%rsp)
	je	.L55
	.loc 10 93 0
	leaq	720(%rsp), %rdi
	movl	$1, %esi
	call	_ZN12ClientSocket9setMethodENS_4AuthE@PLT
.LVL158:
	.loc 10 94 0
	leaq	720(%rsp), %rdi
	movl	%ebp, %esi
	call	_ZN12ClientSocket10setTimeoutEi@PLT
.LVL159:
.LBB2406:
.LBB2407:
.LBB2408:
	.loc 2 109 0
	leaq	512(%rsp), %rax
.LVL160:
	movq	%rax, 496(%rsp)
.LVL161:
.LBE2408:
.LBE2407:
.LBB2409:
.LBB2410:
	.loc 2 135 0
	movq	336(%rsp), %rbp
.LVL162:
.LBE2410:
.LBE2409:
.LBB2411:
.LBB2412:
	.loc 2 722 0
	movq	344(%rsp), %rbx
.LVL163:
.LBE2412:
.LBE2411:
.LBB2413:
.LBB2414:
.LBB2415:
.LBB2416:
.LBB2417:
.LBB2418:
	.file 14 "/usr/include/c++/5/bits/basic_string.tcc"
	.loc 14 215 0
	testq	%rbp, %rbp
	jne	.L56
	testq	%rbx, %rbx
	je	.L56
	.loc 14 216 0
	leaq	.LC19(%rip), %rdi
	call	_ZSt19__throw_logic_errorPKc@PLT
.LVL164:
.L56:
	.loc 14 219 0
	movq	%rbx, 8(%rsp)
	.loc 14 221 0
	cmpq	$15, %rbx
	jbe	.L57
	.loc 14 223 0
	leaq	8(%rsp), %rsi
	leaq	496(%rsp), %rdi
.LVL165:
	movl	$0, %edx
	call	_ZNSt7__cxx1112basic_stringIcSt11char_traitsIcESaIcEE9_M_createERmm@PLT
.LVL166:
.LEHE9:
.LBB2419:
.LBB2420:
	.loc 2 127 0
	movq	%rax, 496(%rsp)
.LVL167:
.LBE2420:
.LBE2419:
.LBB2421:
.LBB2422:
	.loc 2 159 0
	movq	8(%rsp), %rax
	movq	%rax, 512(%rsp)
.LVL168:
.L57:
.LBE2422:
.LBE2421:
.LBB2423:
.LBB2424:
	.loc 2 135 0
	movq	496(%rsp), %rdi
.LVL169:
.LBE2424:
.LBE2423:
.LBB2425:
.LBB2426:
.LBB2427:
	.loc 2 296 0
	cmpq	$1, %rbx
	jne	.L58
.LVL170:
.LBB2428:
.LBB2429:
	.loc 11 243 0
	movzbl	0(%rbp), %eax
	movb	%al, (%rdi)
	jmp	.L59
.LVL171:
.L58:
.LBE2429:
.LBE2428:
.LBB2430:
.LBB2431:
	.loc 11 288 0
	testq	%rbx, %rbx
	je	.L59
	.loc 11 290 0
	movq	%rbx, %rdx
	movq	%rbp, %rsi
	call	memcpy@PLT
.LVL172:
.L59:
.LBE2431:
.LBE2430:
.LBE2427:
.LBE2426:
.LBE2425:
	.loc 14 236 0
	movq	8(%rsp), %rax
.LVL173:
.LBB2432:
.LBB2433:
.LBB2434:
.LBB2435:
	.loc 2 131 0
	movq	%rax, 504(%rsp)
.LVL174:
.LBE2435:
.LBE2434:
.LBB2436:
.LBB2437:
	.loc 11 243 0
	movq	496(%rsp), %rdx
	movb	$0, (%rdx,%rax)
.LVL175:
.LBE2437:
.LBE2436:
.LBE2433:
.LBE2432:
.LBE2418:
.LBE2417:
.LBE2416:
.LBE2415:
.LBE2414:
.LBE2413:
.LBE2406:
	.loc 10 95 0
	leaq	496(%rsp), %rsi
	leaq	720(%rsp), %rdi
.LEHB10:
	call	_ZN12ClientSocket14setCredentialsENSt7__cxx1112basic_stringIcSt11char_traitsIcESaIcEEE@PLT
.LVL176:
.LEHE10:
	movl	%eax, %ebx
.LVL177:
.LBB2438:
.LBB2439:
.LBB2440:
.LBB2441:
.LBB2442:
.LBB2443:
	.loc 2 135 0
	movq	496(%rsp), %rdi
.LVL178:
.LBE2443:
.LBE2442:
.LBE2441:
	.loc 2 179 0
	leaq	512(%rsp), %rax
	cmpq	%rax, %rdi
	je	.L60
.LVL179:
.LBB2444:
.LBB2445:
.LBB2446:
.LBB2447:
	.loc 3 110 0
	call	_ZdlPv@PLT
.LVL180:
.L60:
.LBE2447:
.LBE2446:
.LBE2445:
.LBE2444:
.LBE2440:
.LBE2439:
.LBE2438:
	.loc 10 95 0
	testb	%bl, %bl
	jne	.L55
.LEHB11:
	.loc 10 96 0
	call	log_level@PLT
.LVL181:
	testb	$1, %al
	je	.L61
.LVL182:
.LBB2448:
.LBB2449:
	.file 15 "/usr/include/x86_64-linux-gnu/bits/stdio2.h"
	.loc 15 98 0
	movq	336(%rsp), %rcx
	leaq	.LC20(%rip), %rdx
	movl	$1, %esi
	movq	stderr@GOTPCREL(%rip), %rax
.LVL183:
	movq	(%rax), %rdi
	movl	$0, %eax
.LVL184:
	call	__fprintf_chk@PLT
.LVL185:
.LBE2449:
.LBE2448:
	.loc 10 96 0
	movq	stderr@GOTPCREL(%rip), %rax
.LVL186:
.LBB2450:
.LBB2451:
	.loc 15 98 0
	movq	(%rax), %rsi
	movl	$10, %edi
	call	fputc@PLT
.LVL187:
.L61:
.LBE2451:
.LBE2450:
	.loc 10 97 0
	leaq	800(%rsp), %rdi
	call	_ZN8CmdFlags9printHelpEv@PLT
.LVL188:
	jmp	.L131
.LVL189:
.L55:
	.loc 10 104 0
	call	log_level@PLT
.LVL190:
	testb	$2, %al
	je	.L62
.LVL191:
.LBB2452:
.LBB2453:
	.loc 15 104 0
	movl	%r12d, %ecx
	movq	304(%rsp), %rdx
	leaq	.LC21(%rip), %rsi
	movl	$1, %edi
	movl	$0, %eax
	call	__printf_chk@PLT
.LVL192:
.LBE2453:
.LBE2452:
.LBB2454:
.LBB2455:
	movl	$10, %edi
	call	putchar@PLT
.LVL193:
.L62:
.LBE2455:
.LBE2454:
	.loc 10 105 0
	leaq	256(%rsp), %rdx
	leaq	528(%rsp), %rdi
	movq	304(%rsp), %rsi
	call	_ZNSt7__cxx1112basic_stringIcSt11char_traitsIcESaIcEEC1EPKcRKS3_@PLT
.LVL194:
.LEHE11:
	.loc 10 105 0 is_stmt 0 discriminator 4
	leaq	528(%rsp), %rsi
	leaq	720(%rsp), %rdi
	movl	%r12d, %edx
.LEHB12:
	call	_ZN12ClientSocket7connectENSt7__cxx1112basic_stringIcSt11char_traitsIcESaIcEEEi@PLT
.LVL195:
.LEHE12:
	movl	%eax, %ebx
.LVL196:
.LBB2456:
.LBB2457:
.LBB2458:
.LBB2459:
.LBB2460:
.LBB2461:
	.loc 2 135 0 is_stmt 1 discriminator 4
	movq	528(%rsp), %rdi
.LVL197:
.LBE2461:
.LBE2460:
.LBE2459:
	.loc 2 179 0 discriminator 4
	leaq	544(%rsp), %rax
	cmpq	%rax, %rdi
	je	.L63
.LVL198:
.LBB2462:
.LBB2463:
.LBB2464:
.LBB2465:
	.loc 3 110 0
	call	_ZdlPv@PLT
.LVL199:
.L63:
.LBE2465:
.LBE2464:
.LBE2463:
.LBE2462:
.LBE2458:
.LBE2457:
.LBE2456:
	.loc 10 105 0
	testl	%ebx, %ebx
	je	.L64
.LEHB13:
	.loc 10 106 0
	call	log_level@PLT
.LVL200:
	testb	$1, %al
	je	.L65
.LVL201:
	.loc 10 106 0 discriminator 2
	movq	stderr@GOTPCREL(%rip), %rax
.LVL202:
.LBB2466:
.LBB2467:
	.loc 15 98 0 discriminator 2
	movq	(%rax), %rcx
	movl	$26, %edx
	movl	$1, %esi
	leaq	.LC22(%rip), %rdi
	call	fwrite@PLT
.LVL203:
.LBE2467:
.LBE2466:
	.loc 10 106 0
	movq	stderr@GOTPCREL(%rip), %rax
.LVL204:
.LBB2468:
.LBB2469:
	.loc 15 98 0
	movq	(%rax), %rsi
	movl	$10, %edi
	call	fputc@PLT
.LVL205:
.L65:
.LBE2469:
.LBE2468:
	.loc 10 107 0
	leaq	720(%rsp), %rdi
	call	_ZN12ClientSocket5closeEv@PLT
.LVL206:
	jmp	.L132
.L64:
	.loc 10 112 0
	movl	$1, 4(%rsp)
	.loc 10 113 0
	leaq	4(%rsp), %rcx
	movl	$4, %r8d
	movl	$1, %edx
	movl	$6, %esi
	movl	736(%rsp), %edi
	call	setsockopt@PLT
.LVL207:
	.loc 10 116 0
	call	ipc_init@PLT
.LVL208:
	movl	%eax, %ebp
.LVL209:
	.loc 10 117 0
	cmpl	$-1, %eax
	je	.L113
	.loc 10 122 0
	movl	736(%rsp), %edi
	call	ipc_set_remote@PLT
.LVL210:
.LBB2470:
	.loc 10 125 0
	leaq	256(%rsp), %rdx
	leaq	560(%rsp), %rdi
	leaq	.LC23(%rip), %rsi
	call	_ZNSt7__cxx1112basic_stringIcSt11char_traitsIcESaIcEEC1EPKcRKS3_@PLT
.LVL211:
.LEHE13:
.LBB2471:
.LBB2472:
	.loc 2 983 0 discriminator 1
	leaq	560(%rsp), %rdi
.LVL212:
	movq	376(%rsp), %rdx
	movq	368(%rsp), %rsi
.LEHB14:
	call	_ZNSt7__cxx1112basic_stringIcSt11char_traitsIcESaIcEE9_M_appendEPKcm@PLT
.LVL213:
.LBE2472:
.LBE2471:
	.loc 10 127 0
	leaq	560(%rsp), %rdi
	leaq	.LC24(%rip), %rsi
	call	_ZNSt7__cxx1112basic_stringIcSt11char_traitsIcESaIcEE6appendEPKc@PLT
.LVL214:
.LBB2473:
.LBB2474:
	.loc 2 983 0
	leaq	560(%rsp), %rdi
.LVL215:
	movq	408(%rsp), %rdx
	movq	400(%rsp), %rsi
	call	_ZNSt7__cxx1112basic_stringIcSt11char_traitsIcESaIcEE9_M_appendEPKcm@PLT
.LVL216:
.LBE2474:
.LBE2473:
	.loc 10 129 0
	call	log_level@PLT
.LVL217:
	testb	$2, %al
	je	.L66
.LVL218:
.LBB2475:
.LBB2476:
	.loc 15 104 0
	movq	560(%rsp), %rdx
	leaq	.LC25(%rip), %rsi
	movl	$1, %edi
	movl	$0, %eax
	call	__printf_chk@PLT
.LVL219:
.LBE2476:
.LBE2475:
.LBB2477:
.LBB2478:
	movl	$10, %edi
	call	putchar@PLT
.LVL220:
.LEHE14:
.L66:
.LBE2478:
.LBE2477:
.LBB2479:
.LBB2480:
.LBB2481:
.LBB2482:
.LBB2483:
	.loc 2 109 0
	leaq	672(%rsp), %rdi
.LVL221:
	leaq	16(%rdi), %rax
	movq	%rax, 672(%rsp)
.LVL222:
.LBE2483:
.LBE2482:
.LBB2484:
.LBB2485:
.LBB2486:
	.loc 2 131 0
	movq	$0, 680(%rsp)
.LVL223:
.LBE2486:
.LBE2485:
.LBB2487:
.LBB2488:
	.loc 11 243 0
	movb	$0, 688(%rsp)
.LVL224:
.LBE2488:
.LBE2487:
.LBE2484:
.LBE2481:
	.loc 14 1159 0
	movq	568(%rsp), %rax
	leaq	11(%rax), %rsi
.LEHB15:
	call	_ZNSt7__cxx1112basic_stringIcSt11char_traitsIcESaIcEE7reserveEm@PLT
.LVL225:
.LBB2489:
.LBB2490:
.LBB2491:
.LBB2492:
	.loc 2 270 0
	movabsq	$9223372036854775807, %rax
	subq	680(%rsp), %rax
	cmpq	$10, %rax
	ja	.L67
	.loc 2 271 0
	leaq	.LC26(%rip), %rdi
	call	_ZSt20__throw_length_errorPKc@PLT
.LVL226:
.L67:
.LBE2492:
.LBE2491:
	.loc 2 1015 0
	leaq	672(%rsp), %rdi
.LVL227:
	movl	$11, %edx
	leaq	.LC27(%rip), %rsi
	call	_ZNSt7__cxx1112basic_stringIcSt11char_traitsIcESaIcEE9_M_appendEPKcm@PLT
.LVL228:
.LBE2490:
.LBE2489:
.LBB2493:
.LBB2494:
	.loc 2 983 0
	leaq	672(%rsp), %rdi
.LVL229:
	movq	568(%rsp), %rdx
	movq	560(%rsp), %rsi
	call	_ZNSt7__cxx1112basic_stringIcSt11char_traitsIcESaIcEE9_M_appendEPKcm@PLT
.LVL230:
.LEHE15:
	jmp	.L133
.LVL231:
.L127:
	movq	%rax, %rbx
.LVL232:
.LBE2494:
.LBE2493:
.LBB2495:
.LBB2496:
.LBB2497:
.LBB2498:
.LBB2499:
.LBB2500:
	.loc 2 135 0
	movq	672(%rsp), %rdi
.LVL233:
.LBE2500:
.LBE2499:
.LBE2498:
	.loc 2 179 0
	leaq	688(%rsp), %rax
	cmpq	%rax, %rdi
	je	.L71
.LVL234:
.LBB2501:
.LBB2502:
.LBB2503:
.LBB2504:
	.loc 3 110 0
	call	_ZdlPv@PLT
.LVL235:
	jmp	.L71
.LVL236:
.L133:
.LBE2504:
.LBE2503:
.LBE2502:
.LBE2501:
.LBE2497:
.LBE2496:
.LBE2495:
.LBE2480:
.LBE2479:
.LBB2505:
.LBB2506:
.LBB2507:
.LBB2508:
	.loc 2 109 0
	leaq	592(%rsp), %rdi
.LVL237:
	leaq	16(%rdi), %rax
	movq	%rax, 592(%rsp)
.LVL238:
.LBE2508:
.LBE2507:
	.loc 2 466 0
	movl	$45, %edx
	movq	680(%rsp), %rsi
.LEHB16:
	call	_ZNSt7__cxx1112basic_stringIcSt11char_traitsIcESaIcEE12_M_constructEmc@PLT
.LVL239:
.LEHE16:
.LBE2506:
.LBE2505:
.LBB2509:
.LBB2510:
.LBB2511:
	.loc 2 1095 0
	leaq	592(%rsp), %rsi
.LVL240:
	leaq	672(%rsp), %rdi
.LVL241:
.LEHB17:
	call	_ZNSt7__cxx1112basic_stringIcSt11char_traitsIcESaIcEE9_M_assignERKS4_@PLT
.LVL242:
.LEHE17:
.LBE2511:
.LBE2510:
.LBE2509:
.LBB2512:
.LBB2513:
.LBB2514:
.LBB2515:
.LBB2516:
.LBB2517:
	.loc 2 135 0
	movq	592(%rsp), %rdi
.LVL243:
.LBE2517:
.LBE2516:
.LBE2515:
	.loc 2 179 0
	leaq	608(%rsp), %rax
	cmpq	%rax, %rdi
	je	.L72
.LVL244:
.LBB2518:
.LBB2519:
.LBB2520:
.LBB2521:
	.loc 3 110 0
	call	_ZdlPv@PLT
.LVL245:
.L72:
.LEHB18:
.LBE2521:
.LBE2520:
.LBE2519:
.LBE2518:
.LBE2514:
.LBE2513:
.LBE2512:
	.loc 10 132 0
	call	log_level@PLT
.LVL246:
	testb	$2, %al
	je	.L73
.LVL247:
.LBB2522:
.LBB2523:
	.loc 15 104 0
	movq	672(%rsp), %rdx
	leaq	.LC28(%rip), %rsi
	movl	$1, %edi
	movl	$0, %eax
	call	__printf_chk@PLT
.LVL248:
.LBE2523:
.LBE2522:
.LBB2524:
.LBB2525:
	movl	$10, %edi
	call	putchar@PLT
.LVL249:
.L73:
.LBE2525:
.LBE2524:
	.loc 10 134 0
	movq	560(%rsp), %rdi
	call	system@PLT
.LVL250:
	movl	%eax, %ebx
.LVL251:
	.loc 10 135 0
	call	log_level@PLT
.LVL252:
	.loc 10 135 0 is_stmt 0 discriminator 2
	testb	$2, %al
	je	.L74
.LVL253:
.LBB2526:
.LBB2527:
	.loc 15 104 0 is_stmt 1
	movq	672(%rsp), %rdx
	leaq	.LC29(%rip), %rsi
	movl	$1, %edi
	movl	$0, %eax
	call	__printf_chk@PLT
.LVL254:
.LBE2527:
.LBE2526:
.LBB2528:
.LBB2529:
	movl	$10, %edi
	call	putchar@PLT
.LVL255:
.L74:
.LBE2529:
.LBE2528:
	.loc 10 136 0
	call	log_level@PLT
.LVL256:
	testb	$2, %al
	je	.L75
.LVL257:
.LBB2530:
.LBB2531:
	.loc 15 104 0
	movl	%ebx, %edx
	leaq	.LC30(%rip), %rsi
	movl	$1, %edi
	movl	$0, %eax
	call	__printf_chk@PLT
.LVL258:
.LBE2531:
.LBE2530:
.LBB2532:
.LBB2533:
	movl	$10, %edi
	call	putchar@PLT
.LVL259:
.L75:
.LBE2533:
.LBE2532:
	.loc 10 139 0
	movl	%ebp, %edi
	call	ipc_teardown@PLT
.LVL260:
	.loc 10 142 0
	leaq	720(%rsp), %rdi
	call	_ZN12ClientSocket5closeEv@PLT
.LVL261:
.LEHE18:
	.loc 10 146 0
	testl	%eax, %eax
	movl	$1, %eax
	cmovne	%eax, %ebx
.LVL262:
.LBB2534:
.LBB2535:
.LBB2536:
.LBB2537:
.LBB2538:
.LBB2539:
.LBB2540:
	.loc 2 135 0
	movq	672(%rsp), %rdi
.LVL263:
.LBE2540:
.LBE2539:
.LBE2538:
	.loc 2 179 0
	leaq	688(%rsp), %rax
	cmpq	%rax, %rdi
	je	.L77
.LVL264:
.LBB2541:
.LBB2542:
.LBB2543:
.LBB2544:
	.loc 3 110 0
	call	_ZdlPv@PLT
.LVL265:
.L77:
.LBE2544:
.LBE2543:
.LBE2542:
.LBE2541:
.LBE2537:
.LBE2536:
.LBE2535:
.LBE2534:
.LBB2545:
.LBB2546:
.LBB2547:
.LBB2548:
.LBB2549:
.LBB2550:
.LBB2551:
	.loc 2 135 0
	movq	560(%rsp), %rdi
.LVL266:
.LBE2551:
.LBE2550:
.LBE2549:
	.loc 2 179 0
	leaq	576(%rsp), %rax
	cmpq	%rax, %rdi
	je	.L51
.LVL267:
.LBB2552:
.LBB2553:
.LBB2554:
.LBB2555:
	.loc 3 110 0
	call	_ZdlPv@PLT
.LVL268:
	jmp	.L51
.LVL269:
.L129:
.LBE2555:
.LBE2554:
.LBE2553:
.LBE2552:
.LBE2548:
.LBE2547:
.LBE2546:
.LBE2545:
.LBE2470:
	.loc 10 72 0
	movl	$0, %ebx
	jmp	.L51
.LVL270:
.L130:
	.loc 10 88 0
	movl	$1, %ebx
	jmp	.L51
.LVL271:
.L131:
	.loc 10 98 0
	movl	$1, %ebx
	jmp	.L51
.LVL272:
.L132:
	.loc 10 108 0
	movl	$1, %ebx
	jmp	.L51
.LVL273:
.L113:
	.loc 10 118 0
	movl	$1, %ebx
.LVL274:
.L51:
.LBB2588:
.LBB2589:
.LBB2590:
.LBB2591:
.LBB2592:
.LBB2593:
.LBB2594:
.LBB2595:
	.loc 2 135 0
	movq	632(%rsp), %rdi
.LVL275:
.LBE2595:
.LBE2594:
.LBE2593:
	.loc 2 179 0
	leaq	648(%rsp), %rax
	cmpq	%rax, %rdi
	je	.L79
.LVL276:
.LBB2596:
.LBB2597:
.LBB2598:
.LBB2599:
	.loc 3 110 0
	call	_ZdlPv@PLT
.LVL277:
.L79:
.LBE2599:
.LBE2598:
.LBE2597:
.LBE2596:
.LBE2592:
.LBE2591:
.LBE2590:
.LBE2589:
.LBE2588:
	.loc 10 42 0
	leaq	800(%rsp), %rdi
	call	_ZN8CmdFlagsD1Ev@PLT
.LVL278:
.LBB2600:
.LBB2601:
.LBB2602:
.LBB2603:
.LBB2604:
.LBB2605:
.LBB2606:
	.loc 2 135 0
	movq	400(%rsp), %rdi
.LVL279:
.LBE2606:
.LBE2605:
.LBE2604:
	.loc 2 179 0
	leaq	416(%rsp), %rax
	cmpq	%rax, %rdi
	je	.L80
.LVL280:
.LBB2607:
.LBB2608:
.LBB2609:
.LBB2610:
	.loc 3 110 0
	call	_ZdlPv@PLT
.LVL281:
.L80:
.LBE2610:
.LBE2609:
.LBE2608:
.LBE2607:
.LBE2603:
.LBE2602:
.LBE2601:
.LBE2600:
.LBB2611:
.LBB2612:
.LBB2613:
.LBB2614:
.LBB2615:
.LBB2616:
.LBB2617:
	.loc 2 135 0
	movq	368(%rsp), %rdi
.LVL282:
.LBE2617:
.LBE2616:
.LBE2615:
	.loc 2 179 0
	leaq	384(%rsp), %rax
	cmpq	%rax, %rdi
	je	.L81
.LVL283:
.LBB2618:
.LBB2619:
.LBB2620:
.LBB2621:
	.loc 3 110 0
	call	_ZdlPv@PLT
.LVL284:
.L81:
.LBE2621:
.LBE2620:
.LBE2619:
.LBE2618:
.LBE2614:
.LBE2613:
.LBE2612:
.LBE2611:
.LBB2622:
.LBB2623:
.LBB2624:
.LBB2625:
.LBB2626:
.LBB2627:
.LBB2628:
	.loc 2 135 0
	movq	336(%rsp), %rdi
.LVL285:
.LBE2628:
.LBE2627:
.LBE2626:
	.loc 2 179 0
	leaq	352(%rsp), %rax
	cmpq	%rax, %rdi
	je	.L82
.LVL286:
.LBB2629:
.LBB2630:
.LBB2631:
.LBB2632:
	.loc 3 110 0
	call	_ZdlPv@PLT
.LVL287:
.L82:
.LBE2632:
.LBE2631:
.LBE2630:
.LBE2629:
.LBE2625:
.LBE2624:
.LBE2623:
.LBE2622:
.LBB2633:
.LBB2634:
.LBB2635:
.LBB2636:
.LBB2637:
.LBB2638:
.LBB2639:
	.loc 2 135 0
	movq	304(%rsp), %rdi
.LVL288:
.LBE2639:
.LBE2638:
.LBE2637:
	.loc 2 179 0
	leaq	320(%rsp), %rax
	cmpq	%rax, %rdi
	je	.L83
.LVL289:
.LBB2640:
.LBB2641:
.LBB2642:
.LBB2643:
	.loc 3 110 0
	call	_ZdlPv@PLT
.LVL290:
.L83:
.LBE2643:
.LBE2642:
.LBE2641:
.LBE2640:
.LBE2636:
.LBE2635:
.LBE2634:
.LBE2633:
	.loc 10 37 0
	leaq	720(%rsp), %rdi
.LEHB19:
	call	_ZN12ClientSocketD1Ev@PLT
.LVL291:
.LEHE19:
	.loc 10 147 0
	movl	%ebx, %eax
	movq	888(%rsp), %rcx
	xorq	%fs:40, %rcx
	je	.L107
	jmp	.L134
.LVL292:
.L119:
	movq	%rax, %rbx
.LVL293:
.LBB2644:
.LBB2645:
.LBB2646:
.LBB2647:
.LBB2648:
.LBB2649:
	.loc 2 135 0
	movq	432(%rsp), %rdi
.LVL294:
.LBE2649:
.LBE2648:
.LBE2647:
	.loc 2 179 0
	leaq	448(%rsp), %rax
	cmpq	%rax, %rdi
	je	.L86
.LVL295:
.LBB2650:
.LBB2651:
.LBB2652:
.LBB2653:
	.loc 3 110 0
	call	_ZdlPv@PLT
.LVL296:
	jmp	.L86
.LVL297:
.L121:
	movq	%rax, %rbx
.LVL298:
.LBE2653:
.LBE2652:
.LBE2651:
.LBE2650:
.LBE2646:
.LBE2645:
.LBE2644:
.LBB2654:
.LBB2655:
.LBB2656:
.LBB2657:
.LBB2658:
.LBB2659:
.LBB2660:
	.loc 2 135 0
	movq	680(%rsp), %rdi
.LVL299:
.LBE2660:
.LBE2659:
.LBE2658:
	.loc 2 179 0
	leaq	696(%rsp), %rax
	cmpq	%rax, %rdi
	je	.L89
.LVL300:
.LBB2661:
.LBB2662:
.LBB2663:
.LBB2664:
	.loc 3 110 0
	call	_ZdlPv@PLT
.LVL301:
	jmp	.L89
.LVL302:
.L122:
	movq	%rax, %rbx
.LVL303:
.LBE2664:
.LBE2663:
.LBE2662:
.LBE2661:
.LBE2657:
.LBE2656:
.LBE2655:
.LBE2654:
.LBB2665:
.LBB2666:
.LBB2667:
.LBB2668:
.LBB2669:
.LBB2670:
	.loc 2 135 0
	movq	496(%rsp), %rdi
.LVL304:
.LBE2670:
.LBE2669:
.LBE2668:
	.loc 2 179 0
	leaq	512(%rsp), %rax
	cmpq	%rax, %rdi
	je	.L89
.LVL305:
.LBB2671:
.LBB2672:
.LBB2673:
.LBB2674:
	.loc 3 110 0
	call	_ZdlPv@PLT
.LVL306:
	jmp	.L89
.LVL307:
.L123:
	movq	%rax, %rbx
.LVL308:
.LBE2674:
.LBE2673:
.LBE2672:
.LBE2671:
.LBE2667:
.LBE2666:
.LBE2665:
.LBB2675:
.LBB2676:
.LBB2677:
.LBB2678:
.LBB2679:
.LBB2680:
	.loc 2 135 0
	movq	528(%rsp), %rdi
.LVL309:
.LBE2680:
.LBE2679:
.LBE2678:
	.loc 2 179 0
	leaq	544(%rsp), %rax
	cmpq	%rax, %rdi
	je	.L89
.LVL310:
.LBB2681:
.LBB2682:
.LBB2683:
.LBB2684:
	.loc 3 110 0
	call	_ZdlPv@PLT
.LVL311:
	jmp	.L89
.LVL312:
.L125:
	movq	%rax, %rbx
.LVL313:
.LBE2684:
.LBE2683:
.LBE2682:
.LBE2681:
.LBE2677:
.LBE2676:
.LBE2675:
.LBB2685:
.LBB2556:
.LBB2557:
.LBB2558:
.LBB2559:
.LBB2560:
.LBB2561:
	.loc 2 135 0
	movq	592(%rsp), %rdi
.LVL314:
.LBE2561:
.LBE2560:
.LBE2559:
	.loc 2 179 0
	leaq	608(%rsp), %rax
	cmpq	%rax, %rdi
	je	.L96
.LVL315:
.LBB2562:
.LBB2563:
.LBB2564:
.LBB2565:
	.loc 3 110 0
	call	_ZdlPv@PLT
.LVL316:
	jmp	.L96
.LVL317:
.L126:
	movq	%rax, %rbx
.L96:
.LVL318:
.LBE2565:
.LBE2564:
.LBE2563:
.LBE2562:
.LBE2558:
.LBE2557:
.LBE2556:
.LBB2566:
.LBB2567:
.LBB2568:
.LBB2569:
.LBB2570:
.LBB2571:
.LBB2572:
	.loc 2 135 0
	movq	672(%rsp), %rdi
.LVL319:
.LBE2572:
.LBE2571:
.LBE2570:
	.loc 2 179 0
	leaq	688(%rsp), %rax
	cmpq	%rax, %rdi
	je	.L71
.LVL320:
.LBB2573:
.LBB2574:
.LBB2575:
.LBB2576:
	.loc 3 110 0
	call	_ZdlPv@PLT
.LVL321:
	jmp	.L71
.LVL322:
.L124:
	movq	%rax, %rbx
.L71:
.LVL323:
.LBE2576:
.LBE2575:
.LBE2574:
.LBE2573:
.LBE2569:
.LBE2568:
.LBE2567:
.LBE2566:
.LBB2577:
.LBB2578:
.LBB2579:
.LBB2580:
.LBB2581:
.LBB2582:
.LBB2583:
	.loc 2 135 0
	movq	560(%rsp), %rdi
.LVL324:
.LBE2583:
.LBE2582:
.LBE2581:
	.loc 2 179 0
	leaq	576(%rsp), %rax
	cmpq	%rax, %rdi
	je	.L89
.LVL325:
.LBB2584:
.LBB2585:
.LBB2586:
.LBB2587:
	.loc 3 110 0
	call	_ZdlPv@PLT
.LVL326:
	jmp	.L89
.LVL327:
.L120:
	movq	%rax, %rbx
.L89:
.LVL328:
.LBE2587:
.LBE2586:
.LBE2585:
.LBE2584:
.LBE2580:
.LBE2579:
.LBE2578:
.LBE2577:
.LBE2685:
.LBB2686:
.LBB2687:
.LBB2688:
.LBB2689:
.LBB2690:
.LBB2691:
.LBB2692:
.LBB2693:
	.loc 2 135 0
	movq	632(%rsp), %rdi
.LVL329:
.LBE2693:
.LBE2692:
.LBE2691:
	.loc 2 179 0
	leaq	648(%rsp), %rax
	cmpq	%rax, %rdi
	je	.L86
.LVL330:
.LBB2694:
.LBB2695:
.LBB2696:
.LBB2697:
	.loc 3 110 0
	call	_ZdlPv@PLT
.LVL331:
	jmp	.L86
.LVL332:
.L118:
	movq	%rax, %rbx
.LVL333:
.L86:
.LBE2697:
.LBE2696:
.LBE2695:
.LBE2694:
.LBE2690:
.LBE2689:
.LBE2688:
.LBE2687:
.LBE2686:
	.loc 10 42 0
	leaq	800(%rsp), %rdi
	call	_ZN8CmdFlagsD1Ev@PLT
.LVL334:
	jmp	.L100
.LVL335:
.L117:
	movq	%rax, %rbx
.LVL336:
.L100:
.LBB2698:
.LBB2699:
.LBB2700:
.LBB2701:
.LBB2702:
.LBB2703:
.LBB2704:
	.loc 2 135 0
	movq	400(%rsp), %rdi
.LVL337:
.LBE2704:
.LBE2703:
.LBE2702:
	.loc 2 179 0
	leaq	416(%rsp), %rax
	cmpq	%rax, %rdi
	je	.L101
.LVL338:
.LBB2705:
.LBB2706:
.LBB2707:
.LBB2708:
	.loc 3 110 0
	call	_ZdlPv@PLT
.LVL339:
.L101:
.LBE2708:
.LBE2707:
.LBE2706:
.LBE2705:
.LBE2701:
.LBE2700:
.LBE2699:
.LBE2698:
.LBB2709:
.LBB2710:
.LBB2711:
.LBB2712:
.LBB2713:
.LBB2714:
.LBB2715:
	.loc 2 135 0
	movq	368(%rsp), %rdi
.LVL340:
.LBE2715:
.LBE2714:
.LBE2713:
	.loc 2 179 0
	leaq	384(%rsp), %rax
	cmpq	%rax, %rdi
	je	.L103
.LVL341:
.LBB2716:
.LBB2717:
.LBB2718:
.LBB2719:
	.loc 3 110 0
	call	_ZdlPv@PLT
.LVL342:
	jmp	.L103
.LVL343:
.L116:
	movq	%rax, %rbx
.LVL344:
.L103:
.LBE2719:
.LBE2718:
.LBE2717:
.LBE2716:
.LBE2712:
.LBE2711:
.LBE2710:
.LBE2709:
.LBB2720:
.LBB2721:
.LBB2722:
.LBB2723:
.LBB2724:
.LBB2725:
.LBB2726:
	.loc 2 135 0 discriminator 7
	movq	336(%rsp), %rdi
.LVL345:
.LBE2726:
.LBE2725:
.LBE2724:
	.loc 2 179 0 discriminator 7
	leaq	352(%rsp), %rax
	cmpq	%rax, %rdi
	je	.L104
.LVL346:
.LBB2727:
.LBB2728:
.LBB2729:
.LBB2730:
	.loc 3 110 0
	call	_ZdlPv@PLT
.LVL347:
.L104:
.LBE2730:
.LBE2729:
.LBE2728:
.LBE2727:
.LBE2723:
.LBE2722:
.LBE2721:
.LBE2720:
.LBB2731:
.LBB2732:
.LBB2733:
.LBB2734:
.LBB2735:
.LBB2736:
.LBB2737:
	.loc 2 135 0
	movq	304(%rsp), %rdi
.LVL348:
.LBE2737:
.LBE2736:
.LBE2735:
	.loc 2 179 0
	leaq	320(%rsp), %rax
	cmpq	%rax, %rdi
	je	.L106
.LVL349:
.LBB2738:
.LBB2739:
.LBB2740:
.LBB2741:
	.loc 3 110 0
	call	_ZdlPv@PLT
.LVL350:
	jmp	.L106
.LVL351:
.L115:
	movq	%rax, %rbx
.LVL352:
.L106:
.LBE2741:
.LBE2740:
.LBE2739:
.LBE2738:
.LBE2734:
.LBE2733:
.LBE2732:
.LBE2731:
	.loc 10 37 0
	leaq	720(%rsp), %rdi
	call	_ZN12ClientSocketD1Ev@PLT
.LVL353:
	movq	%rbx, %rdi
.LEHB20:
	call	_Unwind_Resume@PLT
.LVL354:
.LEHE20:
.L134:
	.loc 10 147 0
	call	__stack_chk_fail@PLT
.LVL355:
.L107:
	addq	$904, %rsp
	.cfi_def_cfa_offset 56
	popq	%rbx
	.cfi_def_cfa_offset 48
	popq	%rbp
	.cfi_def_cfa_offset 40
	popq	%r12
	.cfi_def_cfa_offset 32
	popq	%r13
	.cfi_def_cfa_offset 24
	popq	%r14
	.cfi_def_cfa_offset 16
	popq	%r15
	.cfi_def_cfa_offset 8
	ret
	.cfi_endproc
.LFE986:
	.globl	__gxx_personality_v0
	.section	.gcc_except_table,"a",@progbits
.LLSDA986:
	.byte	0xff
	.byte	0xff
	.byte	0x1
	.uleb128 .LLSDACSE986-.LLSDACSB986
.LLSDACSB986:
	.uleb128 .LEHB0-.LFB986
	.uleb128 .LEHE0-.LEHB0
	.uleb128 0
	.uleb128 0
	.uleb128 .LEHB1-.LFB986
	.uleb128 .LEHE1-.LEHB1
	.uleb128 .L115-.LFB986
	.uleb128 0
	.uleb128 .LEHB2-.LFB986
	.uleb128 .LEHE2-.LEHB2
	.uleb128 .L116-.LFB986
	.uleb128 0
	.uleb128 .LEHB3-.LFB986
	.uleb128 .LEHE3-.LEHB3
	.uleb128 .L117-.LFB986
	.uleb128 0
	.uleb128 .LEHB4-.LFB986
	.uleb128 .LEHE4-.LEHB4
	.uleb128 .L118-.LFB986
	.uleb128 0
	.uleb128 .LEHB5-.LFB986
	.uleb128 .LEHE5-.LEHB5
	.uleb128 .L119-.LFB986
	.uleb128 0
	.uleb128 .LEHB6-.LFB986
	.uleb128 .LEHE6-.LEHB6
	.uleb128 .L118-.LFB986
	.uleb128 0
	.uleb128 .LEHB7-.LFB986
	.uleb128 .LEHE7-.LEHB7
	.uleb128 .L120-.LFB986
	.uleb128 0
	.uleb128 .LEHB8-.LFB986
	.uleb128 .LEHE8-.LEHB8
	.uleb128 .L121-.LFB986
	.uleb128 0
	.uleb128 .LEHB9-.LFB986
	.uleb128 .LEHE9-.LEHB9
	.uleb128 .L120-.LFB986
	.uleb128 0
	.uleb128 .LEHB10-.LFB986
	.uleb128 .LEHE10-.LEHB10
	.uleb128 .L122-.LFB986
	.uleb128 0
	.uleb128 .LEHB11-.LFB986
	.uleb128 .LEHE11-.LEHB11
	.uleb128 .L120-.LFB986
	.uleb128 0
	.uleb128 .LEHB12-.LFB986
	.uleb128 .LEHE12-.LEHB12
	.uleb128 .L123-.LFB986
	.uleb128 0
	.uleb128 .LEHB13-.LFB986
	.uleb128 .LEHE13-.LEHB13
	.uleb128 .L120-.LFB986
	.uleb128 0
	.uleb128 .LEHB14-.LFB986
	.uleb128 .LEHE14-.LEHB14
	.uleb128 .L124-.LFB986
	.uleb128 0
	.uleb128 .LEHB15-.LFB986
	.uleb128 .LEHE15-.LEHB15
	.uleb128 .L127-.LFB986
	.uleb128 0
	.uleb128 .LEHB16-.LFB986
	.uleb128 .LEHE16-.LEHB16
	.uleb128 .L126-.LFB986
	.uleb128 0
	.uleb128 .LEHB17-.LFB986
	.uleb128 .LEHE17-.LEHB17
	.uleb128 .L125-.LFB986
	.uleb128 0
	.uleb128 .LEHB18-.LFB986
	.uleb128 .LEHE18-.LEHB18
	.uleb128 .L126-.LFB986
	.uleb128 0
	.uleb128 .LEHB19-.LFB986
	.uleb128 .LEHE19-.LEHB19
	.uleb128 0
	.uleb128 0
	.uleb128 .LEHB20-.LFB986
	.uleb128 .LEHE20-.LEHB20
	.uleb128 0
	.uleb128 0
.LLSDACSE986:
	.text
	.size	main, .-main
.Letext0:
	.file 16 "/usr/include/c++/5/bits/stringfwd.h"
	.file 17 "/usr/include/c++/5/bits/cpp_type_traits.h"
	.file 18 "/usr/include/c++/5/bits/stl_iterator_base_types.h"
	.file 19 "/usr/include/c++/5/cwchar"
	.file 20 "/usr/include/x86_64-linux-gnu/c++/5/bits/c++config.h"
	.file 21 "/usr/include/c++/5/bits/allocator.h"
	.file 22 "/usr/include/c++/5/clocale"
	.file 23 "/usr/include/c++/5/cstdlib"
	.file 24 "/usr/include/c++/5/cstdio"
	.file 25 "/usr/include/c++/5/bits/stl_iterator_base_funcs.h"
	.file 26 "/usr/include/c++/5/bits/move.h"
	.file 27 "/usr/include/c++/5/bits/functexcept.h"
	.file 28 "/usr/include/c++/5/debug/debug.h"
	.file 29 "/usr/include/c++/5/bits/predefined_ops.h"
	.file 30 "/usr/include/c++/5/ext/numeric_traits.h"
	.file 31 "/usr/include/c++/5/ext/alloc_traits.h"
	.file 32 "/usr/include/c++/5/ext/type_traits.h"
	.file 33 "/usr/include/stdio.h"
	.file 34 "/usr/include/libio.h"
	.file 35 "<built-in>"
	.file 36 "/usr/lib/gcc/x86_64-linux-gnu/5/include/stddef.h"
	.file 37 "/usr/include/wchar.h"
	.file 38 "/usr/include/x86_64-linux-gnu/bits/wchar2.h"
	.file 39 "/usr/include/time.h"
	.file 40 "/usr/include/locale.h"
	.file 41 "/usr/include/x86_64-linux-gnu/bits/types.h"
	.file 42 "/usr/include/netinet/in.h"
	.file 43 "./src/proto/socket.hpp"
	.file 44 "src/client/clientsocket.hpp"
	.file 45 "/usr/include/_G_config.h"
	.file 46 "/usr/include/x86_64-linux-gnu/bits/stdlib-float.h"
	.file 47 "/usr/include/x86_64-linux-gnu/bits/stdlib-bsearch.h"
	.file 48 "/usr/include/x86_64-linux-gnu/bits/stdlib.h"
	.file 49 "/usr/include/x86_64-linux-gnu/bits/stdio.h"
	.file 50 "/usr/include/c++/5/new"
	.file 51 "./src/shared/common.h"
	.file 52 "./src/proto/protobase.h"
	.file 53 "/usr/include/x86_64-linux-gnu/sys/socket.h"
	.section	.data.DW.ref.__gxx_personality_v0,"awG",@progbits,DW.ref.__gxx_personality_v0,comdat
	.align 8
	.type	DW.ref.__gxx_personality_v0, @object
	.size	DW.ref.__gxx_personality_v0, 8
DW.ref.__gxx_personality_v0:
	.quad	__gxx_personality_v0
	.ident	"GCC: (Ubuntu 5.4.0-6ubuntu1~16.04.10) 5.4.0 20160609"
	.section	.note.GNU-stack,"",@progbits
