	.file	"protocol_cpp.cpp"
	.text
.Ltext0:
	.section	.text._ZN5Proto6Struct4sizeEv,"axG",@progbits,_ZN5Proto6Struct4sizeEv,comdat
	.align 2
	.weak	_ZN5Proto6Struct4sizeEv
	.type	_ZN5Proto6Struct4sizeEv, @function
_ZN5Proto6Struct4sizeEv:
.LFB957:
	.file 1 "src/proto/protocol.hpp"
	.loc 1 70 0
	.cfi_startproc
.LVL0:
	.loc 1 71 0
	movslq	24(%rdi), %rax
	.loc 1 72 0
	ret
	.cfi_endproc
.LFE957:
	.size	_ZN5Proto6Struct4sizeEv, .-_ZN5Proto6Struct4sizeEv
	.text
	.align 2
	.globl	_ZN5Proto6StructC2ERNSt7__cxx1112basic_stringIcSt11char_traitsIcESaIcEEEi
	.type	_ZN5Proto6StructC2ERNSt7__cxx1112basic_stringIcSt11char_traitsIcESaIcEEEi, @function
_ZN5Proto6StructC2ERNSt7__cxx1112basic_stringIcSt11char_traitsIcESaIcEEEi:
.LFB1441:
	.file 2 "src/proto/protocol_cpp.cpp"
	.loc 2 34 0
	.cfi_startproc
.LVL1:
.LBB90:
	.loc 2 35 0
	movq	_ZTVN5Proto6StructE@GOTPCREL(%rip), %rax
	leaq	16(%rax), %rax
	movq	%rax, (%rdi)
	movq	%rsi, 8(%rdi)
	movl	%edx, 16(%rdi)
	movl	$0, 20(%rdi)
	movl	$0, 24(%rdi)
	.loc 2 38 0
	testl	%edx, %edx
	jns	.L3
	.loc 2 39 0
	movq	8(%rsi), %rax
	movl	%eax, 16(%rdi)
.L3:
	.loc 2 41 0
	movl	16(%rdi), %eax
	movl	%eax, 20(%rdi)
	ret
.LBE90:
	.cfi_endproc
.LFE1441:
	.size	_ZN5Proto6StructC2ERNSt7__cxx1112basic_stringIcSt11char_traitsIcESaIcEEEi, .-_ZN5Proto6StructC2ERNSt7__cxx1112basic_stringIcSt11char_traitsIcESaIcEEEi
	.globl	_ZN5Proto6StructC1ERNSt7__cxx1112basic_stringIcSt11char_traitsIcESaIcEEEi
	.set	_ZN5Proto6StructC1ERNSt7__cxx1112basic_stringIcSt11char_traitsIcESaIcEEEi,_ZN5Proto6StructC2ERNSt7__cxx1112basic_stringIcSt11char_traitsIcESaIcEEEi
	.section	.rodata.str1.1,"aMS",@progbits,1
.LC0:
	.string	"basic_string::replace"
	.section	.rodata.str1.8,"aMS",@progbits,1
	.align 8
.LC1:
	.string	"%s: __pos (which is %zu) > this->size() (which is %zu)"
	.text
	.align 2
	.globl	_ZN5Proto6Struct6appendEPKcm
	.type	_ZN5Proto6Struct6appendEPKcm, @function
_ZN5Proto6Struct6appendEPKcm:
.LFB1444:
	.loc 2 54 0
	.cfi_startproc
.LVL2:
	pushq	%rbp
	.cfi_def_cfa_offset 16
	.cfi_offset 6, -16
	pushq	%rbx
	.cfi_def_cfa_offset 24
	.cfi_offset 3, -24
	subq	$8, %rsp
	.cfi_def_cfa_offset 32
	movq	%rdi, %rbp
	.loc 2 55 0
	testq	%rsi, %rsi
	je	.L5
	movq	%rsi, %r9
	movq	%rdx, %rbx
	.loc 2 56 0
	testq	%rdx, %rdx
	jne	.L6
	.loc 2 57 0
	movl	$0, %eax
	movq	$-1, %rcx
	movq	%rsi, %rdi
.LVL3:
	repnz scasb
.LVL4:
	notq	%rcx
	leaq	-1(%rcx), %rbx
.LVL5:
.L6:
	.loc 2 59 0
	movslq	20(%rbp), %rsi
	movq	8(%rbp), %rdi
.LVL6:
.LBB101:
.LBB102:
.LBB103:
.LBB104:
.LBB105:
.LBB106:
.LBB107:
	.file 3 "/usr/include/c++/5/bits/basic_string.h"
	.loc 3 716 0
	movq	8(%rdi), %rcx
.LVL7:
.LBE107:
.LBE106:
.LBE105:
.LBE104:
.LBB108:
.LBB109:
	.loc 3 260 0
	cmpq	%rcx, %rsi
	jbe	.L7
	.loc 3 261 0
	movq	%rsi, %rdx
	leaq	.LC0(%rip), %rsi
.LVL8:
	leaq	.LC1(%rip), %rdi
.LVL9:
	movl	$0, %eax
	call	_ZSt24__throw_out_of_range_fmtPKcz@PLT
.LVL10:
.L7:
.LBE109:
.LBE108:
	.loc 3 1583 0
	movq	%rbx, %r8
	movq	%r9, %rcx
.LVL11:
	movl	$0, %edx
	call	_ZNSt7__cxx1112basic_stringIcSt11char_traitsIcESaIcEE10_M_replaceEmmPKcm@PLT
.LVL12:
.LBE103:
.LBE102:
.LBE101:
	.loc 2 60 0
	addl	%ebx, 24(%rbp)
	.loc 2 61 0
	addl	%ebx, 20(%rbp)
.LVL13:
.L5:
	.loc 2 64 0
	movq	%rbp, %rax
	addq	$8, %rsp
	.cfi_def_cfa_offset 24
	popq	%rbx
	.cfi_def_cfa_offset 16
	popq	%rbp
	.cfi_def_cfa_offset 8
.LVL14:
	ret
	.cfi_endproc
.LFE1444:
	.size	_ZN5Proto6Struct6appendEPKcm, .-_ZN5Proto6Struct6appendEPKcm
	.align 2
	.globl	_ZN5Proto6Struct10pushPackedEj
	.type	_ZN5Proto6Struct10pushPackedEj, @function
_ZN5Proto6Struct10pushPackedEj:
.LFB1443:
	.loc 2 45 0
	.cfi_startproc
.LVL15:
	pushq	%rbp
	.cfi_def_cfa_offset 16
	.cfi_offset 6, -16
	pushq	%rbx
	.cfi_def_cfa_offset 24
	.cfi_offset 3, -24
	subq	$24, %rsp
	.cfi_def_cfa_offset 48
	movq	%rdi, %rbx
	movl	%esi, %edi
.LVL16:
	.loc 2 45 0
	movq	%fs:40, %rax
	movq	%rax, 8(%rsp)
	xorl	%eax, %eax
	.loc 2 49 0
	movq	%rsp, %rsi
.LVL17:
	call	pack_size@PLT
.LVL18:
	.loc 2 50 0
	movslq	%eax, %rdx
	movq	%rsp, %rsi
	movq	%rbx, %rdi
	call	_ZN5Proto6Struct6appendEPKcm@PLT
.LVL19:
	.loc 2 52 0
	movq	8(%rsp), %rcx
	xorq	%fs:40, %rcx
	je	.L10
	call	__stack_chk_fail@PLT
.LVL20:
.L10:
	movq	%rbx, %rax
	addq	$24, %rsp
	.cfi_def_cfa_offset 24
	popq	%rbx
	.cfi_def_cfa_offset 16
.LVL21:
	popq	%rbp
	.cfi_def_cfa_offset 8
	ret
	.cfi_endproc
.LFE1443:
	.size	_ZN5Proto6Struct10pushPackedEj, .-_ZN5Proto6Struct10pushPackedEj
	.section	.rodata.str1.1
.LC2:
	.string	"basic_string::insert"
	.text
	.align 2
	.globl	_ZN5Proto6Struct10addNumericEhhj
	.type	_ZN5Proto6Struct10addNumericEhhj, @function
_ZN5Proto6Struct10addNumericEhhj:
.LFB1445:
	.loc 2 67 0
	.cfi_startproc
.LVL22:
	pushq	%rbp
	.cfi_def_cfa_offset 16
	.cfi_offset 6, -16
	pushq	%rbx
	.cfi_def_cfa_offset 24
	.cfi_offset 3, -24
	subq	$40, %rsp
	.cfi_def_cfa_offset 64
	movq	%rdi, %rbx
	movl	%esi, %r8d
	movl	%edx, %ebp
	movl	%ecx, 12(%rsp)
	.loc 2 67 0
	movq	%fs:40, %rax
	movq	%rax, 24(%rsp)
	xorl	%eax, %eax
	.loc 2 70 0
	leal	-1(%rdx), %eax
	cmpb	$1, %al
	jbe	.L19
	cmpb	$4, %dl
	jne	.L13
.L19:
.LVL23:
.LBB121:
.LBB122:
	.loc 1 91 0
	movslq	20(%rbx), %rsi
.LVL24:
	movq	8(%rbx), %rdi
.LVL25:
.LBB123:
.LBB124:
	.loc 3 1417 0
	movsbl	%r8b, %r8d
.LVL26:
.LBB125:
.LBB126:
.LBB127:
.LBB128:
	.loc 3 716 0
	movq	8(%rdi), %rcx
.LVL27:
.LBE128:
.LBE127:
	.loc 3 260 0
	cmpq	%rcx, %rsi
	jbe	.L15
	.loc 3 261 0
	movq	%rsi, %rdx
.LVL28:
	leaq	.LC2(%rip), %rsi
.LVL29:
	leaq	.LC1(%rip), %rdi
.LVL30:
	movl	$0, %eax
	call	_ZSt24__throw_out_of_range_fmtPKcz@PLT
.LVL31:
.L15:
.LBE126:
.LBE125:
	.loc 3 1418 0
	movl	$1, %ecx
	movl	$0, %edx
.LVL32:
	call	_ZNSt7__cxx1112basic_stringIcSt11char_traitsIcESaIcEE14_M_replace_auxEmmmc@PLT
.LVL33:
.LBE124:
.LBE123:
	.loc 1 92 0
	addl	$1, 24(%rbx)
	addl	$1, 20(%rbx)
.LVL34:
.LBE122:
.LBE121:
	.loc 2 76 0
	movzbl	%bpl, %esi
	movq	%rbx, %rdi
	call	_ZN5Proto6Struct10pushPackedEj@PLT
.LVL35:
	.loc 2 79 0
	movl	12(%rsp), %eax
	movb	%al, 21(%rsp)
.LVL36:
.LBB129:
	.loc 2 80 0
	movl	%eax, %edx
#APP
# 80 "src/proto/protocol_cpp.cpp" 1
	rorw $8, %dx
# 0 "" 2
.LVL37:
#NO_APP
	movw	%dx, 22(%rsp)
.LVL38:
.LBE129:
.LBB130:
.LBB131:
	.file 4 "/usr/include/x86_64-linux-gnu/bits/byteswap.h"
	.loc 4 47 0
	bswap	%eax
.LVL39:
.LBE131:
.LBE130:
	.loc 2 81 0
	movl	%eax, 12(%rsp)
.LVL40:
	.loc 2 82 0
	cmpb	$4, %bpl
	jne	.L16
	.loc 2 82 0 is_stmt 0 discriminator 1
	leaq	12(%rsp), %rsi
.LVL41:
	movl	$4, %edx
.LVL42:
	movq	%rbx, %rdi
	call	_ZN5Proto6Struct6appendEPKcm@PLT
.LVL43:
	jmp	.L13
.LVL44:
.L16:
	.loc 2 83 0 is_stmt 1
	cmpb	$2, %bpl
	jne	.L17
	.loc 2 83 0 is_stmt 0 discriminator 1
	leaq	22(%rsp), %rsi
	movl	$2, %edx
.LVL45:
	movq	%rbx, %rdi
	call	_ZN5Proto6Struct6appendEPKcm@PLT
.LVL46:
	jmp	.L13
.LVL47:
.L17:
	.loc 2 84 0 is_stmt 1
	cmpb	$1, %bpl
	jne	.L13
	.loc 2 84 0 is_stmt 0 discriminator 1
	leaq	21(%rsp), %rsi
	movl	$1, %edx
.LVL48:
	movq	%rbx, %rdi
	call	_ZN5Proto6Struct6appendEPKcm@PLT
.LVL49:
.L13:
	.loc 2 87 0 is_stmt 1
	movq	%rbx, %rax
	movq	24(%rsp), %rcx
	xorq	%fs:40, %rcx
	je	.L18
.LVL50:
	call	__stack_chk_fail@PLT
.LVL51:
.L18:
	addq	$40, %rsp
	.cfi_def_cfa_offset 24
	popq	%rbx
	.cfi_def_cfa_offset 16
	popq	%rbp
	.cfi_def_cfa_offset 8
	ret
	.cfi_endproc
.LFE1445:
	.size	_ZN5Proto6Struct10addNumericEhhj, .-_ZN5Proto6Struct10addNumericEhhj
	.align 2
	.globl	_ZN5Proto6Struct7addDataEPKcmh
	.type	_ZN5Proto6Struct7addDataEPKcmh, @function
_ZN5Proto6Struct7addDataEPKcmh:
.LFB1446:
	.loc 2 90 0
	.cfi_startproc
.LVL52:
	pushq	%r12
	.cfi_def_cfa_offset 16
	.cfi_offset 12, -16
	pushq	%rbp
	.cfi_def_cfa_offset 24
	.cfi_offset 6, -24
	pushq	%rbx
	.cfi_def_cfa_offset 32
	.cfi_offset 3, -32
	movq	%rdi, %rbx
	movq	%rsi, %r12
.LVL53:
.LBB140:
.LBB141:
	.loc 1 91 0
	movslq	20(%rdi), %rsi
.LVL54:
	movq	8(%rdi), %rdi
.LVL55:
.LBB142:
.LBB143:
	.loc 3 1417 0
	movsbl	%cl, %r8d
.LVL56:
.LBB144:
.LBB145:
.LBB146:
.LBB147:
	.loc 3 716 0
	movq	8(%rdi), %rcx
.LVL57:
.LBE147:
.LBE146:
	.loc 3 260 0
	cmpq	%rcx, %rsi
	jbe	.L22
	.loc 3 261 0
	movq	%rsi, %rdx
.LVL58:
	leaq	.LC2(%rip), %rsi
.LVL59:
	leaq	.LC1(%rip), %rdi
.LVL60:
	movl	$0, %eax
	call	_ZSt24__throw_out_of_range_fmtPKcz@PLT
.LVL61:
.L22:
	movq	%rdx, %rbp
.LVL62:
.LBE145:
.LBE144:
	.loc 3 1418 0
	movl	$1, %ecx
	movl	$0, %edx
.LVL63:
	call	_ZNSt7__cxx1112basic_stringIcSt11char_traitsIcESaIcEE14_M_replace_auxEmmmc@PLT
.LVL64:
.LBE143:
.LBE142:
	.loc 1 92 0
	addl	$1, 24(%rbx)
	addl	$1, 20(%rbx)
.LVL65:
.LBE141:
.LBE140:
	.loc 2 92 0
	movl	%ebp, %esi
	movq	%rbx, %rdi
	call	_ZN5Proto6Struct10pushPackedEj@PLT
.LVL66:
	.loc 2 93 0
	movq	%rbp, %rdx
	movq	%r12, %rsi
	movq	%rbx, %rdi
	call	_ZN5Proto6Struct6appendEPKcm@PLT
.LVL67:
	.loc 2 95 0
	movq	%rbx, %rax
	popq	%rbx
	.cfi_def_cfa_offset 24
.LVL68:
	popq	%rbp
	.cfi_def_cfa_offset 16
.LVL69:
	popq	%r12
	.cfi_def_cfa_offset 8
.LVL70:
	ret
	.cfi_endproc
.LFE1446:
	.size	_ZN5Proto6Struct7addDataEPKcmh, .-_ZN5Proto6Struct7addDataEPKcmh
	.align 2
	.globl	_ZN5Proto6Struct9addStringEPKch
	.type	_ZN5Proto6Struct9addStringEPKch, @function
_ZN5Proto6Struct9addStringEPKch:
.LFB1447:
	.loc 2 99 0
	.cfi_startproc
.LVL71:
	pushq	%r12
	.cfi_def_cfa_offset 16
	.cfi_offset 12, -16
	pushq	%rbp
	.cfi_def_cfa_offset 24
	.cfi_offset 6, -24
	pushq	%rbx
	.cfi_def_cfa_offset 32
	.cfi_offset 3, -32
	movq	%rdi, %rbx
.LBB158:
	.loc 2 100 0
	testq	%rsi, %rsi
	je	.L25
	movq	%rsi, %r12
.LBB159:
	.loc 2 101 0
	movl	$0, %eax
	movq	$-1, %rcx
	movq	%rsi, %rdi
.LVL72:
	repnz scasb
.LVL73:
	movl	%ecx, %ebp
	notl	%ebp
.LVL74:
.LBB160:
.LBB161:
	.loc 1 91 0
	movslq	20(%rbx), %rsi
	movq	8(%rbx), %rdi
.LVL75:
.LBB162:
.LBB163:
	.loc 3 1417 0
	movsbl	%dl, %r8d
.LVL76:
.LBB164:
.LBB165:
.LBB166:
.LBB167:
	.loc 3 716 0
	movq	8(%rdi), %rcx
.LVL77:
.LBE167:
.LBE166:
	.loc 3 260 0
	cmpq	%rcx, %rsi
	jbe	.L26
	.loc 3 261 0
	movq	%rsi, %rdx
.LVL78:
	leaq	.LC2(%rip), %rsi
.LVL79:
	leaq	.LC1(%rip), %rdi
.LVL80:
	call	_ZSt24__throw_out_of_range_fmtPKcz@PLT
.LVL81:
.L26:
.LBE165:
.LBE164:
	.loc 3 1418 0
	movl	$1, %ecx
	movl	$0, %edx
.LVL82:
	call	_ZNSt7__cxx1112basic_stringIcSt11char_traitsIcESaIcEE14_M_replace_auxEmmmc@PLT
.LVL83:
.LBE163:
.LBE162:
	.loc 1 92 0
	addl	$1, 24(%rbx)
	addl	$1, 20(%rbx)
.LVL84:
.LBE161:
.LBE160:
	.loc 2 103 0
	movl	%ebp, %esi
	movq	%rbx, %rdi
	call	_ZN5Proto6Struct10pushPackedEj@PLT
.LVL85:
	.loc 2 104 0
	movslq	%ebp, %rdx
	movq	%r12, %rsi
	movq	%rbx, %rdi
	call	_ZN5Proto6Struct6appendEPKcm@PLT
.LVL86:
.L25:
.LBE159:
.LBE158:
	.loc 2 108 0
	movq	%rbx, %rax
	popq	%rbx
	.cfi_def_cfa_offset 24
.LVL87:
	popq	%rbp
	.cfi_def_cfa_offset 16
	popq	%r12
	.cfi_def_cfa_offset 8
	ret
	.cfi_endproc
.LFE1447:
	.size	_ZN5Proto6Struct9addStringEPKch, .-_ZN5Proto6Struct9addStringEPKch
	.align 2
	.globl	_ZN5Proto6Struct8finalizeEv
	.type	_ZN5Proto6Struct8finalizeEv, @function
_ZN5Proto6Struct8finalizeEv:
.LFB1448:
	.loc 2 111 0
	.cfi_startproc
.LVL88:
	pushq	%rbx
	.cfi_def_cfa_offset 16
	.cfi_offset 3, -16
	subq	$16, %rsp
	.cfi_def_cfa_offset 32
	movq	%rdi, %rbx
	.loc 2 111 0
	movq	%fs:40, %rax
	movq	%rax, 8(%rsp)
	xorl	%eax, %eax
.LVL89:
	.loc 2 117 0
	movq	%rsp, %rsi
.LBB184:
.LBB185:
	.loc 3 716 0
	movq	8(%rdi), %rax
.LBE185:
.LBE184:
	.loc 2 117 0
	movq	8(%rax), %rdi
.LVL90:
	subl	$1, %edi
	subl	16(%rbx), %edi
	call	pack_size@PLT
.LVL91:
	.loc 2 118 0
	movslq	%eax, %r8
	movl	16(%rbx), %eax
.LVL92:
	leal	1(%rax), %esi
	movslq	%esi, %rsi
	movq	8(%rbx), %rdi
.LVL93:
.LBB186:
.LBB187:
.LBB188:
.LBB189:
.LBB190:
.LBB191:
.LBB192:
	.loc 3 716 0
	movq	8(%rdi), %rcx
.LVL94:
.LBE192:
.LBE191:
.LBE190:
.LBE189:
.LBB193:
.LBB194:
	.loc 3 260 0
	cmpq	%rcx, %rsi
	jbe	.L29
	.loc 3 261 0
	movq	%rsi, %rdx
	leaq	.LC0(%rip), %rsi
.LVL95:
	leaq	.LC1(%rip), %rdi
.LVL96:
	movl	$0, %eax
	call	_ZSt24__throw_out_of_range_fmtPKcz@PLT
.LVL97:
.L29:
.LBE194:
.LBE193:
	.loc 3 1583 0
	movq	%rsp, %rcx
.LVL98:
	movl	$0, %edx
	call	_ZNSt7__cxx1112basic_stringIcSt11char_traitsIcESaIcEE10_M_replaceEmmPKcm@PLT
.LVL99:
.LBE188:
.LBE187:
.LBE186:
	.loc 2 121 0
	movq	%rbx, %rax
	movq	8(%rsp), %rdx
	xorq	%fs:40, %rdx
	je	.L30
.LVL100:
	call	__stack_chk_fail@PLT
.LVL101:
.L30:
	addq	$16, %rsp
	.cfi_def_cfa_offset 16
	popq	%rbx
	.cfi_def_cfa_offset 8
	ret
	.cfi_endproc
.LFE1448:
	.size	_ZN5Proto6Struct8finalizeEv, .-_ZN5Proto6Struct8finalizeEv
	.align 2
	.globl	_ZN5Proto8Iterator4nextEv
	.type	_ZN5Proto8Iterator4nextEv, @function
_ZN5Proto8Iterator4nextEv:
.LFB1449:
	.loc 2 124 0
	.cfi_startproc
.LVL102:
	pushq	%rbp
	.cfi_def_cfa_offset 16
	.cfi_offset 6, -16
	pushq	%rbx
	.cfi_def_cfa_offset 24
	.cfi_offset 3, -24
	subq	$24, %rsp
	.cfi_def_cfa_offset 48
	movq	%rdi, %rbx
	.loc 2 124 0
	movq	%fs:40, %rax
	movq	%rax, 8(%rsp)
	xorl	%eax, %eax
	.loc 2 125 0
	movslq	24(%rdi), %rbp
	movq	16(%rdi), %rdi
.LVL103:
	movq	(%rdi), %rax
	call	*(%rax)
.LVL104:
	.loc 2 126 0
	movl	$0, %edx
	.loc 2 125 0
	cmpq	%rax, %rbp
	jnb	.L33
	.loc 2 129 0
	movq	16(%rbx), %rax
	movl	24(%rbx), %edx
.LBB195:
.LBB196:
.LBB197:
.LBB198:
.LBB199:
	.loc 3 135 0
	movq	8(%rax), %rcx
.LBE199:
.LBE198:
.LBE197:
.LBE196:
.LBE195:
	.loc 2 129 0
	movslq	16(%rax), %rbp
	movslq	%edx, %rax
	addq	%rax, %rbp
	addq	(%rcx), %rbp
.LVL105:
.LBB200:
.LBB201:
	.loc 1 250 0
	movzbl	0(%rbp), %eax
	movb	%al, (%rbx)
.LVL106:
.LBE201:
.LBE200:
	.loc 2 131 0
	addq	$1, %rbp
.LVL107:
	.loc 2 132 0
	addl	$1, %edx
	movl	%edx, 24(%rbx)
	.loc 2 136 0
	leaq	4(%rsp), %rsi
	movq	%rbp, %rdi
	call	unpack_size@PLT
.LVL108:
	.loc 2 138 0
	movl	%eax, %ecx
	addl	24(%rbx), %ecx
	.loc 2 139 0
	movl	4(%rsp), %edx
.LVL109:
.LBB202:
.LBB203:
	.loc 1 251 0
	movl	%edx, 4(%rbx)
.LVL110:
.LBE203:
.LBE202:
	.loc 2 142 0
	cltq
	addq	%rax, %rbp
.LVL111:
	movq	%rbp, 8(%rbx)
.LVL112:
	.loc 2 144 0
	addl	%ecx, %edx
.LVL113:
	movl	%edx, 24(%rbx)
	.loc 2 145 0
	movl	$1, %edx
.LVL114:
.L33:
	.loc 2 146 0
	movl	%edx, %eax
	movq	8(%rsp), %rsi
	xorq	%fs:40, %rsi
	je	.L34
	call	__stack_chk_fail@PLT
.LVL115:
.L34:
	addq	$24, %rsp
	.cfi_def_cfa_offset 24
	popq	%rbx
	.cfi_def_cfa_offset 16
.LVL116:
	popq	%rbp
	.cfi_def_cfa_offset 8
	ret
	.cfi_endproc
.LFE1449:
	.size	_ZN5Proto8Iterator4nextEv, .-_ZN5Proto8Iterator4nextEv
	.align 2
	.globl	_ZN5Proto8Iterator5enterEv
	.type	_ZN5Proto8Iterator5enterEv, @function
_ZN5Proto8Iterator5enterEv:
.LFB1450:
	.loc 2 149 0
	.cfi_startproc
.LVL117:
	pushq	%rbx
	.cfi_def_cfa_offset 16
	.cfi_offset 3, -16
	subq	$16, %rsp
	.cfi_def_cfa_offset 32
	movq	%rdi, %rbx
	.loc 2 149 0
	movq	%fs:40, %rax
	movq	%rax, 8(%rsp)
	xorl	%eax, %eax
	.loc 2 151 0
	movl	24(%rdi), %eax
	addl	$1, %eax
	movl	%eax, 24(%rdi)
	.loc 2 154 0
	movq	16(%rdi), %rdx
.LVL118:
	.loc 2 156 0
	leaq	4(%rsp), %rsi
.LBB204:
.LBB205:
.LBB206:
.LBB207:
.LBB208:
	.loc 3 135 0
	movq	8(%rdx), %rcx
.LBE208:
.LBE207:
.LBE206:
.LBE205:
.LBE204:
	.loc 2 156 0
	movslq	16(%rdx), %rdi
.LVL119:
	cltq
.LVL120:
	addq	%rax, %rdi
	addq	(%rcx), %rdi
	call	unpack_size@PLT
.LVL121:
	.loc 2 157 0
	addl	%eax, 24(%rbx)
	.loc 2 160 0
	movq	%rbx, %rdi
	call	_ZN5Proto8Iterator4nextEv@PLT
.LVL122:
	.loc 2 161 0
	movq	8(%rsp), %rcx
	xorq	%fs:40, %rcx
	je	.L38
	call	__stack_chk_fail@PLT
.LVL123:
.L38:
	addq	$16, %rsp
	.cfi_def_cfa_offset 16
	popq	%rbx
	.cfi_def_cfa_offset 8
.LVL124:
	ret
	.cfi_endproc
.LFE1450:
	.size	_ZN5Proto8Iterator5enterEv, .-_ZN5Proto8Iterator5enterEv
	.align 2
	.globl	_ZN5Proto6Packet4recvEi
	.type	_ZN5Proto6Packet4recvEi, @function
_ZN5Proto6Packet4recvEi:
.LFB1451:
	.loc 2 164 0
	.cfi_startproc
.LVL125:
	pushq	%r14
	.cfi_def_cfa_offset 16
	.cfi_offset 14, -16
	pushq	%r13
	.cfi_def_cfa_offset 24
	.cfi_offset 13, -24
	pushq	%r12
	.cfi_def_cfa_offset 32
	.cfi_offset 12, -32
	pushq	%rbp
	.cfi_def_cfa_offset 40
	.cfi_offset 6, -40
	pushq	%rbx
	.cfi_def_cfa_offset 48
	.cfi_offset 3, -48
	subq	$16, %rsp
	.cfi_def_cfa_offset 64
	movq	%rdi, %rbx
	movl	%esi, %r13d
	.loc 2 164 0
	movq	%fs:40, %rax
	movq	%rax, 8(%rsp)
	xorl	%eax, %eax
.LVL126:
	.loc 2 167 0
	leaq	32(%rdi), %r12
.LVL127:
.LBB209:
.LBB210:
	.loc 3 754 0
	movl	$0, %edx
	movl	$6, %esi
.LVL128:
	movq	%r12, %rdi
.LVL129:
	call	_ZNSt7__cxx1112basic_stringIcSt11char_traitsIcESaIcEE6resizeEmc@PLT
.LVL130:
.LBE210:
.LBE209:
	.loc 2 168 0
	movq	32(%rbx), %rsi
	movl	%r13d, %edi
	call	pkt_recv_header@PLT
.LVL131:
	movl	%eax, %ebp
.LVL132:
	.loc 2 169 0
	movl	$-1, %eax
.LVL133:
	.loc 2 168 0
	testl	%ebp, %ebp
	je	.L41
	.loc 2 172 0
	movl	$0, 4(%rsp)
	.loc 2 173 0
	leaq	4(%rsp), %rsi
	movq	32(%rbx), %rax
	leaq	1(%rax), %rdi
	call	unpack_size@PLT
.LVL134:
	movl	%eax, %r14d
.LVL135:
.LBB211:
.LBB212:
	.loc 3 754 0
	movl	%ebp, %esi
	addl	4(%rsp), %esi
	movl	$0, %edx
	movq	%r12, %rdi
	call	_ZNSt7__cxx1112basic_stringIcSt11char_traitsIcESaIcEE6resizeEmc@PLT
.LVL136:
.LBE212:
.LBE211:
	.loc 2 177 0
	movl	4(%rsp), %edx
.LVL137:
	.loc 2 180 0
	testl	%edx, %edx
	je	.L42
	.loc 2 181 0
	movslq	%r14d, %r14
.LVL138:
	movq	32(%rbx), %rax
	leaq	1(%rax,%r14), %rsi
	movl	%r13d, %edi
	call	recv_full@PLT
.LVL139:
	testl	%eax, %eax
	je	.L45
.LVL140:
.L42:
	.loc 2 189 0
	movq	(%rbx), %rax
	movq	%rbx, %rdi
	call	*(%rax)
.LVL141:
	jmp	.L41
.LVL142:
.L45:
	.loc 2 182 0
	movl	$-1, %eax
.LVL143:
.L41:
	.loc 2 190 0
	movq	8(%rsp), %rcx
	xorq	%fs:40, %rcx
	je	.L43
	call	__stack_chk_fail@PLT
.LVL144:
.L43:
	addq	$16, %rsp
	.cfi_def_cfa_offset 48
	popq	%rbx
	.cfi_def_cfa_offset 40
.LVL145:
	popq	%rbp
	.cfi_def_cfa_offset 32
	popq	%r12
	.cfi_def_cfa_offset 24
.LVL146:
	popq	%r13
	.cfi_def_cfa_offset 16
.LVL147:
	popq	%r14
	.cfi_def_cfa_offset 8
	ret
	.cfi_endproc
.LFE1451:
	.size	_ZN5Proto6Packet4recvEi, .-_ZN5Proto6Packet4recvEi
	.align 2
	.globl	_ZN5Proto6Packet4dumpEv
	.type	_ZN5Proto6Packet4dumpEv, @function
_ZN5Proto6Packet4dumpEv:
.LFB1452:
	.loc 2 192 0
	.cfi_startproc
.LVL148:
	pushq	%rbx
	.cfi_def_cfa_offset 16
	.cfi_offset 3, -16
	movq	%rdi, %rbx
	.loc 2 193 0
	movq	(%rdi), %rax
	call	*(%rax)
.LVL149:
	movq	32(%rbx), %rdi
	movl	%eax, %esi
	call	pkt_dump@PLT
.LVL150:
	.loc 2 194 0
	popq	%rbx
	.cfi_def_cfa_offset 8
.LVL151:
	ret
	.cfi_endproc
.LFE1452:
	.size	_ZN5Proto6Packet4dumpEv, .-_ZN5Proto6Packet4dumpEv
	.align 2
	.globl	_ZN5Proto6Packet4sendEi
	.type	_ZN5Proto6Packet4sendEi, @function
_ZN5Proto6Packet4sendEi:
.LFB1453:
	.loc 2 196 0
	.cfi_startproc
.LVL152:
	pushq	%rbp
	.cfi_def_cfa_offset 16
	.cfi_offset 6, -16
	pushq	%rbx
	.cfi_def_cfa_offset 24
	.cfi_offset 3, -24
	subq	$8, %rsp
	.cfi_def_cfa_offset 32
	movq	%rdi, %rbx
	movl	%esi, %ebp
	.loc 2 197 0
	call	_ZN5Proto6Struct8finalizeEv@PLT
.LVL153:
	.loc 2 198 0
	movq	(%rbx), %rax
	movq	%rbx, %rdi
	call	*(%rax)
.LVL154:
	movq	32(%rbx), %rsi
	movl	$0, %ecx
	movq	%rax, %rdx
	movl	%ebp, %edi
	call	send@PLT
.LVL155:
	.loc 2 199 0
	addq	$8, %rsp
	.cfi_def_cfa_offset 24
	popq	%rbx
	.cfi_def_cfa_offset 16
.LVL156:
	popq	%rbp
	.cfi_def_cfa_offset 8
.LVL157:
	ret
	.cfi_endproc
.LFE1453:
	.size	_ZN5Proto6Packet4sendEi, .-_ZN5Proto6Packet4sendEi
	.type	_GLOBAL__sub_I_protocol_cpp.cpp, @function
_GLOBAL__sub_I_protocol_cpp.cpp:
.LFB1512:
	.loc 2 199 0
	.cfi_startproc
	subq	$8, %rsp
	.cfi_def_cfa_offset 16
.LVL158:
.LBB215:
.LBB216:
	.file 5 "/usr/include/c++/5/iostream"
	.loc 5 74 0
	leaq	_ZStL8__ioinit(%rip), %rdi
	call	_ZNSt8ios_base4InitC1Ev@PLT
.LVL159:
	leaq	__dso_handle(%rip), %rdx
	leaq	_ZStL8__ioinit(%rip), %rsi
	movq	_ZNSt8ios_base4InitD1Ev@GOTPCREL(%rip), %rdi
	call	__cxa_atexit@PLT
.LVL160:
.LBE216:
.LBE215:
	.loc 2 199 0
	addq	$8, %rsp
	.cfi_def_cfa_offset 8
	ret
	.cfi_endproc
.LFE1512:
	.size	_GLOBAL__sub_I_protocol_cpp.cpp, .-_GLOBAL__sub_I_protocol_cpp.cpp
	.section	.init_array,"aw"
	.align 8
	.quad	_GLOBAL__sub_I_protocol_cpp.cpp
	.weak	_ZTSN5Proto6StructE
	.section	.rodata._ZTSN5Proto6StructE,"aG",@progbits,_ZTSN5Proto6StructE,comdat
	.align 16
	.type	_ZTSN5Proto6StructE, @object
	.size	_ZTSN5Proto6StructE, 16
_ZTSN5Proto6StructE:
	.string	"N5Proto6StructE"
	.weak	_ZTIN5Proto6StructE
	.section	.data.rel.ro._ZTIN5Proto6StructE,"awG",@progbits,_ZTIN5Proto6StructE,comdat
	.align 8
	.type	_ZTIN5Proto6StructE, @object
	.size	_ZTIN5Proto6StructE, 16
_ZTIN5Proto6StructE:
	.quad	_ZTVN10__cxxabiv117__class_type_infoE+16
	.quad	_ZTSN5Proto6StructE
	.weak	_ZTVN5Proto6StructE
	.section	.data.rel.ro._ZTVN5Proto6StructE,"awG",@progbits,_ZTVN5Proto6StructE,comdat
	.align 8
	.type	_ZTVN5Proto6StructE, @object
	.size	_ZTVN5Proto6StructE, 24
_ZTVN5Proto6StructE:
	.quad	0
	.quad	_ZTIN5Proto6StructE
	.quad	_ZN5Proto6Struct4sizeEv
	.local	_ZStL8__ioinit
	.comm	_ZStL8__ioinit,1,1
	.text
.Letext0:
	.file 6 "/usr/include/stdint.h"
	.file 7 "/usr/include/x86_64-linux-gnu/bits/types.h"
	.file 8 "/usr/lib/gcc/x86_64-linux-gnu/5/include/stddef.h"
	.file 9 "/usr/include/stdio.h"
	.file 10 "/usr/include/libio.h"
	.file 11 "/usr/include/wchar.h"
	.file 12 "/usr/include/_G_config.h"
	.file 13 "<built-in>"
	.file 14 "src/proto/protobase.h"
	.file 15 "/usr/include/c++/5/bits/basic_string.tcc"
	.file 16 "/usr/include/c++/5/bits/stringfwd.h"
	.file 17 "/usr/include/c++/5/cwchar"
	.file 18 "/usr/include/c++/5/bits/char_traits.h"
	.file 19 "/usr/include/x86_64-linux-gnu/c++/5/bits/c++config.h"
	.file 20 "/usr/include/c++/5/bits/allocator.h"
	.file 21 "/usr/include/c++/5/clocale"
	.file 22 "/usr/include/c++/5/bits/stl_iterator_base_types.h"
	.file 23 "/usr/include/c++/5/cstring"
	.file 24 "/usr/include/c++/5/cstdio"
	.file 25 "/usr/include/c++/5/bits/ios_base.h"
	.file 26 "/usr/include/c++/5/cwctype"
	.file 27 "/usr/include/c++/5/debug/debug.h"
	.file 28 "/usr/include/c++/5/bits/predefined_ops.h"
	.file 29 "/usr/include/c++/5/ext/new_allocator.h"
	.file 30 "/usr/include/c++/5/ext/numeric_traits.h"
	.file 31 "/usr/include/c++/5/ext/alloc_traits.h"
	.file 32 "/usr/include/c++/5/bits/stl_iterator.h"
	.file 33 "/usr/include/x86_64-linux-gnu/bits/wchar2.h"
	.file 34 "/usr/include/time.h"
	.file 35 "/usr/include/locale.h"
	.file 36 "/usr/include/x86_64-linux-gnu/c++/5/bits/atomic_word.h"
	.file 37 "/usr/include/string.h"
	.file 38 "/usr/include/x86_64-linux-gnu/bits/stdio2.h"
	.file 39 "/usr/include/x86_64-linux-gnu/bits/stdio.h"
	.file 40 "/usr/include/wctype.h"
	.file 41 "/usr/include/x86_64-linux-gnu/sys/socket.h"
	.file 42 "/usr/include/c++/5/bits/functexcept.h"
	.section	.note.GNU-stack,"",@progbits
