	.file	"protobase.c"
	.text
.Ltext0:
	.type	ipc_get_addr, @function
ipc_get_addr:
.LFB74:
	.file 1 "src/proto/protobase.c"
	.loc 1 182 0
	.cfi_startproc
	subq	$8, %rsp
	.cfi_def_cfa_offset 16
.LVL0:
	.loc 1 186 0
	movl	$438, %edx
	movl	$512, %esi
	movl	$707406378, %edi
	call	shmget@PLT
.LVL1:
	cmpl	$-1, %eax
	je	.L3
.LVL2:
.LBB53:
	.loc 1 190 0
	movl	$0, %edx
	movl	$0, %esi
	movl	%eax, %edi
	call	shmat@PLT
.LVL3:
	cmpq	$-1, %rax
.LBE53:
	.loc 1 195 0
	movl	$0, %edx
	cmove	%rdx, %rax
.LVL4:
.LBB54:
	jmp	.L2
.LVL5:
.L3:
.LBE54:
	movl	$0, %eax
.LVL6:
.L2:
	.loc 1 196 0
	addq	$8, %rsp
	.cfi_def_cfa_offset 8
	ret
	.cfi_endproc
.LFE74:
	.size	ipc_get_addr, .-ipc_get_addr
	.globl	recv_full
	.type	recv_full, @function
recv_full:
.LFB64:
	.loc 1 34 0
	.cfi_startproc
.LVL7:
	.loc 1 39 0
	testl	%edx, %edx
	je	.L9
	.loc 1 34 0
	pushq	%r13
	.cfi_def_cfa_offset 16
	.cfi_offset 13, -16
	pushq	%r12
	.cfi_def_cfa_offset 24
	.cfi_offset 12, -24
	pushq	%rbp
	.cfi_def_cfa_offset 32
	.cfi_offset 6, -32
	pushq	%rbx
	.cfi_def_cfa_offset 40
	.cfi_offset 3, -40
	subq	$8, %rsp
	.cfi_def_cfa_offset 48
	movl	%edi, %r13d
	movq	%rsi, %rbp
	movl	%edx, %ebx
	.loc 1 39 0
	movl	$0, %r12d
.LVL8:
.L8:
.LBB55:
.LBB56:
	.file 2 "/usr/include/x86_64-linux-gnu/bits/socket2.h"
	.loc 2 44 0
	movl	%ebx, %edx
.LVL9:
	movl	$0, %ecx
	movq	%rbp, %rsi
	movl	%r13d, %edi
	call	recv@PLT
.LVL10:
.LBE56:
.LBE55:
	.loc 1 41 0
	testl	%eax, %eax
	jle	.L10
.LVL11:
	.loc 1 45 0
	movslq	%eax, %rdx
	addq	%rdx, %rbp
.LVL12:
	.loc 1 46 0
	addl	%eax, %r12d
.LVL13:
	.loc 1 39 0
	subl	%eax, %ebx
.LVL14:
	jne	.L8
	.loc 1 46 0
	movl	%r12d, %eax
.LVL15:
	jmp	.L7
.LVL16:
.L9:
	.cfi_def_cfa_offset 8
	.cfi_restore 3
	.cfi_restore 6
	.cfi_restore 12
	.cfi_restore 13
	.loc 1 38 0
	movl	$0, %eax
	.loc 1 50 0
	ret
.LVL17:
.L10:
	.cfi_def_cfa_offset 48
	.cfi_offset 3, -40
	.cfi_offset 6, -32
	.cfi_offset 12, -24
	.cfi_offset 13, -16
	.loc 1 42 0
	movl	$0, %eax
.LVL18:
.L7:
	.loc 1 50 0
	addq	$8, %rsp
	.cfi_def_cfa_offset 40
	popq	%rbx
	.cfi_restore 3
	.cfi_def_cfa_offset 32
.LVL19:
	popq	%rbp
	.cfi_restore 6
	.cfi_def_cfa_offset 24
.LVL20:
	popq	%r12
	.cfi_restore 12
	.cfi_def_cfa_offset 16
.LVL21:
	popq	%r13
	.cfi_restore 13
	.cfi_def_cfa_offset 8
.LVL22:
	ret
	.cfi_endproc
.LFE64:
	.size	recv_full, .-recv_full
	.globl	pkt_recv_header
	.type	pkt_recv_header, @function
pkt_recv_header:
.LFB65:
	.loc 1 53 0
	.cfi_startproc
.LVL23:
	pushq	%rbp
	.cfi_def_cfa_offset 16
	.cfi_offset 6, -16
	pushq	%rbx
	.cfi_def_cfa_offset 24
	.cfi_offset 3, -24
	subq	$8, %rsp
	.cfi_def_cfa_offset 32
	movl	%edi, %ebp
	movq	%rsi, %rbx
.LVL24:
	.loc 1 56 0
	movl	$2, %edx
	call	recv_full@PLT
.LVL25:
	.loc 1 57 0
	movl	$0, %ecx
	.loc 1 56 0
	testl	%eax, %eax
	je	.L14
	.loc 1 60 0
	movzbl	1(%rbx), %edx
.LVL26:
	.loc 1 56 0
	movl	%eax, %ecx
	.loc 1 61 0
	cmpl	$128, %edx
	jbe	.L14
	.loc 1 62 0
	addl	$-128, %edx
.LVL27:
	leaq	2(%rbx), %rsi
	movl	%ebp, %edi
	call	recv_full@PLT
.LVL28:
	.loc 1 64 0
	leal	2(%rax), %edx
	testl	%eax, %eax
	movl	$0, %ecx
	cmovne	%edx, %ecx
.L14:
	.loc 1 68 0
	movl	%ecx, %eax
.LVL29:
	addq	$8, %rsp
	.cfi_def_cfa_offset 24
	popq	%rbx
	.cfi_def_cfa_offset 16
.LVL30:
	popq	%rbp
	.cfi_def_cfa_offset 8
.LVL31:
	ret
	.cfi_endproc
.LFE65:
	.size	pkt_recv_header, .-pkt_recv_header
	.section	.rodata.str1.1,"aMS",@progbits,1
.LC0:
	.string	"Packet (%dB):"
.LC1:
	.string	"\n ..."
.LC2:
	.string	"\n%4d | "
.LC3:
	.string	"0x%02x "
	.text
	.globl	pkt_dump
	.type	pkt_dump, @function
pkt_dump:
.LFB66:
	.loc 1 71 0
	.cfi_startproc
.LVL32:
	pushq	%r13
	.cfi_def_cfa_offset 16
	.cfi_offset 13, -16
	pushq	%r12
	.cfi_def_cfa_offset 24
	.cfi_offset 12, -24
	pushq	%rbp
	.cfi_def_cfa_offset 32
	.cfi_offset 6, -32
	pushq	%rbx
	.cfi_def_cfa_offset 40
	.cfi_offset 3, -40
	subq	$8, %rsp
	.cfi_def_cfa_offset 48
	movq	%rdi, %r12
	movl	%esi, %ebx
.LVL33:
.LBB57:
.LBB58:
	.file 3 "/usr/include/x86_64-linux-gnu/bits/stdio2.h"
	.loc 3 104 0
	movl	%esi, %edx
	leaq	.LC0(%rip), %rsi
.LVL34:
	movl	$1, %edi
.LVL35:
	movl	$0, %eax
	call	__printf_chk@PLT
.LVL36:
.LBE58:
.LBE57:
	.loc 1 74 0
	testl	%ebx, %ebx
	je	.L20
	leal	-1(%rbx), %ebp
	addq	$1, %rbp
	movl	$0, %ebx
.LVL37:
.LBB59:
.LBB60:
	.loc 3 104 0
	leaq	.LC2(%rip), %r13
.LVL38:
.L23:
	movl	%ebx, %edx
.LVL39:
.LBE60:
.LBE59:
	.loc 1 75 0
	testl	%ebx, %ebx
	je	.L21
	.loc 1 75 0 is_stmt 0 discriminator 1
	testb	$7, %bl
	jne	.L22
	.loc 1 76 0 is_stmt 1
	cmpl	$160, %ebx
	jne	.L21
.LVL40:
.LBB62:
.LBB63:
	.loc 3 104 0
	leaq	.LC1(%rip), %rsi
	movl	$1, %edi
	movl	$0, %eax
	call	__printf_chk@PLT
.LVL41:
	jmp	.L20
.LVL42:
.L21:
.LBE63:
.LBE62:
.LBB64:
.LBB61:
	movq	%r13, %rsi
	movl	$1, %edi
	movl	$0, %eax
	call	__printf_chk@PLT
.LVL43:
.L22:
.LBE61:
.LBE64:
.LBB65:
.LBB66:
	.loc 3 104 0 is_stmt 0 discriminator 2
	movzbl	(%r12,%rbx), %edx
	leaq	.LC3(%rip), %rsi
	movl	$1, %edi
	movl	$0, %eax
	call	__printf_chk@PLT
.LVL44:
	addq	$1, %rbx
.LVL45:
.LBE66:
.LBE65:
	.loc 1 74 0 is_stmt 1 discriminator 2
	cmpq	%rbp, %rbx
	jne	.L23
.L20:
.LVL46:
.LBB67:
.LBB68:
	.loc 3 104 0
	movl	$10, %edi
	call	putchar@PLT
.LVL47:
.LBE68:
.LBE67:
	.loc 1 85 0
	addq	$8, %rsp
	.cfi_def_cfa_offset 40
	popq	%rbx
	.cfi_def_cfa_offset 32
	popq	%rbp
	.cfi_def_cfa_offset 24
	popq	%r12
	.cfi_def_cfa_offset 16
.LVL48:
	popq	%r13
	.cfi_def_cfa_offset 8
	ret
	.cfi_endproc
.LFE66:
	.size	pkt_dump, .-pkt_dump
	.globl	pack_size
	.type	pack_size, @function
pack_size:
.LFB67:
	.loc 1 88 0
	.cfi_startproc
.LVL49:
	.loc 1 90 0
	cmpl	$128, %edi
	ja	.L27
	.loc 1 91 0
	movb	%dil, (%rsi)
	.loc 1 92 0
	movl	$1, %eax
	ret
.L27:
	.loc 1 96 0
	cmpl	$65534, %edi
	ja	.L29
.LVL50:
.LBB69:
.LBB70:
	.loc 1 97 0
#APP
# 97 "src/proto/protobase.c" 1
	rorw $8, %di
# 0 "" 2
.LVL51:
#NO_APP
.LBE70:
	.loc 1 98 0
	movb	$-126, (%rsi)
.LVL52:
.LBB71:
.LBB72:
	.file 4 "/usr/include/x86_64-linux-gnu/bits/string3.h"
	.loc 4 53 0
	movw	%di, 1(%rsi)
.LVL53:
.LBE72:
.LBE71:
	.loc 1 100 0
	movl	$3, %eax
	ret
.LVL54:
.L29:
.LBE69:
.LBB73:
.LBB74:
	.file 5 "/usr/include/x86_64-linux-gnu/bits/byteswap.h"
	.loc 5 47 0
	bswap	%edi
.LVL55:
.LBE74:
.LBE73:
	.loc 1 105 0
	movb	$-124, (%rsi)
.LVL56:
.LBB75:
.LBB76:
	.loc 4 53 0
	movl	%edi, 1(%rsi)
.LVL57:
.LBE76:
.LBE75:
	.loc 1 107 0
	movl	$5, %eax
	.loc 1 108 0
	ret
	.cfi_endproc
.LFE67:
	.size	pack_size, .-pack_size
	.globl	unpack_size
	.type	unpack_size, @function
unpack_size:
.LFB68:
	.loc 1 111 0
	.cfi_startproc
.LVL58:
	.loc 1 113 0
	movzbl	(%rdi), %edx
.LVL59:
	.loc 1 114 0
	cmpb	$-128, %dl
	ja	.L31
	.loc 1 115 0
	movzbl	%dl, %edx
.LVL60:
	movl	%edx, (%rsi)
.LVL61:
	.loc 1 116 0
	movl	$1, %eax
	ret
.L31:
	.loc 1 120 0
	cmpb	$-126, %dl
	jne	.L33
.LVL62:
.LBB77:
	.loc 1 121 0
	movzwl	1(%rdi), %eax
#APP
# 121 "src/proto/protobase.c" 1
	rorw $8, %ax
# 0 "" 2
.LVL63:
#NO_APP
.LBE77:
	.loc 1 121 0
	movzwl	%ax, %eax
	movl	%eax, (%rsi)
.LVL64:
	.loc 1 122 0
	movl	$3, %eax
.LVL65:
	ret
.LVL66:
.L33:
	.loc 1 131 0
	movl	$0, %eax
	.loc 1 126 0
	cmpb	$-124, %dl
	jne	.L32
.LVL67:
.LBB78:
.LBB79:
	.loc 5 47 0
	movl	1(%rdi), %eax
	bswap	%eax
.LVL68:
.LBE79:
.LBE78:
	.loc 1 127 0
	movl	%eax, (%rsi)
	.loc 1 128 0
	movl	$5, %eax
.L32:
	.loc 1 132 0
	rep ret
	.cfi_endproc
.LFE68:
	.size	unpack_size, .-unpack_size
	.globl	as_uint
	.type	as_uint, @function
as_uint:
.LFB69:
	.loc 1 135 0
	.cfi_startproc
.LVL69:
	.loc 1 137 0
	cmpl	$2, %esi
	je	.L37
	cmpl	$4, %esi
	je	.L38
	cmpl	$1, %esi
	jne	.L41
	.loc 1 138 0
	movzbl	(%rdi), %eax
.LVL70:
	ret
.LVL71:
.L37:
.LBB80:
	.loc 1 139 0
	movzwl	(%rdi), %eax
#APP
# 139 "src/proto/protobase.c" 1
	rorw $8, %ax
# 0 "" 2
.LVL72:
#NO_APP
.LBE80:
	.loc 1 139 0
	movzwl	%ax, %eax
.LVL73:
	.loc 1 139 0
	ret
.LVL74:
.L38:
.LBB81:
.LBB82:
	.loc 5 47 0
	movl	(%rdi), %eax
	bswap	%eax
.LVL75:
.LBE82:
.LBE81:
	.loc 1 140 0
	ret
.LVL76:
.L41:
	.loc 1 136 0
	movl	$0, %eax
.LVL77:
	.loc 1 145 0
	ret
	.cfi_endproc
.LFE69:
	.size	as_uint, .-as_uint
	.globl	as_int
	.type	as_int, @function
as_int:
.LFB70:
	.loc 1 148 0
	.cfi_startproc
.LVL78:
	.loc 1 150 0
	cmpl	$2, %esi
	je	.L44
	cmpl	$4, %esi
	je	.L45
	cmpl	$1, %esi
	jne	.L48
	.loc 1 151 0
	movsbl	(%rdi), %eax
.LVL79:
	ret
.LVL80:
.L44:
.LBB83:
	.loc 1 152 0
	movzwl	(%rdi), %eax
#APP
# 152 "src/proto/protobase.c" 1
	rorw $8, %ax
# 0 "" 2
.LVL81:
#NO_APP
.LBE83:
	.loc 1 152 0
	movzwl	%ax, %eax
.LVL82:
	.loc 1 152 0
	ret
.LVL83:
.L45:
.LBB84:
.LBB85:
	.loc 5 47 0
	movl	(%rdi), %eax
	bswap	%eax
.LVL84:
.LBE85:
.LBE84:
	.loc 1 153 0
	ret
.LVL85:
.L48:
	.loc 1 149 0
	movl	$0, %eax
.LVL86:
	.loc 1 158 0
	ret
	.cfi_endproc
.LFE70:
	.size	as_int, .-as_int
	.globl	as_string
	.type	as_string, @function
as_string:
.LFB71:
	.loc 1 161 0
	.cfi_startproc
.LVL87:
	movq	%rdi, %rax
	.loc 1 163 0
	ret
	.cfi_endproc
.LFE71:
	.size	as_string, .-as_string
	.section	.rodata.str1.8,"aMS",@progbits,1
	.align 8
.LC4:
	.string	"IPC: creating segment at key 0x%x (%d bytes)"
	.section	.rodata.str1.1
.LC5:
	.string	"shmget"
	.text
	.globl	ipc_init
	.type	ipc_init, @function
ipc_init:
.LFB72:
	.loc 1 166 0
	.cfi_startproc
	pushq	%rbx
	.cfi_def_cfa_offset 16
	.cfi_offset 3, -16
.LVL88:
	.loc 1 168 0
	movl	$0, %eax
	call	log_level@PLT
.LVL89:
	testb	$2, %al
	je	.L51
.LVL90:
.LBB86:
.LBB87:
	.loc 3 104 0
	movl	$512, %ecx
	movl	$707406378, %edx
	leaq	.LC4(%rip), %rsi
	movl	$1, %edi
	movl	$0, %eax
	call	__printf_chk@PLT
.LVL91:
.LBE87:
.LBE86:
.LBB88:
.LBB89:
	movl	$10, %edi
	call	putchar@PLT
.LVL92:
.L51:
.LBE89:
.LBE88:
	.loc 1 169 0
	movl	$950, %edx
	movl	$512, %esi
	movl	$707406378, %edi
	call	shmget@PLT
.LVL93:
	movl	%eax, %ebx
.LVL94:
	cmpl	$-1, %eax
	jne	.L52
	.loc 1 170 0
	leaq	.LC5(%rip), %rdi
	call	perror@PLT
.LVL95:
.L52:
	.loc 1 174 0
	movl	%ebx, %eax
	popq	%rbx
	.cfi_def_cfa_offset 8
.LVL96:
	ret
	.cfi_endproc
.LFE72:
	.size	ipc_init, .-ipc_init
	.section	.rodata.str1.1
.LC6:
	.string	"IPC: removing segment %d"
	.text
	.globl	ipc_teardown
	.type	ipc_teardown, @function
ipc_teardown:
.LFB73:
	.loc 1 177 0
	.cfi_startproc
.LVL97:
	pushq	%rbx
	.cfi_def_cfa_offset 16
	.cfi_offset 3, -16
	movl	%edi, %ebx
	.loc 1 178 0
	movl	$0, %eax
	call	log_level@PLT
.LVL98:
	testb	$2, %al
	je	.L55
.LVL99:
.LBB90:
.LBB91:
	.loc 3 104 0
	movl	%ebx, %edx
	leaq	.LC6(%rip), %rsi
	movl	$1, %edi
	movl	$0, %eax
	call	__printf_chk@PLT
.LVL100:
.LBE91:
.LBE90:
.LBB92:
.LBB93:
	movl	$10, %edi
	call	putchar@PLT
.LVL101:
.L55:
.LBE93:
.LBE92:
	.loc 1 179 0
	movl	$0, %edx
	movl	$0, %esi
	movl	%ebx, %edi
	call	shmctl@PLT
.LVL102:
	.loc 1 180 0
	popq	%rbx
	.cfi_def_cfa_offset 8
.LVL103:
	ret
	.cfi_endproc
.LFE73:
	.size	ipc_teardown, .-ipc_teardown
	.section	.rodata.str1.1
.LC7:
	.string	"IPC: remote fd is %d\n"
	.text
	.globl	ipc_get_remote
	.type	ipc_get_remote, @function
ipc_get_remote:
.LFB75:
	.loc 1 199 0
	.cfi_startproc
	pushq	%rbp
	.cfi_def_cfa_offset 16
	.cfi_offset 6, -16
	pushq	%rbx
	.cfi_def_cfa_offset 24
	.cfi_offset 3, -24
	subq	$56, %rsp
	.cfi_def_cfa_offset 80
	.loc 1 199 0
	movq	%fs:40, %rax
	movq	%rax, 40(%rsp)
	xorl	%eax, %eax
.LVL104:
	.loc 1 204 0
	call	ipc_get_addr
.LVL105:
	.loc 1 201 0
	movl	$0, %ebx
	.loc 1 205 0
	testq	%rax, %rax
	je	.L58
	movq	%rax, %rbp
	.loc 1 208 0
	movl	(%rax), %ebx
.LVL106:
	.loc 1 211 0
	movl	4(%rax), %edi
	call	log_setlevel@PLT
.LVL107:
	.loc 1 214 0
	movq	%rbp, %rdi
	call	shmdt@PLT
.LVL108:
.L58:
	.loc 1 218 0
	movl	$0, %eax
	call	log_level@PLT
.LVL109:
	testb	$2, %al
	je	.L59
.LVL110:
.LBB94:
.LBB95:
	.loc 3 104 0
	movl	%ebx, %edx
	leaq	.LC7(%rip), %rsi
	movl	$1, %edi
	movl	$0, %eax
	call	__printf_chk@PLT
.LVL111:
.LBE95:
.LBE94:
.LBB96:
.LBB97:
	movl	$10, %edi
	call	putchar@PLT
.LVL112:
.L59:
.LBE97:
.LBE96:
	.loc 1 222 0
	movl	$16, 12(%rsp)
	.loc 1 223 0
	leaq	12(%rsp), %rdx
	leaq	16(%rsp), %rsi
	movl	%ebx, %edi
	call	getpeername@PLT
.LVL113:
	.loc 1 224 0
	testl	%eax, %eax
	movl	$-1, %eax
	cmovs	%eax, %ebx
.LVL114:
	.loc 1 227 0
	movl	%ebx, %eax
	movq	40(%rsp), %rcx
	xorq	%fs:40, %rcx
	je	.L61
	call	__stack_chk_fail@PLT
.LVL115:
.L61:
	addq	$56, %rsp
	.cfi_def_cfa_offset 24
	popq	%rbx
	.cfi_def_cfa_offset 16
	popq	%rbp
	.cfi_def_cfa_offset 8
	ret
	.cfi_endproc
.LFE75:
	.size	ipc_get_remote, .-ipc_get_remote
	.section	.rodata.str1.8
	.align 8
.LC8:
	.string	"IPC: stored remote socket descriptor %d"
	.text
	.globl	ipc_set_remote
	.type	ipc_set_remote, @function
ipc_set_remote:
.LFB76:
	.loc 1 230 0
	.cfi_startproc
.LVL116:
	pushq	%rbp
	.cfi_def_cfa_offset 16
	.cfi_offset 6, -16
	pushq	%rbx
	.cfi_def_cfa_offset 24
	.cfi_offset 3, -24
	subq	$8, %rsp
	.cfi_def_cfa_offset 32
	movl	%edi, %ebp
	.loc 1 232 0
	movl	$0, %eax
	call	ipc_get_addr
.LVL117:
	.loc 1 233 0
	testq	%rax, %rax
	je	.L67
	movq	%rax, %rbx
	.loc 1 236 0
	movl	%ebp, (%rax)
	.loc 1 237 0
	movl	$0, %eax
.LVL118:
	call	log_level@PLT
.LVL119:
	testb	$2, %al
	je	.L66
.LVL120:
.LBB98:
.LBB99:
	.loc 3 104 0
	movl	%ebp, %edx
	leaq	.LC8(%rip), %rsi
	movl	$1, %edi
	movl	$0, %eax
	call	__printf_chk@PLT
.LVL121:
.LBE99:
.LBE98:
.LBB100:
.LBB101:
	movl	$10, %edi
	call	putchar@PLT
.LVL122:
.L66:
.LBE101:
.LBE100:
	.loc 1 240 0
	movl	$0, %eax
	call	log_level@PLT
.LVL123:
	movl	%eax, 4(%rbx)
	.loc 1 243 0
	movq	%rbx, %rdi
	call	shmdt@PLT
.LVL124:
	.loc 1 244 0
	movl	$1, %eax
	jmp	.L65
.LVL125:
.L67:
	.loc 1 247 0
	movl	$-1, %eax
.LVL126:
.L65:
	.loc 1 248 0
	addq	$8, %rsp
	.cfi_def_cfa_offset 24
	popq	%rbx
	.cfi_def_cfa_offset 16
	popq	%rbp
	.cfi_def_cfa_offset 8
.LVL127:
	ret
	.cfi_endproc
.LFE76:
	.size	ipc_set_remote, .-ipc_set_remote
.Letext0:
	.file 6 "/usr/include/stdint.h"
	.file 7 "/usr/include/x86_64-linux-gnu/bits/types.h"
	.file 8 "/usr/include/x86_64-linux-gnu/sys/types.h"
	.file 9 "/usr/lib/gcc/x86_64-linux-gnu/5/include/stddef.h"
	.file 10 "/usr/include/x86_64-linux-gnu/bits/sockaddr.h"
	.file 11 "/usr/include/x86_64-linux-gnu/bits/socket.h"
	.file 12 "/usr/include/netinet/in.h"
	.file 13 "/usr/include/libio.h"
	.file 14 "/usr/include/stdio.h"
	.file 15 "/usr/include/x86_64-linux-gnu/sys/shm.h"
	.file 16 "<built-in>"
	.file 17 "./src/shared/common.h"
	.file 18 "/usr/include/x86_64-linux-gnu/sys/socket.h"
	.section	.note.GNU-stack,"",@progbits
