	.file	"usbservice.cpp"
	.text
.Ltext0:
	.section	.text._ZN5Proto6Packet4sizeEv,"axG",@progbits,_ZN5Proto6Packet4sizeEv,comdat
	.align 2
	.weak	_ZN5Proto6Packet4sizeEv
	.type	_ZN5Proto6Packet4sizeEv, @function
_ZN5Proto6Packet4sizeEv:
.LFB1003:
	.file 1 "./src/proto/protocol.hpp"
	.loc 1 296 0
	.cfi_startproc
.LVL0:
	.loc 1 297 0
	movq	40(%rdi), %rax
	.loc 1 298 0
	ret
	.cfi_endproc
.LFE1003:
	.size	_ZN5Proto6Packet4sizeEv, .-_ZN5Proto6Packet4sizeEv
	.section	.rodata.str1.1,"aMS",@progbits,1
.LC0:
	.string	"%s: "
.LC1:
	.string	"called"
	.text
	.align 2
	.globl	_ZN10UsbService8usb_initEiRN5Proto6PacketE
	.type	_ZN10UsbService8usb_initEiRN5Proto6PacketE, @function
_ZN10UsbService8usb_initEiRN5Proto6PacketE:
.LFB1153:
	.file 2 "src/server/usbservice.cpp"
	.loc 2 87 0
	.cfi_startproc
.LVL1:
	pushq	%rbx
	.cfi_def_cfa_offset 16
	.cfi_offset 3, -16
	.loc 2 89 0
	call	log_level@PLT
.LVL2:
	testb	$4, %al
	je	.L3
.LVL3:
	.loc 2 89 0 discriminator 1
	movq	stderr@GOTPCREL(%rip), %rbx
.LVL4:
.LBB1960:
.LBB1961:
	.file 3 "/usr/include/x86_64-linux-gnu/bits/stdio2.h"
	.loc 3 98 0 discriminator 1
	leaq	_ZZN10UsbService8usb_initEiRN5Proto6PacketEE8__func__(%rip), %rcx
	leaq	.LC0(%rip), %rdx
	movl	$1, %esi
	movq	(%rbx), %rdi
	movl	$0, %eax
	call	__fprintf_chk@PLT
.LVL5:
.LBE1961:
.LBE1960:
.LBB1962:
.LBB1963:
	movq	(%rbx), %rcx
	movl	$6, %edx
	movl	$1, %esi
	leaq	.LC1(%rip), %rdi
	call	fwrite@PLT
.LVL6:
.LBE1963:
.LBE1962:
.LBB1964:
.LBB1965:
	movq	(%rbx), %rsi
	movl	$10, %edi
	call	fputc@PLT
.LVL7:
.L3:
.LBE1965:
.LBE1964:
	.loc 2 90 0
	call	usb_init@PLT
.LVL8:
	.loc 2 91 0
	popq	%rbx
	.cfi_def_cfa_offset 8
	ret
	.cfi_endproc
.LFE1153:
	.size	_ZN10UsbService8usb_initEiRN5Proto6PacketE, .-_ZN10UsbService8usb_initEiRN5Proto6PacketE
	.section	.rodata.str1.1
.LC2:
	.string	"returned %d"
.LC3:
	.string	"basic_string::insert"
	.section	.rodata.str1.8,"aMS",@progbits,1
	.align 8
.LC4:
	.string	"%s: __pos (which is %zu) > this->size() (which is %zu)"
	.text
	.align 2
	.globl	_ZN10UsbService15usb_find_bussesEiRN5Proto6PacketE
	.type	_ZN10UsbService15usb_find_bussesEiRN5Proto6PacketE, @function
_ZN10UsbService15usb_find_bussesEiRN5Proto6PacketE:
.LFB1154:
	.loc 2 94 0
	.cfi_startproc
	.cfi_personality 0x9b,DW.ref.__gxx_personality_v0
	.cfi_lsda 0x1b,.LLSDA1154
.LVL9:
	pushq	%r12
	.cfi_def_cfa_offset 16
	.cfi_offset 12, -16
	pushq	%rbp
	.cfi_def_cfa_offset 24
	.cfi_offset 6, -24
	pushq	%rbx
	.cfi_def_cfa_offset 32
	.cfi_offset 3, -32
	subq	$80, %rsp
	.cfi_def_cfa_offset 112
	movl	%esi, %r12d
	.loc 2 94 0
	movq	%fs:40, %rax
	movq	%rax, 72(%rsp)
	xorl	%eax, %eax
.LEHB0:
	.loc 2 97 0
	call	usb_find_busses@PLT
.LVL10:
	movl	%eax, %ebp
.LVL11:
	.loc 2 98 0
	call	log_level@PLT
.LVL12:
	testb	$4, %al
	je	.L6
.LVL13:
	.loc 2 98 0 discriminator 2
	movq	stderr@GOTPCREL(%rip), %rbx
.LVL14:
.LBB2052:
.LBB2053:
	.loc 3 98 0 discriminator 2
	leaq	_ZZN10UsbService15usb_find_bussesEiRN5Proto6PacketEE8__func__(%rip), %rcx
	leaq	.LC0(%rip), %rdx
	movl	$1, %esi
	movq	(%rbx), %rdi
	movl	$0, %eax
	call	__fprintf_chk@PLT
.LVL15:
.LBE2053:
.LBE2052:
.LBB2054:
.LBB2055:
	movl	%ebp, %ecx
	leaq	.LC2(%rip), %rdx
	movl	$1, %esi
	movq	(%rbx), %rdi
	movl	$0, %eax
	call	__fprintf_chk@PLT
.LVL16:
.LBE2055:
.LBE2054:
.LBB2056:
.LBB2057:
	movq	(%rbx), %rsi
	movl	$10, %edi
	call	fputc@PLT
.LVL17:
.L6:
.LBE2057:
.LBE2056:
.LBB2058:
.LBB2059:
	.loc 1 279 0
	movq	%rsp, %rbx
	leaq	32(%rsp), %rsi
	movl	$0, %edx
	movq	%rsp, %rdi
	call	_ZN5Proto6StructC2ERNSt7__cxx1112basic_stringIcSt11char_traitsIcESaIcEEEi@PLT
.LVL18:
.LEHE0:
	movq	_ZTVN5Proto6PacketE@GOTPCREL(%rip), %rax
	leaq	16(%rax), %rax
	movq	%rax, (%rsp)
.LVL19:
.LBB2060:
.LBB2061:
.LBB2062:
	.file 4 "/usr/include/c++/5/bits/basic_string.h"
	.loc 4 109 0
	addq	$48, %rbx
	movq	%rbx, 32(%rsp)
.LVL20:
.LBE2062:
.LBE2061:
.LBB2063:
.LBB2064:
.LBB2065:
	.loc 4 131 0
	movq	$0, 40(%rsp)
.LVL21:
.LBE2065:
.LBE2064:
.LBB2066:
.LBB2067:
	.file 5 "/usr/include/c++/5/bits/char_traits.h"
	.loc 5 243 0
	movb	$0, 48(%rsp)
.LVL22:
.LBE2067:
.LBE2066:
.LBE2063:
.LBE2060:
.LBB2068:
.LBB2069:
	.loc 1 91 0
	movslq	20(%rsp), %rsi
	movq	8(%rsp), %rdi
.LVL23:
.LBB2070:
.LBB2071:
.LBB2072:
.LBB2073:
.LBB2074:
.LBB2075:
	.loc 4 716 0
	movq	8(%rdi), %rcx
.LVL24:
.LBE2075:
.LBE2074:
	.loc 4 260 0
	cmpq	%rcx, %rsi
	jbe	.L7
	.loc 4 261 0
	movq	%rsi, %rdx
	leaq	.LC3(%rip), %rsi
.LVL25:
	leaq	.LC4(%rip), %rdi
.LVL26:
	movl	$0, %eax
.LEHB1:
	call	_ZSt24__throw_out_of_range_fmtPKcz@PLT
.LVL27:
.L7:
.LBE2073:
.LBE2072:
	.loc 4 1418 0
	movl	$50, %r8d
	movl	$1, %ecx
	movl	$0, %edx
	call	_ZNSt7__cxx1112basic_stringIcSt11char_traitsIcESaIcEE14_M_replace_auxEmmmc@PLT
.LVL28:
.LEHE1:
.LBE2071:
.LBE2070:
	.loc 1 92 0
	addl	$1, 24(%rsp)
	addl	$1, 20(%rsp)
.LVL29:
.LBE2069:
.LBE2068:
.LBE2059:
.LBE2058:
.LBB2087:
.LBB2088:
	.loc 1 156 0
	movq	%rsp, %rdi
	movl	%ebp, %ecx
	movl	$4, %edx
	movl	$2, %esi
.LEHB2:
	call	_ZN5Proto6Struct10addNumericEhhj@PLT
.LVL30:
.LEHE2:
	jmp	.L17
.LVL31:
.L16:
	movq	%rax, %rbx
.LVL32:
.LBE2088:
.LBE2087:
.LBB2089:
.LBB2086:
.LBB2076:
.LBB2077:
.LBB2078:
.LBB2079:
.LBB2080:
.LBB2081:
	.loc 4 135 0
	movq	32(%rsp), %rdi
.LVL33:
.LBE2081:
.LBE2080:
.LBE2079:
	.loc 4 179 0
	leaq	48(%rsp), %rax
	cmpq	%rax, %rdi
	je	.L10
.LVL34:
.LBB2082:
.LBB2083:
.LBB2084:
.LBB2085:
	.file 6 "/usr/include/c++/5/ext/new_allocator.h"
	.loc 6 110 0
	call	_ZdlPv@PLT
.LVL35:
.L10:
	movq	%rbx, %rdi
.LEHB3:
	call	_Unwind_Resume@PLT
.LVL36:
.LEHE3:
.L17:
.LBE2085:
.LBE2084:
.LBE2083:
.LBE2082:
.LBE2078:
.LBE2077:
.LBE2076:
.LBE2086:
.LBE2089:
	.loc 2 103 0
	movq	%rsp, %rdi
	movl	%r12d, %esi
.LEHB4:
	call	_ZN5Proto6Packet4sendEi@PLT
.LVL37:
.LEHE4:
.LBB2090:
.LBB2091:
	.loc 1 273 0
	movq	_ZTVN5Proto6PacketE@GOTPCREL(%rip), %rax
	leaq	16(%rax), %rax
	movq	%rax, (%rsp)
.LVL38:
.LBB2092:
.LBB2093:
.LBB2094:
.LBB2095:
.LBB2096:
.LBB2097:
	.loc 4 135 0
	movq	32(%rsp), %rdi
.LVL39:
.LBE2097:
.LBE2096:
.LBE2095:
	.loc 4 179 0
	leaq	48(%rsp), %rax
	cmpq	%rax, %rdi
	je	.L5
.LVL40:
.LBB2098:
.LBB2099:
.LBB2100:
.LBB2101:
	.loc 6 110 0
	call	_ZdlPv@PLT
.LVL41:
.LBE2101:
.LBE2100:
.LBE2099:
.LBE2098:
.LBE2094:
.LBE2093:
.LBE2092:
.LBE2091:
.LBE2090:
	.loc 2 104 0
	jmp	.L5
.LVL42:
.L15:
	movq	%rax, %rbx
.LVL43:
.LBB2102:
.LBB2103:
	.loc 1 273 0
	movq	_ZTVN5Proto6PacketE@GOTPCREL(%rip), %rax
	leaq	16(%rax), %rax
	movq	%rax, (%rsp)
.LVL44:
.LBB2104:
.LBB2105:
.LBB2106:
.LBB2107:
.LBB2108:
.LBB2109:
	.loc 4 135 0
	movq	32(%rsp), %rdi
.LVL45:
.LBE2109:
.LBE2108:
.LBE2107:
	.loc 4 179 0
	leaq	48(%rsp), %rax
	cmpq	%rax, %rdi
	je	.L13
.LVL46:
.LBB2110:
.LBB2111:
.LBB2112:
.LBB2113:
	.loc 6 110 0
	call	_ZdlPv@PLT
.LVL47:
.L13:
	movq	%rbx, %rdi
.LEHB5:
	call	_Unwind_Resume@PLT
.LVL48:
.LEHE5:
.L5:
.LBE2113:
.LBE2112:
.LBE2111:
.LBE2110:
.LBE2106:
.LBE2105:
.LBE2104:
.LBE2103:
.LBE2102:
	.loc 2 104 0
	movq	72(%rsp), %rax
	xorq	%fs:40, %rax
	je	.L14
	call	__stack_chk_fail@PLT
.LVL49:
.L14:
	addq	$80, %rsp
	.cfi_def_cfa_offset 32
.LVL50:
	popq	%rbx
	.cfi_def_cfa_offset 24
.LVL51:
	popq	%rbp
	.cfi_def_cfa_offset 16
.LVL52:
	popq	%r12
	.cfi_def_cfa_offset 8
.LVL53:
	ret
	.cfi_endproc
.LFE1154:
	.globl	__gxx_personality_v0
	.section	.gcc_except_table,"a",@progbits
.LLSDA1154:
	.byte	0xff
	.byte	0xff
	.byte	0x1
	.uleb128 .LLSDACSE1154-.LLSDACSB1154
.LLSDACSB1154:
	.uleb128 .LEHB0-.LFB1154
	.uleb128 .LEHE0-.LEHB0
	.uleb128 0
	.uleb128 0
	.uleb128 .LEHB1-.LFB1154
	.uleb128 .LEHE1-.LEHB1
	.uleb128 .L16-.LFB1154
	.uleb128 0
	.uleb128 .LEHB2-.LFB1154
	.uleb128 .LEHE2-.LEHB2
	.uleb128 .L15-.LFB1154
	.uleb128 0
	.uleb128 .LEHB3-.LFB1154
	.uleb128 .LEHE3-.LEHB3
	.uleb128 0
	.uleb128 0
	.uleb128 .LEHB4-.LFB1154
	.uleb128 .LEHE4-.LEHB4
	.uleb128 .L15-.LFB1154
	.uleb128 0
	.uleb128 .LEHB5-.LFB1154
	.uleb128 .LEHE5-.LEHB5
	.uleb128 0
	.uleb128 0
.LLSDACSE1154:
	.text
	.size	_ZN10UsbService15usb_find_bussesEiRN5Proto6PacketE, .-_ZN10UsbService15usb_find_bussesEiRN5Proto6PacketE
	.align 2
	.globl	_ZN10UsbService16usb_find_devicesEiRN5Proto6PacketE
	.type	_ZN10UsbService16usb_find_devicesEiRN5Proto6PacketE, @function
_ZN10UsbService16usb_find_devicesEiRN5Proto6PacketE:
.LFB1158:
	.loc 2 107 0
	.cfi_startproc
	.cfi_personality 0x9b,DW.ref.__gxx_personality_v0
	.cfi_lsda 0x1b,.LLSDA1158
.LVL54:
	pushq	%r15
	.cfi_def_cfa_offset 16
	.cfi_offset 15, -16
	pushq	%r14
	.cfi_def_cfa_offset 24
	.cfi_offset 14, -24
	pushq	%r13
	.cfi_def_cfa_offset 32
	.cfi_offset 13, -32
	pushq	%r12
	.cfi_def_cfa_offset 40
	.cfi_offset 12, -40
	pushq	%rbp
	.cfi_def_cfa_offset 48
	.cfi_offset 6, -48
	pushq	%rbx
	.cfi_def_cfa_offset 56
	.cfi_offset 3, -56
	subq	$328, %rsp
	.cfi_def_cfa_offset 384
	movl	%esi, 44(%rsp)
	.loc 2 107 0
	movq	%fs:40, %rax
	movq	%rax, 312(%rsp)
	xorl	%eax, %eax
.LEHB6:
	.loc 2 110 0
	call	usb_find_devices@PLT
.LVL55:
	movl	%eax, %ebp
.LVL56:
	.loc 2 111 0
	call	log_level@PLT
.LVL57:
	testb	$4, %al
	je	.L20
.LVL58:
	.loc 2 111 0 discriminator 2
	movq	stderr@GOTPCREL(%rip), %rbx
.LVL59:
.LBB2256:
.LBB2257:
	.loc 3 98 0 discriminator 2
	leaq	_ZZN10UsbService16usb_find_devicesEiRN5Proto6PacketEE8__func__(%rip), %rcx
	leaq	.LC0(%rip), %rdx
	movl	$1, %esi
	movq	(%rbx), %rdi
	movl	$0, %eax
	call	__fprintf_chk@PLT
.LVL60:
.LBE2257:
.LBE2256:
.LBB2258:
.LBB2259:
	movl	%ebp, %ecx
	leaq	.LC2(%rip), %rdx
	movl	$1, %esi
	movq	(%rbx), %rdi
	movl	$0, %eax
	call	__fprintf_chk@PLT
.LVL61:
.LBE2259:
.LBE2258:
.LBB2260:
.LBB2261:
	movq	(%rbx), %rsi
	movl	$10, %edi
	call	fputc@PLT
.LVL62:
.L20:
.LBE2261:
.LBE2260:
.LBB2262:
.LBB2263:
	.loc 1 279 0
	leaq	240(%rsp), %rbx
.LVL63:
	leaq	272(%rsp), %rsi
	movl	$0, %edx
	movq	%rbx, %rdi
	call	_ZN5Proto6StructC2ERNSt7__cxx1112basic_stringIcSt11char_traitsIcESaIcEEEi@PLT
.LVL64:
.LEHE6:
	movq	_ZTVN5Proto6PacketE@GOTPCREL(%rip), %rax
	leaq	16(%rax), %rax
	movq	%rax, 240(%rsp)
.LVL65:
.LBB2264:
.LBB2265:
.LBB2266:
	.loc 4 109 0
	addq	$48, %rbx
.LVL66:
	movq	%rbx, 272(%rsp)
.LVL67:
.LBE2266:
.LBE2265:
.LBB2267:
.LBB2268:
.LBB2269:
	.loc 4 131 0
	movq	$0, 280(%rsp)
.LVL68:
.LBE2269:
.LBE2268:
.LBB2270:
.LBB2271:
	.loc 5 243 0
	movb	$0, 288(%rsp)
.LVL69:
.LBE2271:
.LBE2270:
.LBE2267:
.LBE2264:
.LBB2272:
.LBB2273:
	.loc 1 91 0
	movslq	260(%rsp), %rsi
	movq	248(%rsp), %rdi
.LVL70:
.LBB2274:
.LBB2275:
.LBB2276:
.LBB2277:
.LBB2278:
.LBB2279:
	.loc 4 716 0
	movq	8(%rdi), %rcx
.LVL71:
.LBE2279:
.LBE2278:
	.loc 4 260 0
	cmpq	%rcx, %rsi
	jbe	.L21
	.loc 4 261 0
	movq	%rsi, %rdx
	leaq	.LC3(%rip), %rsi
.LVL72:
	leaq	.LC4(%rip), %rdi
.LVL73:
	movl	$0, %eax
.LEHB7:
	call	_ZSt24__throw_out_of_range_fmtPKcz@PLT
.LVL74:
.L21:
.LBE2277:
.LBE2276:
	.loc 4 1418 0
	movl	$51, %r8d
	movl	$1, %ecx
	movl	$0, %edx
	call	_ZNSt7__cxx1112basic_stringIcSt11char_traitsIcESaIcEE14_M_replace_auxEmmmc@PLT
.LVL75:
.LEHE7:
.LBE2275:
.LBE2274:
	.loc 1 92 0
	addl	$1, 264(%rsp)
	addl	$1, 260(%rsp)
.LVL76:
.LBE2273:
.LBE2272:
.LBE2263:
.LBE2262:
.LBB2291:
.LBB2292:
	.loc 1 156 0
	leaq	240(%rsp), %rdi
.LVL77:
	movl	%ebp, %ecx
	movl	$4, %edx
	movl	$2, %esi
.LEHB8:
	call	_ZN5Proto6Struct10addNumericEhhj@PLT
.LVL78:
.LEHE8:
	jmp	.L55
.LVL79:
.L46:
	movq	%rax, %rbx
.LVL80:
.LBE2292:
.LBE2291:
.LBB2293:
.LBB2290:
.LBB2280:
.LBB2281:
.LBB2282:
.LBB2283:
.LBB2284:
.LBB2285:
	.loc 4 135 0
	movq	272(%rsp), %rdi
.LVL81:
.LBE2285:
.LBE2284:
.LBE2283:
	.loc 4 179 0
	leaq	288(%rsp), %rax
	cmpq	%rax, %rdi
	je	.L24
.LVL82:
.LBB2286:
.LBB2287:
.LBB2288:
.LBB2289:
	.loc 6 110 0
	call	_ZdlPv@PLT
.LVL83:
.L24:
	movq	%rbx, %rdi
.LEHB9:
	call	_Unwind_Resume@PLT
.LVL84:
.LEHE9:
.L55:
.LEHB10:
.LBE2289:
.LBE2288:
.LBE2287:
.LBE2286:
.LBE2282:
.LBE2281:
.LBE2280:
.LBE2290:
.LBE2293:
.LBB2294:
	.loc 2 119 0
	call	usb_get_busses@PLT
.LVL85:
	movq	%rax, 16(%rsp)
.LVL86:
	testq	%rax, %rax
	je	.L25
.LBB2295:
.LBB2296:
.LBB2297:
	.loc 1 107 0
	leaq	96(%rsp), %rax
.LVL87:
	movq	%rax, 24(%rsp)
.LBE2297:
.LBE2296:
.LBB2307:
.LBB2308:
.LBB2309:
.LBB2310:
	leaq	128(%rsp), %r13
.LBE2310:
.LBE2309:
	.loc 2 140 0
	leaq	64(%rsp), %rax
	movq	%rax, 48(%rsp)
.LBB2320:
.LBB2321:
.LBB2322:
.LBB2323:
	.file 7 "/usr/include/x86_64-linux-gnu/bits/string3.h"
	.loc 7 53 0
	leaq	192(%rsp), %rax
	movq	%rax, 56(%rsp)
.LVL88:
.L47:
.LBE2323:
.LBE2322:
.LBE2321:
.LBE2320:
.LBE2308:
.LBE2307:
.LBB2362:
.LBB2306:
	.loc 1 107 0
	movq	248(%rsp), %rsi
	movl	8(%rsi), %edx
	movq	24(%rsp), %rdi
	call	_ZN5Proto6StructC1ERNSt7__cxx1112basic_stringIcSt11char_traitsIcESaIcEEEi@PLT
.LVL89:
.LBB2298:
.LBB2299:
	.loc 1 91 0
	movslq	116(%rsp), %rsi
	movq	104(%rsp), %rdi
.LVL90:
.LBB2300:
.LBB2301:
.LBB2302:
.LBB2303:
.LBB2304:
.LBB2305:
	.loc 4 716 0
	movq	8(%rdi), %rcx
.LVL91:
.LBE2305:
.LBE2304:
	.loc 4 260 0
	cmpq	%rcx, %rsi
	jbe	.L26
	.loc 4 261 0
	movq	%rsi, %rdx
	leaq	.LC3(%rip), %rsi
.LVL92:
	leaq	.LC4(%rip), %rdi
.LVL93:
	movl	$0, %eax
	call	_ZSt24__throw_out_of_range_fmtPKcz@PLT
.LVL94:
.L26:
.LBE2303:
.LBE2302:
	.loc 4 1418 0
	movl	$32, %r8d
	movl	$1, %ecx
	movl	$0, %edx
	call	_ZNSt7__cxx1112basic_stringIcSt11char_traitsIcESaIcEE14_M_replace_auxEmmmc@PLT
.LVL95:
.LBE2301:
.LBE2300:
	.loc 1 92 0
	addl	$1, 120(%rsp)
	addl	$1, 116(%rsp)
.LVL96:
.LBE2299:
.LBE2298:
.LBE2306:
.LBE2362:
	.loc 2 122 0
	movq	16(%rsp), %rbx
	leaq	16(%rbx), %rsi
	movl	$4, %edx
	movq	24(%rsp), %r15
	movq	%r15, %rdi
	call	_ZN5Proto6Struct9addStringEPKch@PLT
.LVL97:
.LBB2363:
.LBB2364:
	.loc 1 141 0
	movl	4128(%rbx), %ecx
	movl	$4, %edx
	movl	$3, %esi
	movq	%r15, %rdi
	call	_ZN5Proto6Struct10addNumericEhhj@PLT
.LVL98:
.LBE2364:
.LBE2363:
.LBB2365:
	.loc 2 126 0
	movq	4120(%rbx), %rax
	movq	%rax, (%rsp)
.LVL99:
	testq	%rax, %rax
	je	.L27
.LBB2361:
.LBB2352:
.LBB2350:
.LBB2325:
.LBB2326:
.LBB2327:
.LBB2328:
.LBB2329:
.LBB2330:
.LBB2331:
.LBB2332:
	.loc 7 53 0
	leaq	160(%rsp), %rbx
.L48:
.LVL100:
.LBE2332:
.LBE2331:
.LBE2330:
.LBE2329:
.LBE2328:
.LBE2327:
.LBE2326:
.LBE2325:
.LBE2350:
.LBE2352:
.LBB2353:
.LBB2319:
	.loc 1 107 0
	movq	104(%rsp), %rsi
	movl	8(%rsi), %edx
	movq	%r13, %rdi
	call	_ZN5Proto6StructC1ERNSt7__cxx1112basic_stringIcSt11char_traitsIcESaIcEEEi@PLT
.LVL101:
.LBB2311:
.LBB2312:
	.loc 1 91 0
	movslq	148(%rsp), %rsi
	movq	136(%rsp), %rdi
.LVL102:
.LBB2313:
.LBB2314:
.LBB2315:
.LBB2316:
.LBB2317:
.LBB2318:
	.loc 4 716 0
	movq	8(%rdi), %rcx
.LVL103:
.LBE2318:
.LBE2317:
	.loc 4 260 0
	cmpq	%rcx, %rsi
	jbe	.L28
	.loc 4 261 0
	movq	%rsi, %rdx
	leaq	.LC3(%rip), %rsi
.LVL104:
	leaq	.LC4(%rip), %rdi
.LVL105:
	movl	$0, %eax
	call	_ZSt24__throw_out_of_range_fmtPKcz@PLT
.LVL106:
.L28:
.LBE2316:
.LBE2315:
	.loc 4 1418 0
	movl	$16, %r8d
	movl	$1, %ecx
	movl	$0, %edx
	call	_ZNSt7__cxx1112basic_stringIcSt11char_traitsIcESaIcEE14_M_replace_auxEmmmc@PLT
.LVL107:
.LBE2314:
.LBE2313:
	.loc 1 92 0
	addl	$1, 152(%rsp)
	addl	$1, 148(%rsp)
.LVL108:
.LBE2312:
.LBE2311:
.LBE2319:
.LBE2353:
	.loc 2 129 0
	movq	(%rsp), %r15
	leaq	16(%r15), %rsi
	movl	$4, %edx
	movq	%r13, %rdi
	call	_ZN5Proto6Struct9addStringEPKch@PLT
.LVL109:
.LBB2354:
.LBB2355:
	.loc 1 131 0
	movzbl	4168(%r15), %ecx
	movl	$1, %edx
	movl	$3, %esi
	movq	%r13, %rdi
	call	_ZN5Proto6Struct10addNumericEhhj@PLT
.LVL110:
	movq	4128(%r15), %rdx
	movq	%rdx, 64(%rsp)
	movq	4136(%r15), %rax
	movq	%rax, 72(%rsp)
	movzwl	4144(%r15), %ecx
	movw	%cx, 80(%rsp)
.LVL111:
.LBE2355:
.LBE2354:
.LBB2356:
	.loc 2 136 0
	shrl	$16, %edx
#APP
# 136 "src/server/usbservice.cpp" 1
	rorw $8, %dx
# 0 "" 2
.LVL112:
	.loc 2 136 0
#NO_APP
	movw	%dx, 66(%rsp)
.LVL113:
.LBE2356:
.LBB2357:
	.loc 2 137 0
	movl	%eax, %edx
.LVL114:
#APP
# 137 "src/server/usbservice.cpp" 1
	rorw $8, %dx
# 0 "" 2
.LVL115:
	.loc 2 137 0
#NO_APP
	movw	%dx, 72(%rsp)
.LVL116:
.LBE2357:
.LBB2358:
	.loc 2 138 0
	movl	%eax, %edi
	shrl	$16, %edi
	movl	%edi, %edx
.LVL117:
#APP
# 138 "src/server/usbservice.cpp" 1
	rorw $8, %dx
# 0 "" 2
.LVL118:
	.loc 2 138 0
#NO_APP
	movw	%dx, 74(%rsp)
.LVL119:
.LBE2358:
.LBB2359:
	.loc 2 139 0
	shrq	$32, %rax
#APP
# 139 "src/server/usbservice.cpp" 1
	rorw $8, %ax
# 0 "" 2
.LVL120:
	.loc 2 139 0
#NO_APP
	movw	%ax, 76(%rsp)
.LVL121:
.LBE2359:
	.loc 2 140 0
	movl	$33, %ecx
	movl	$18, %edx
.LVL122:
	movq	48(%rsp), %rsi
	movq	%r13, %rdi
	call	_ZN5Proto6Struct7addDataEPKcmh@PLT
.LVL123:
.LBB2360:
	.loc 2 143 0 discriminator 1
	cmpb	$0, 4145(%r15)
	je	.L29
	.loc 2 143 0 is_stmt 0
	movl	$0, 12(%rsp)
.LVL124:
.L38:
.LBB2351:
	.loc 2 144 0 is_stmt 1
	movl	12(%rsp), %eax
	leaq	(%rax,%rax,4), %rdx
	movq	(%rsp), %rax
	movq	4152(%rax), %rax
	leaq	(%rax,%rdx,8), %rax
	movq	%rax, %r15
	movq	%rax, 32(%rsp)
.LVL125:
.LBB2347:
.LBB2324:
	.loc 7 53 0
	movq	(%rax), %rax
.LVL126:
	movq	56(%rsp), %rdi
	movq	%rax, (%rdi)
	movq	8(%r15), %rax
	movq	%rax, 8(%rdi)
	movq	16(%r15), %rax
	movq	%rax, 16(%rdi)
	movq	24(%r15), %rax
	movq	%rax, 24(%rdi)
	movq	32(%r15), %rax
	movq	%rax, 32(%rdi)
.LVL127:
.LBE2324:
.LBE2347:
.LBB2348:
	.loc 2 149 0
	movzwl	194(%rsp), %eax
#APP
# 149 "src/server/usbservice.cpp" 1
	rorw $8, %ax
# 0 "" 2
.LVL128:
	.loc 2 149 0
#NO_APP
	movw	%ax, 194(%rsp)
.LVL129:
.LBE2348:
	.loc 2 150 0
	movl	$33, %ecx
	movl	$40, %edx
	movq	%rdi, %rsi
	movq	%r13, %rdi
	call	_ZN5Proto6Struct7addDataEPKcmh@PLT
.LVL130:
.LBB2349:
	.loc 2 153 0 discriminator 1
	cmpb	$0, 4(%r15)
	je	.L30
	.loc 2 153 0 is_stmt 0
	movl	$0, 40(%rsp)
.LVL131:
.L37:
.LBB2346:
	.loc 2 154 0 is_stmt 1
	movl	40(%rsp), %r15d
	salq	$4, %r15
	movq	32(%rsp), %rax
	addq	16(%rax), %r15
.LVL132:
.LBB2343:
.LBB2344:
	.loc 1 156 0
	movl	8(%r15), %ecx
	movl	$4, %edx
	movl	$2, %esi
	movq	%r13, %rdi
	call	_ZN5Proto6Struct10addNumericEhhj@PLT
.LVL133:
.LBE2344:
.LBE2343:
.LBB2345:
	.loc 2 158 0 discriminator 1
	cmpl	$0, 8(%r15)
	je	.L31
	.loc 2 158 0 is_stmt 0
	movl	$0, %r14d
.LVL134:
.L36:
.LBB2342:
	.loc 2 159 0 is_stmt 1
	movl	%r14d, %eax
	leaq	(%rax,%rax,4), %rdx
	movq	(%r15), %rax
	leaq	(%rax,%rdx,8), %r12
.LVL135:
	.loc 2 162 0
	movl	$33, %ecx
	movl	$40, %edx
	movq	%r12, %rsi
	movq	%r13, %rdi
	call	_ZN5Proto6Struct7addDataEPKcmh@PLT
.LVL136:
.LBB2337:
	.loc 2 165 0 discriminator 1
	cmpb	$0, 4(%r12)
	je	.L32
	.loc 2 165 0 is_stmt 0
	movl	$0, %ebp
.LVL137:
.L33:
.LBB2336:
.LBB2334:
.LBB2333:
	.loc 7 53 0 is_stmt 1
	movl	%ebp, %eax
	salq	$5, %rax
	addq	16(%r12), %rax
.LVL138:
	movq	(%rax), %rdx
	movq	%rdx, (%rbx)
	movq	8(%rax), %rdx
	movq	%rdx, 8(%rbx)
	movq	16(%rax), %rdx
	movq	%rdx, 16(%rbx)
	movq	24(%rax), %rax
.LVL139:
	movq	%rax, 24(%rbx)
.LVL140:
.LBE2333:
.LBE2334:
.LBB2335:
	.loc 2 171 0
	movzwl	164(%rsp), %eax
#APP
# 171 "src/server/usbservice.cpp" 1
	rorw $8, %ax
# 0 "" 2
.LVL141:
	.loc 2 171 0
#NO_APP
	movw	%ax, 164(%rsp)
.LVL142:
.LBE2335:
	.loc 2 172 0
	movl	$33, %ecx
	movl	$32, %edx
	movq	%rbx, %rsi
	movq	%r13, %rdi
	call	_ZN5Proto6Struct7addDataEPKcmh@PLT
.LVL143:
.LBE2336:
	.loc 2 165 0 discriminator 2
	addl	$1, %ebp
.LVL144:
	movzbl	4(%r12), %eax
	cmpl	%ebp, %eax
	ja	.L33
.LVL145:
.L32:
.LBE2337:
	.loc 2 176 0
	movl	32(%r12), %ecx
	testl	%ecx, %ecx
	jle	.L34
.LVL146:
.LBB2338:
.LBB2339:
	.loc 1 156 0
	movl	$4, %edx
	movl	$2, %esi
	movq	%r13, %rdi
	call	_ZN5Proto6Struct10addNumericEhhj@PLT
.LVL147:
.LBE2339:
.LBE2338:
	.loc 2 178 0
	movslq	32(%r12), %rdx
	movq	24(%r12), %rsi
	movl	$33, %ecx
	movq	%r13, %rdi
	call	_ZN5Proto6Struct7addDataEPKcmh@PLT
.LVL148:
	jmp	.L35
.L34:
.LVL149:
.LBB2340:
.LBB2341:
	.loc 1 156 0
	movl	$0, %ecx
	movl	$4, %edx
	movl	$2, %esi
	movq	%r13, %rdi
	call	_ZN5Proto6Struct10addNumericEhhj@PLT
.LVL150:
.L35:
.LBE2341:
.LBE2340:
.LBE2342:
	.loc 2 158 0 discriminator 2
	addl	$1, %r14d
.LVL151:
	cmpl	%r14d, 8(%r15)
	ja	.L36
.LVL152:
.L31:
.LBE2345:
.LBE2346:
	.loc 2 153 0 discriminator 2
	addl	$1, 40(%rsp)
.LVL153:
	movl	40(%rsp), %edi
.LVL154:
	movq	32(%rsp), %rax
	movzbl	4(%rax), %eax
	cmpl	%edi, %eax
	ja	.L37
.LVL155:
.L30:
.LBE2349:
.LBE2351:
	.loc 2 143 0 discriminator 2
	addl	$1, 12(%rsp)
.LVL156:
	movl	12(%rsp), %edi
.LVL157:
	movq	(%rsp), %rax
	movzbl	4145(%rax), %eax
	cmpl	%edi, %eax
	ja	.L38
.LVL158:
.L29:
.LBE2360:
	.loc 2 186 0
	movq	%r13, %rdi
	call	_ZN5Proto6Struct8finalizeEv@PLT
.LVL159:
.LBE2361:
	.loc 2 126 0 discriminator 2
	movq	(%rsp), %rax
	movq	(%rax), %rax
	movq	%rax, (%rsp)
.LVL160:
	testq	%rax, %rax
	jne	.L48
.LVL161:
.L27:
.LBE2365:
	.loc 2 190 0
	movq	24(%rsp), %rdi
	call	_ZN5Proto6Struct8finalizeEv@PLT
.LVL162:
.LBE2295:
	.loc 2 119 0 discriminator 3
	movq	16(%rsp), %rax
	movq	(%rax), %rax
	movq	%rax, 16(%rsp)
.LVL163:
	testq	%rax, %rax
	jne	.L47
.LVL164:
.L25:
.LBE2294:
	.loc 2 194 0
	leaq	240(%rsp), %rdi
.LVL165:
	movl	44(%rsp), %esi
	call	_ZN5Proto6Packet4sendEi@PLT
.LVL166:
.LEHE10:
.LBB2366:
.LBB2367:
	.loc 1 273 0
	movq	_ZTVN5Proto6PacketE@GOTPCREL(%rip), %rax
	leaq	16(%rax), %rax
	movq	%rax, 240(%rsp)
.LVL167:
.LBB2368:
.LBB2369:
.LBB2370:
.LBB2371:
.LBB2372:
.LBB2373:
	.loc 4 135 0
	movq	272(%rsp), %rdi
.LVL168:
.LBE2373:
.LBE2372:
.LBE2371:
	.loc 4 179 0
	leaq	288(%rsp), %rax
	cmpq	%rax, %rdi
	je	.L19
.LVL169:
.LBB2374:
.LBB2375:
.LBB2376:
.LBB2377:
	.loc 6 110 0
	call	_ZdlPv@PLT
.LVL170:
.LBE2377:
.LBE2376:
.LBE2375:
.LBE2374:
.LBE2370:
.LBE2369:
.LBE2368:
.LBE2367:
.LBE2366:
	.loc 2 195 0
	jmp	.L19
.LVL171:
.L45:
	movq	%rax, %rbx
.LVL172:
.LBB2378:
.LBB2379:
	.loc 1 273 0
	movq	_ZTVN5Proto6PacketE@GOTPCREL(%rip), %rax
	leaq	16(%rax), %rax
	movq	%rax, 240(%rsp)
.LVL173:
.LBB2380:
.LBB2381:
.LBB2382:
.LBB2383:
.LBB2384:
.LBB2385:
	.loc 4 135 0
	movq	272(%rsp), %rdi
.LVL174:
.LBE2385:
.LBE2384:
.LBE2383:
	.loc 4 179 0
	leaq	288(%rsp), %rax
	cmpq	%rax, %rdi
	je	.L43
.LVL175:
.LBB2386:
.LBB2387:
.LBB2388:
.LBB2389:
	.loc 6 110 0
	call	_ZdlPv@PLT
.LVL176:
.L43:
	movq	%rbx, %rdi
.LEHB11:
	call	_Unwind_Resume@PLT
.LVL177:
.LEHE11:
.L19:
.LBE2389:
.LBE2388:
.LBE2387:
.LBE2386:
.LBE2382:
.LBE2381:
.LBE2380:
.LBE2379:
.LBE2378:
	.loc 2 195 0
	movq	312(%rsp), %rax
	xorq	%fs:40, %rax
	je	.L44
	call	__stack_chk_fail@PLT
.LVL178:
.L44:
	addq	$328, %rsp
	.cfi_def_cfa_offset 56
	popq	%rbx
	.cfi_def_cfa_offset 48
	popq	%rbp
	.cfi_def_cfa_offset 40
	popq	%r12
	.cfi_def_cfa_offset 32
	popq	%r13
	.cfi_def_cfa_offset 24
	popq	%r14
	.cfi_def_cfa_offset 16
	popq	%r15
	.cfi_def_cfa_offset 8
	ret
	.cfi_endproc
.LFE1158:
	.section	.gcc_except_table
.LLSDA1158:
	.byte	0xff
	.byte	0xff
	.byte	0x1
	.uleb128 .LLSDACSE1158-.LLSDACSB1158
.LLSDACSB1158:
	.uleb128 .LEHB6-.LFB1158
	.uleb128 .LEHE6-.LEHB6
	.uleb128 0
	.uleb128 0
	.uleb128 .LEHB7-.LFB1158
	.uleb128 .LEHE7-.LEHB7
	.uleb128 .L46-.LFB1158
	.uleb128 0
	.uleb128 .LEHB8-.LFB1158
	.uleb128 .LEHE8-.LEHB8
	.uleb128 .L45-.LFB1158
	.uleb128 0
	.uleb128 .LEHB9-.LFB1158
	.uleb128 .LEHE9-.LEHB9
	.uleb128 0
	.uleb128 0
	.uleb128 .LEHB10-.LFB1158
	.uleb128 .LEHE10-.LEHB10
	.uleb128 .L45-.LFB1158
	.uleb128 0
	.uleb128 .LEHB11-.LFB1158
	.uleb128 .LEHE11-.LEHB11
	.uleb128 0
	.uleb128 0
.LLSDACSE1158:
	.text
	.size	_ZN10UsbService16usb_find_devicesEiRN5Proto6PacketE, .-_ZN10UsbService16usb_find_devicesEiRN5Proto6PacketE
	.section	.rodata.str1.8
	.align 8
.LC5:
	.string	"bus_id %u, dev_id %u = %d (fd %d)"
	.text
	.align 2
	.globl	_ZN10UsbService8usb_openEiRN5Proto6PacketE
	.type	_ZN10UsbService8usb_openEiRN5Proto6PacketE, @function
_ZN10UsbService8usb_openEiRN5Proto6PacketE:
.LFB1159:
	.loc 2 198 0
	.cfi_startproc
	.cfi_personality 0x9b,DW.ref.__gxx_personality_v0
	.cfi_lsda 0x1b,.LLSDA1159
.LVL179:
	pushq	%r15
	.cfi_def_cfa_offset 16
	.cfi_offset 15, -16
	pushq	%r14
	.cfi_def_cfa_offset 24
	.cfi_offset 14, -24
	pushq	%r13
	.cfi_def_cfa_offset 32
	.cfi_offset 13, -32
	pushq	%r12
	.cfi_def_cfa_offset 40
	.cfi_offset 12, -40
	pushq	%rbp
	.cfi_def_cfa_offset 48
	.cfi_offset 6, -48
	pushq	%rbx
	.cfi_def_cfa_offset 56
	.cfi_offset 3, -56
	subq	$120, %rsp
	.cfi_def_cfa_offset 176
	movq	%rdi, %r12
	movl	%esi, %r13d
	.loc 2 198 0
	movq	%fs:40, %rax
	movq	%rax, 104(%rsp)
	xorl	%eax, %eax
.LVL180:
.LBB2536:
.LBB2537:
	.loc 1 178 0
	movb	$0, (%rsp)
	movl	$0, 4(%rsp)
	movq	$0, 8(%rsp)
	movq	%rdx, 16(%rsp)
	movl	$0, 24(%rsp)
	.loc 1 180 0
	movq	%rsp, %rdi
.LVL181:
.LEHB12:
	call	_ZN5Proto8Iterator5enterEv@PLT
.LVL182:
.LBE2537:
.LBE2536:
.LBB2538:
.LBB2539:
	.loc 1 202 0
	movl	4(%rsp), %eax
	cmpl	$1, %eax
	je	.L59
	cmpl	$2, %eax
	je	.L60
	jmp	.L91
.L59:
.LVL183:
.LBB2540:
.LBB2541:
.LBB2542:
.LBB2543:
	.loc 1 257 0
	movq	8(%rsp), %rbx
.LVL184:
	.loc 1 258 0
	movq	%rsp, %rdi
	call	_ZN5Proto8Iterator4nextEv@PLT
.LVL185:
.LBE2543:
.LBE2542:
.LBE2541:
.LBE2540:
	.loc 1 203 0
	movzbl	(%rbx), %ebx
	jmp	.L61
.L60:
.LVL186:
.LBB2544:
.LBB2545:
.LBB2546:
.LBB2547:
	.loc 1 257 0
	movq	8(%rsp), %rbx
.LVL187:
	.loc 1 258 0
	movq	%rsp, %rdi
	call	_ZN5Proto8Iterator4nextEv@PLT
.LVL188:
.LBE2547:
.LBE2546:
	.loc 1 227 0
	movzwl	(%rbx), %ebx
.LVL189:
#APP
# 227 "./src/proto/protocol.hpp" 1
	rorw $8, %bx
# 0 "" 2
.LVL190:
#NO_APP
.LBE2545:
.LBE2544:
	.loc 1 204 0
	movzwl	%bx, %ebx
	jmp	.L61
.L91:
.LVL191:
.LBB2548:
.LBB2549:
.LBB2550:
.LBB2551:
	.loc 1 257 0
	movq	8(%rsp), %rbx
.LVL192:
	.loc 1 258 0
	movq	%rsp, %rdi
	call	_ZN5Proto8Iterator4nextEv@PLT
.LVL193:
.LBE2551:
.LBE2550:
.LBB2552:
.LBB2553:
	.file 8 "/usr/include/x86_64-linux-gnu/bits/byteswap.h"
	.loc 8 47 0
	movl	(%rbx), %ebx
.LVL194:
	bswap	%ebx
.LVL195:
.L61:
.LBE2553:
.LBE2552:
.LBE2549:
.LBE2548:
.LBE2539:
.LBE2538:
.LBB2554:
.LBB2555:
	.loc 1 202 0
	movl	4(%rsp), %eax
	cmpl	$1, %eax
	je	.L63
	cmpl	$2, %eax
	je	.L64
	jmp	.L92
.L63:
.LVL196:
.LBB2556:
.LBB2557:
.LBB2558:
.LBB2559:
	.loc 1 257 0
	movq	8(%rsp), %rbp
.LVL197:
	.loc 1 258 0
	movq	%rsp, %rdi
	call	_ZN5Proto8Iterator4nextEv@PLT
.LVL198:
.LBE2559:
.LBE2558:
.LBE2557:
.LBE2556:
	.loc 1 203 0
	movzbl	0(%rbp), %ebp
	jmp	.L65
.L64:
.LVL199:
.LBB2560:
.LBB2561:
.LBB2562:
.LBB2563:
	.loc 1 257 0
	movq	8(%rsp), %rbp
.LVL200:
	.loc 1 258 0
	movq	%rsp, %rdi
	call	_ZN5Proto8Iterator4nextEv@PLT
.LVL201:
.LBE2563:
.LBE2562:
	.loc 1 227 0
	movzwl	0(%rbp), %ebp
.LVL202:
#APP
# 227 "./src/proto/protocol.hpp" 1
	rorw $8, %bp
# 0 "" 2
.LVL203:
#NO_APP
.LBE2561:
.LBE2560:
	.loc 1 204 0
	movzwl	%bp, %ebp
	jmp	.L65
.L92:
.LVL204:
.LBB2564:
.LBB2565:
.LBB2566:
.LBB2567:
	.loc 1 257 0
	movq	8(%rsp), %rbp
.LVL205:
	.loc 1 258 0
	movq	%rsp, %rdi
	call	_ZN5Proto8Iterator4nextEv@PLT
.LVL206:
.LBE2567:
.LBE2566:
.LBB2568:
.LBB2569:
	.loc 8 47 0
	movl	0(%rbp), %ebp
.LVL207:
	bswap	%ebp
.LVL208:
.L65:
.LBE2569:
.LBE2568:
.LBE2565:
.LBE2564:
.LBE2555:
.LBE2554:
.LBB2570:
	.loc 2 205 0
	call	usb_get_busses@PLT
.LVL209:
	testq	%rax, %rax
	je	.L84
.LBB2571:
	.loc 2 208 0
	cmpl	4128(%rax), %ebx
	jne	.L68
	jmp	.L67
.L94:
	cmpl	%ebx, 4128(%rax)
	jne	.L68
.L67:
.LBB2572:
	.loc 2 211 0
	movq	4120(%rax), %rdi
.LVL210:
	testq	%rdi, %rdi
	je	.L85
	.loc 2 214 0
	movzbl	4168(%rdi), %eax
.LVL211:
	cmpl	%eax, %ebp
	jne	.L70
	jmp	.L69
.L93:
	movzbl	4168(%rdi), %eax
	cmpl	%ebp, %eax
	je	.L69
.L70:
	.loc 2 211 0 discriminator 2
	movq	(%rdi), %rdi
.LVL212:
	testq	%rdi, %rdi
	jne	.L93
	jmp	.L86
.LVL213:
.L68:
.LBE2572:
.LBE2571:
	.loc 2 205 0 discriminator 3
	movq	(%rax), %rax
.LVL214:
	testq	%rax, %rax
	jne	.L94
	jmp	.L87
.LVL215:
.L82:
.LBE2570:
.LBB2573:
.LBB2574:
.LBB2575:
	.file 9 "/usr/include/c++/5/bits/stl_list.h"
	.loc 9 850 0
	leaq	80(%r12), %r15
.LVL216:
.LBE2575:
.LBE2574:
.LBB2576:
.LBB2577:
.LBB2578:
.LBB2579:
.LBB2580:
.LBB2581:
.LBB2582:
	.loc 6 104 0
	movl	$24, %edi
	call	_Znwm@PLT
.LVL217:
.LBE2582:
.LBE2581:
.LBE2580:
.LBB2583:
.LBB2584:
	.loc 6 130 0
	cmpq	$-16, %rax
	je	.L73
	movq	%r14, 16(%rax)
.L73:
.LVL218:
.LBE2584:
.LBE2583:
.LBE2579:
.LBE2578:
	.loc 9 1755 0
	movq	%r15, %rsi
	movq	%rax, %rdi
	call	_ZNSt8__detail15_List_node_base7_M_hookEPS0_@PLT
.LVL219:
.LBB2585:
.LBB2586:
	.loc 9 363 0
	addq	$1, 96(%r12)
.LVL220:
.LBE2586:
.LBE2585:
.LBE2577:
.LBE2576:
.LBE2573:
	.loc 2 233 0
	movl	(%r14), %r14d
.LVL221:
	.loc 2 232 0
	movl	$0, %r12d
.LVL222:
	jmp	.L66
.LVL223:
.L84:
	.loc 2 226 0
	movl	$-1, %r14d
	.loc 2 225 0
	movl	%r14d, %r12d
.LVL224:
	jmp	.L66
.LVL225:
.L85:
	.loc 2 226 0
	movl	$-1, %r14d
	.loc 2 225 0
	movl	%r14d, %r12d
.LVL226:
	jmp	.L66
.LVL227:
.L86:
	.loc 2 226 0
	movl	$-1, %r14d
	.loc 2 225 0
	movl	%r14d, %r12d
.LVL228:
	jmp	.L66
.LVL229:
.L87:
	.loc 2 226 0
	movl	$-1, %r14d
	.loc 2 225 0
	movl	%r14d, %r12d
.LVL230:
.L66:
	.loc 2 238 0
	call	log_level@PLT
.LVL231:
	testb	$4, %al
	je	.L74
.LVL232:
	.loc 2 238 0 discriminator 2
	movq	stderr@GOTPCREL(%rip), %r15
.LVL233:
.LBB2587:
.LBB2588:
	.loc 3 98 0 discriminator 2
	leaq	_ZZN10UsbService8usb_openEiRN5Proto6PacketEE8__func__(%rip), %rcx
	leaq	.LC0(%rip), %rdx
	movl	$1, %esi
	movq	(%r15), %rdi
	movl	$0, %eax
	call	__fprintf_chk@PLT
.LVL234:
.LBE2588:
.LBE2587:
.LBB2589:
.LBB2590:
	subq	$8, %rsp
	.cfi_def_cfa_offset 184
	pushq	%r14
	.cfi_def_cfa_offset 192
	movl	%r12d, %r9d
	movl	%ebp, %r8d
	movl	%ebx, %ecx
	leaq	.LC5(%rip), %rdx
	movl	$1, %esi
	movq	(%r15), %rdi
	movl	$0, %eax
	call	__fprintf_chk@PLT
.LVL235:
.LBE2590:
.LBE2589:
.LBB2591:
.LBB2592:
	addq	$16, %rsp
	.cfi_def_cfa_offset 176
	movq	(%r15), %rsi
	movl	$10, %edi
	call	fputc@PLT
.LVL236:
.L74:
.LBE2592:
.LBE2591:
.LBB2593:
.LBB2594:
	.loc 1 279 0
	leaq	32(%rsp), %rbx
.LVL237:
	leaq	64(%rsp), %rsi
	movl	$0, %edx
	movq	%rbx, %rdi
	call	_ZN5Proto6StructC2ERNSt7__cxx1112basic_stringIcSt11char_traitsIcESaIcEEEi@PLT
.LVL238:
.LEHE12:
	movq	_ZTVN5Proto6PacketE@GOTPCREL(%rip), %rax
	leaq	16(%rax), %rax
	movq	%rax, 32(%rsp)
.LVL239:
.LBB2595:
.LBB2596:
.LBB2597:
	.loc 4 109 0
	addq	$48, %rbx
.LVL240:
	movq	%rbx, 64(%rsp)
.LVL241:
.LBE2597:
.LBE2596:
.LBB2598:
.LBB2599:
.LBB2600:
	.loc 4 131 0
	movq	$0, 72(%rsp)
.LVL242:
.LBE2600:
.LBE2599:
.LBB2601:
.LBB2602:
	.loc 5 243 0
	movb	$0, 80(%rsp)
.LVL243:
.LBE2602:
.LBE2601:
.LBE2598:
.LBE2595:
.LBB2603:
.LBB2604:
	.loc 1 91 0
	movslq	52(%rsp), %rsi
	movq	40(%rsp), %rdi
.LVL244:
.LBB2605:
.LBB2606:
.LBB2607:
.LBB2608:
.LBB2609:
.LBB2610:
	.loc 4 716 0
	movq	8(%rdi), %rcx
.LVL245:
.LBE2610:
.LBE2609:
	.loc 4 260 0
	cmpq	%rcx, %rsi
	jbe	.L75
	.loc 4 261 0
	movq	%rsi, %rdx
	leaq	.LC3(%rip), %rsi
.LVL246:
	leaq	.LC4(%rip), %rdi
.LVL247:
	movl	$0, %eax
.LEHB13:
	call	_ZSt24__throw_out_of_range_fmtPKcz@PLT
.LVL248:
.L75:
.LBE2608:
.LBE2607:
	.loc 4 1418 0
	movl	$53, %r8d
	movl	$1, %ecx
	movl	$0, %edx
	call	_ZNSt7__cxx1112basic_stringIcSt11char_traitsIcESaIcEE14_M_replace_auxEmmmc@PLT
.LVL249:
.LEHE13:
.LBE2606:
.LBE2605:
	.loc 1 92 0
	addl	$1, 56(%rsp)
	addl	$1, 52(%rsp)
.LVL250:
.LBE2604:
.LBE2603:
.LBE2594:
.LBE2593:
.LBB2622:
.LBB2623:
	.loc 1 146 0
	movsbl	%r12b, %ecx
	leaq	32(%rsp), %rdi
.LVL251:
	movl	$1, %edx
	movl	$2, %esi
.LEHB14:
	call	_ZN5Proto6Struct10addNumericEhhj@PLT
.LVL252:
.LEHE14:
	jmp	.L95
.LVL253:
.L89:
	movq	%rax, %rbx
.LVL254:
.LBE2623:
.LBE2622:
.LBB2624:
.LBB2621:
.LBB2611:
.LBB2612:
.LBB2613:
.LBB2614:
.LBB2615:
.LBB2616:
	.loc 4 135 0
	movq	64(%rsp), %rdi
.LVL255:
.LBE2616:
.LBE2615:
.LBE2614:
	.loc 4 179 0
	leaq	80(%rsp), %rax
	cmpq	%rax, %rdi
	je	.L78
.LVL256:
.LBB2617:
.LBB2618:
.LBB2619:
.LBB2620:
	.loc 6 110 0
	call	_ZdlPv@PLT
.LVL257:
.L78:
	movq	%rbx, %rdi
.LEHB15:
	call	_Unwind_Resume@PLT
.LVL258:
.LEHE15:
.L95:
.LBE2620:
.LBE2619:
.LBE2618:
.LBE2617:
.LBE2613:
.LBE2612:
.LBE2611:
.LBE2621:
.LBE2624:
.LBB2625:
.LBB2626:
	.loc 1 156 0
	leaq	32(%rsp), %rdi
.LVL259:
	movl	%r14d, %ecx
	movl	$4, %edx
	movl	$2, %esi
.LEHB16:
	call	_ZN5Proto6Struct10addNumericEhhj@PLT
.LVL260:
.LBE2626:
.LBE2625:
	.loc 2 244 0
	leaq	32(%rsp), %rdi
.LVL261:
	movl	%r13d, %esi
	call	_ZN5Proto6Packet4sendEi@PLT
.LVL262:
.LEHE16:
.LBB2627:
.LBB2628:
	.loc 1 273 0
	movq	_ZTVN5Proto6PacketE@GOTPCREL(%rip), %rax
	leaq	16(%rax), %rax
	movq	%rax, 32(%rsp)
.LVL263:
.LBB2629:
.LBB2630:
.LBB2631:
.LBB2632:
.LBB2633:
.LBB2634:
	.loc 4 135 0
	movq	64(%rsp), %rdi
.LVL264:
.LBE2634:
.LBE2633:
.LBE2632:
	.loc 4 179 0
	leaq	80(%rsp), %rax
	cmpq	%rax, %rdi
	je	.L57
.LVL265:
.LBB2635:
.LBB2636:
.LBB2637:
.LBB2638:
	.loc 6 110 0
	call	_ZdlPv@PLT
.LVL266:
.LBE2638:
.LBE2637:
.LBE2636:
.LBE2635:
.LBE2631:
.LBE2630:
.LBE2629:
.LBE2628:
.LBE2627:
	.loc 2 245 0
	jmp	.L57
.LVL267:
.L88:
	movq	%rax, %rbx
.LVL268:
.LBB2639:
.LBB2640:
	.loc 1 273 0
	movq	_ZTVN5Proto6PacketE@GOTPCREL(%rip), %rax
	leaq	16(%rax), %rax
	movq	%rax, 32(%rsp)
.LVL269:
.LBB2641:
.LBB2642:
.LBB2643:
.LBB2644:
.LBB2645:
.LBB2646:
	.loc 4 135 0
	movq	64(%rsp), %rdi
.LVL270:
.LBE2646:
.LBE2645:
.LBE2644:
	.loc 4 179 0
	leaq	80(%rsp), %rax
	cmpq	%rax, %rdi
	je	.L81
.LVL271:
.LBB2647:
.LBB2648:
.LBB2649:
.LBB2650:
	.loc 6 110 0
	call	_ZdlPv@PLT
.LVL272:
.L81:
	movq	%rbx, %rdi
.LEHB17:
	call	_Unwind_Resume@PLT
.LVL273:
.L69:
.LBE2650:
.LBE2649:
.LBE2648:
.LBE2647:
.LBE2643:
.LBE2642:
.LBE2641:
.LBE2640:
.LBE2639:
	.loc 2 230 0
	call	usb_open@PLT
.LVL274:
.LEHE17:
	movq	%rax, %r14
.LVL275:
	testq	%rax, %rax
	jne	.L82
	.loc 2 226 0
	movl	$-1, %r14d
	.loc 2 225 0
	movl	%r14d, %r12d
.LVL276:
	jmp	.L66
.LVL277:
.L57:
	.loc 2 245 0
	movq	104(%rsp), %rax
	xorq	%fs:40, %rax
	je	.L83
	call	__stack_chk_fail@PLT
.LVL278:
.L83:
	addq	$120, %rsp
	.cfi_def_cfa_offset 56
	popq	%rbx
	.cfi_def_cfa_offset 48
	popq	%rbp
	.cfi_def_cfa_offset 40
	popq	%r12
	.cfi_def_cfa_offset 32
.LVL279:
	popq	%r13
	.cfi_def_cfa_offset 24
.LVL280:
	popq	%r14
	.cfi_def_cfa_offset 16
.LVL281:
	popq	%r15
	.cfi_def_cfa_offset 8
	ret
	.cfi_endproc
.LFE1159:
	.section	.gcc_except_table
.LLSDA1159:
	.byte	0xff
	.byte	0xff
	.byte	0x1
	.uleb128 .LLSDACSE1159-.LLSDACSB1159
.LLSDACSB1159:
	.uleb128 .LEHB12-.LFB1159
	.uleb128 .LEHE12-.LEHB12
	.uleb128 0
	.uleb128 0
	.uleb128 .LEHB13-.LFB1159
	.uleb128 .LEHE13-.LEHB13
	.uleb128 .L89-.LFB1159
	.uleb128 0
	.uleb128 .LEHB14-.LFB1159
	.uleb128 .LEHE14-.LEHB14
	.uleb128 .L88-.LFB1159
	.uleb128 0
	.uleb128 .LEHB15-.LFB1159
	.uleb128 .LEHE15-.LEHB15
	.uleb128 0
	.uleb128 0
	.uleb128 .LEHB16-.LFB1159
	.uleb128 .LEHE16-.LEHB16
	.uleb128 .L88-.LFB1159
	.uleb128 0
	.uleb128 .LEHB17-.LFB1159
	.uleb128 .LEHE17-.LEHB17
	.uleb128 0
	.uleb128 0
.LLSDACSE1159:
	.text
	.size	_ZN10UsbService8usb_openEiRN5Proto6PacketE, .-_ZN10UsbService8usb_openEiRN5Proto6PacketE
	.section	.rodata.str1.1
.LC6:
	.string	"fd %d = %d"
	.text
	.align 2
	.globl	_ZN10UsbService9usb_closeEiRN5Proto6PacketE
	.type	_ZN10UsbService9usb_closeEiRN5Proto6PacketE, @function
_ZN10UsbService9usb_closeEiRN5Proto6PacketE:
.LFB1160:
	.loc 2 248 0
	.cfi_startproc
	.cfi_personality 0x9b,DW.ref.__gxx_personality_v0
	.cfi_lsda 0x1b,.LLSDA1160
.LVL282:
	pushq	%r14
	.cfi_def_cfa_offset 16
	.cfi_offset 14, -16
	pushq	%r13
	.cfi_def_cfa_offset 24
	.cfi_offset 13, -24
	pushq	%r12
	.cfi_def_cfa_offset 32
	.cfi_offset 12, -32
	pushq	%rbp
	.cfi_def_cfa_offset 40
	.cfi_offset 6, -40
	pushq	%rbx
	.cfi_def_cfa_offset 48
	.cfi_offset 3, -48
	subq	$112, %rsp
	.cfi_def_cfa_offset 160
	movq	%rdi, %r13
	movl	%esi, %r14d
	.loc 2 248 0
	movq	%fs:40, %rax
	movq	%rax, 104(%rsp)
	xorl	%eax, %eax
.LVL283:
.LBB2782:
.LBB2783:
	.loc 1 178 0
	movb	$0, (%rsp)
	movl	$0, 4(%rsp)
	movq	$0, 8(%rsp)
	movq	%rdx, 16(%rsp)
	movl	$0, 24(%rsp)
	.loc 1 180 0
	movq	%rsp, %rdi
.LVL284:
.LEHB18:
	call	_ZN5Proto8Iterator5enterEv@PLT
.LVL285:
.LBE2783:
.LBE2782:
.LBB2784:
.LBB2785:
	.loc 1 213 0
	movl	4(%rsp), %eax
	cmpl	$1, %eax
	je	.L99
	cmpl	$2, %eax
	je	.L100
	jmp	.L119
.L99:
.LVL286:
.LBB2786:
.LBB2787:
.LBB2788:
.LBB2789:
	.loc 1 257 0
	movq	8(%rsp), %rbx
.LVL287:
	.loc 1 258 0
	movq	%rsp, %rdi
	call	_ZN5Proto8Iterator4nextEv@PLT
.LVL288:
.LBE2789:
.LBE2788:
.LBE2787:
.LBE2786:
	.loc 1 214 0
	movsbl	(%rbx), %r12d
	jmp	.L101
.L100:
.LVL289:
.LBB2790:
.LBB2791:
.LBB2792:
.LBB2793:
.LBB2794:
	.loc 1 257 0
	movq	8(%rsp), %rbx
.LVL290:
	.loc 1 258 0
	movq	%rsp, %rdi
	call	_ZN5Proto8Iterator4nextEv@PLT
.LVL291:
.LBE2794:
.LBE2793:
	.loc 1 239 0
	movzwl	(%rbx), %r12d
#APP
# 239 "./src/proto/protocol.hpp" 1
	rorw $8, %r12w
# 0 "" 2
.LVL292:
#NO_APP
.LBE2792:
.LBE2791:
.LBE2790:
	.loc 1 215 0
	movswl	%r12w, %r12d
	jmp	.L101
.L119:
.LVL293:
.LBB2795:
.LBB2796:
.LBB2797:
.LBB2798:
	.loc 1 257 0
	movq	8(%rsp), %rbx
.LVL294:
	.loc 1 258 0
	movq	%rsp, %rdi
	call	_ZN5Proto8Iterator4nextEv@PLT
.LVL295:
.LBE2798:
.LBE2797:
.LBB2799:
.LBB2800:
	.loc 8 47 0
	movl	(%rbx), %r12d
	bswap	%r12d
.LVL296:
.L101:
.LBE2800:
.LBE2799:
.LBE2796:
.LBE2795:
.LBE2785:
.LBE2784:
.LBB2801:
.LBB2802:
.LBB2803:
	.loc 9 832 0
	movq	80(%r13), %rbx
.LVL297:
.LBE2803:
.LBE2802:
.LBB2804:
.LBB2805:
	.loc 9 850 0
	leaq	80(%r13), %rax
.LVL298:
.LBE2805:
.LBE2804:
.LBE2801:
	.loc 2 253 0
	movl	$-1, %ebp
.LBB2818:
	.loc 2 255 0
	cmpq	%rax, %rbx
	je	.L102
.LBB2806:
	.loc 2 256 0
	movq	16(%rbx), %rbp
.LVL299:
	.loc 2 257 0
	cmpl	0(%rbp), %r12d
	jne	.L104
	jmp	.L103
.LVL300:
.L105:
	.loc 2 256 0
	movq	16(%rbx), %rbp
	.loc 2 257 0
	cmpl	%r12d, 0(%rbp)
	jne	.L104
.LVL301:
.L103:
.LBB2807:
.LBB2808:
.LBB2809:
.LBB2810:
.LBB2811:
.LBB2812:
	.loc 9 365 0
	subq	$1, 96(%r13)
.LVL302:
.LBE2812:
.LBE2811:
	.loc 9 1774 0
	movq	%rbx, %rdi
	call	_ZNSt8__detail15_List_node_base9_M_unhookEv@PLT
.LVL303:
.LBB2813:
.LBB2814:
.LBB2815:
	.loc 6 110 0
	movq	%rbx, %rdi
	call	_ZdlPv@PLT
.LVL304:
.LBE2815:
.LBE2814:
.LBE2813:
.LBE2810:
.LBE2809:
.LBE2808:
.LBE2807:
	.loc 2 259 0
	movq	%rbp, %rdi
	call	usb_close@PLT
.LVL305:
	movl	%eax, %ebp
.LVL306:
	jmp	.L102
.LVL307:
.L104:
.LBE2806:
.LBB2816:
.LBB2817:
	.loc 9 159 0
	movq	(%rbx), %rbx
.LVL308:
.LBE2817:
.LBE2816:
	.loc 2 255 0
	cmpq	%rax, %rbx
	jne	.L105
.LBE2818:
	.loc 2 253 0
	movl	$-1, %ebp
.LVL309:
.L102:
	.loc 2 264 0
	call	log_level@PLT
.LVL310:
	testb	$4, %al
	je	.L106
.LVL311:
	.loc 2 264 0 discriminator 2
	movq	stderr@GOTPCREL(%rip), %rbx
.LVL312:
.LBB2819:
.LBB2820:
	.loc 3 98 0 discriminator 2
	leaq	_ZZN10UsbService9usb_closeEiRN5Proto6PacketEE8__func__(%rip), %rcx
	leaq	.LC0(%rip), %rdx
	movl	$1, %esi
	movq	(%rbx), %rdi
	movl	$0, %eax
	call	__fprintf_chk@PLT
.LVL313:
.LBE2820:
.LBE2819:
.LBB2821:
.LBB2822:
	movl	%ebp, %r8d
	movl	%r12d, %ecx
	leaq	.LC6(%rip), %rdx
	movl	$1, %esi
	movq	(%rbx), %rdi
	movl	$0, %eax
	call	__fprintf_chk@PLT
.LVL314:
.LBE2822:
.LBE2821:
.LBB2823:
.LBB2824:
	movq	(%rbx), %rsi
	movl	$10, %edi
	call	fputc@PLT
.LVL315:
.L106:
.LBE2824:
.LBE2823:
.LBB2825:
.LBB2826:
	.loc 1 279 0
	leaq	32(%rsp), %rbx
.LVL316:
	leaq	64(%rsp), %rsi
	movl	$0, %edx
	movq	%rbx, %rdi
	call	_ZN5Proto6StructC2ERNSt7__cxx1112basic_stringIcSt11char_traitsIcESaIcEEEi@PLT
.LVL317:
.LEHE18:
	movq	_ZTVN5Proto6PacketE@GOTPCREL(%rip), %rax
	leaq	16(%rax), %rax
	movq	%rax, 32(%rsp)
.LVL318:
.LBB2827:
.LBB2828:
.LBB2829:
	.loc 4 109 0
	addq	$48, %rbx
.LVL319:
	movq	%rbx, 64(%rsp)
.LVL320:
.LBE2829:
.LBE2828:
.LBB2830:
.LBB2831:
.LBB2832:
	.loc 4 131 0
	movq	$0, 72(%rsp)
.LVL321:
.LBE2832:
.LBE2831:
.LBB2833:
.LBB2834:
	.loc 5 243 0
	movb	$0, 80(%rsp)
.LVL322:
.LBE2834:
.LBE2833:
.LBE2830:
.LBE2827:
.LBB2835:
.LBB2836:
	.loc 1 91 0
	movslq	52(%rsp), %rsi
	movq	40(%rsp), %rdi
.LVL323:
.LBB2837:
.LBB2838:
.LBB2839:
.LBB2840:
.LBB2841:
.LBB2842:
	.loc 4 716 0
	movq	8(%rdi), %rcx
.LVL324:
.LBE2842:
.LBE2841:
	.loc 4 260 0
	cmpq	%rcx, %rsi
	jbe	.L107
	.loc 4 261 0
	movq	%rsi, %rdx
	leaq	.LC3(%rip), %rsi
.LVL325:
	leaq	.LC4(%rip), %rdi
.LVL326:
	movl	$0, %eax
.LEHB19:
	call	_ZSt24__throw_out_of_range_fmtPKcz@PLT
.LVL327:
.L107:
.LBE2840:
.LBE2839:
	.loc 4 1418 0
	movl	$54, %r8d
	movl	$1, %ecx
	movl	$0, %edx
	call	_ZNSt7__cxx1112basic_stringIcSt11char_traitsIcESaIcEE14_M_replace_auxEmmmc@PLT
.LVL328:
.LEHE19:
.LBE2838:
.LBE2837:
	.loc 1 92 0
	addl	$1, 56(%rsp)
	addl	$1, 52(%rsp)
.LVL329:
.LBE2836:
.LBE2835:
.LBE2826:
.LBE2825:
.LBB2854:
.LBB2855:
	.loc 1 146 0
	movsbl	%bpl, %ecx
	leaq	32(%rsp), %rdi
.LVL330:
	movl	$1, %edx
	movl	$2, %esi
.LEHB20:
	call	_ZN5Proto6Struct10addNumericEhhj@PLT
.LVL331:
.LEHE20:
	jmp	.L120
.LVL332:
.L117:
	movq	%rax, %rbx
.LVL333:
.LBE2855:
.LBE2854:
.LBB2856:
.LBB2853:
.LBB2843:
.LBB2844:
.LBB2845:
.LBB2846:
.LBB2847:
.LBB2848:
	.loc 4 135 0
	movq	64(%rsp), %rdi
.LVL334:
.LBE2848:
.LBE2847:
.LBE2846:
	.loc 4 179 0
	leaq	80(%rsp), %rax
	cmpq	%rax, %rdi
	je	.L110
.LVL335:
.LBB2849:
.LBB2850:
.LBB2851:
.LBB2852:
	.loc 6 110 0
	call	_ZdlPv@PLT
.LVL336:
.L110:
	movq	%rbx, %rdi
.LEHB21:
	call	_Unwind_Resume@PLT
.LVL337:
.LEHE21:
.L120:
.LBE2852:
.LBE2851:
.LBE2850:
.LBE2849:
.LBE2845:
.LBE2844:
.LBE2843:
.LBE2853:
.LBE2856:
	.loc 2 269 0
	leaq	32(%rsp), %rdi
.LVL338:
	movl	%r14d, %esi
.LEHB22:
	call	_ZN5Proto6Packet4sendEi@PLT
.LVL339:
.LEHE22:
.LBB2857:
.LBB2858:
	.loc 1 273 0
	movq	_ZTVN5Proto6PacketE@GOTPCREL(%rip), %rax
	leaq	16(%rax), %rax
	movq	%rax, 32(%rsp)
.LVL340:
.LBB2859:
.LBB2860:
.LBB2861:
.LBB2862:
.LBB2863:
.LBB2864:
	.loc 4 135 0
	movq	64(%rsp), %rdi
.LVL341:
.LBE2864:
.LBE2863:
.LBE2862:
	.loc 4 179 0
	leaq	80(%rsp), %rax
	cmpq	%rax, %rdi
	je	.L97
.LVL342:
.LBB2865:
.LBB2866:
.LBB2867:
.LBB2868:
	.loc 6 110 0
	call	_ZdlPv@PLT
.LVL343:
.LBE2868:
.LBE2867:
.LBE2866:
.LBE2865:
.LBE2861:
.LBE2860:
.LBE2859:
.LBE2858:
.LBE2857:
	.loc 2 270 0
	jmp	.L97
.LVL344:
.L116:
	movq	%rax, %rbx
.LVL345:
.LBB2869:
.LBB2870:
	.loc 1 273 0
	movq	_ZTVN5Proto6PacketE@GOTPCREL(%rip), %rax
	leaq	16(%rax), %rax
	movq	%rax, 32(%rsp)
.LVL346:
.LBB2871:
.LBB2872:
.LBB2873:
.LBB2874:
.LBB2875:
.LBB2876:
	.loc 4 135 0
	movq	64(%rsp), %rdi
.LVL347:
.LBE2876:
.LBE2875:
.LBE2874:
	.loc 4 179 0
	leaq	80(%rsp), %rax
	cmpq	%rax, %rdi
	je	.L113
.LVL348:
.LBB2877:
.LBB2878:
.LBB2879:
.LBB2880:
	.loc 6 110 0
	call	_ZdlPv@PLT
.LVL349:
.L113:
	movq	%rbx, %rdi
.LEHB23:
	call	_Unwind_Resume@PLT
.LVL350:
.LEHE23:
.L97:
.LBE2880:
.LBE2879:
.LBE2878:
.LBE2877:
.LBE2873:
.LBE2872:
.LBE2871:
.LBE2870:
.LBE2869:
	.loc 2 270 0
	movq	104(%rsp), %rax
	xorq	%fs:40, %rax
	je	.L114
	call	__stack_chk_fail@PLT
.LVL351:
.L114:
	addq	$112, %rsp
	.cfi_def_cfa_offset 48
	popq	%rbx
	.cfi_def_cfa_offset 40
	popq	%rbp
	.cfi_def_cfa_offset 32
.LVL352:
	popq	%r12
	.cfi_def_cfa_offset 24
	popq	%r13
	.cfi_def_cfa_offset 16
.LVL353:
	popq	%r14
	.cfi_def_cfa_offset 8
.LVL354:
	ret
	.cfi_endproc
.LFE1160:
	.section	.gcc_except_table
.LLSDA1160:
	.byte	0xff
	.byte	0xff
	.byte	0x1
	.uleb128 .LLSDACSE1160-.LLSDACSB1160
.LLSDACSB1160:
	.uleb128 .LEHB18-.LFB1160
	.uleb128 .LEHE18-.LEHB18
	.uleb128 0
	.uleb128 0
	.uleb128 .LEHB19-.LFB1160
	.uleb128 .LEHE19-.LEHB19
	.uleb128 .L117-.LFB1160
	.uleb128 0
	.uleb128 .LEHB20-.LFB1160
	.uleb128 .LEHE20-.LEHB20
	.uleb128 .L116-.LFB1160
	.uleb128 0
	.uleb128 .LEHB21-.LFB1160
	.uleb128 .LEHE21-.LEHB21
	.uleb128 0
	.uleb128 0
	.uleb128 .LEHB22-.LFB1160
	.uleb128 .LEHE22-.LEHB22
	.uleb128 .L116-.LFB1160
	.uleb128 0
	.uleb128 .LEHB23-.LFB1160
	.uleb128 .LEHE23-.LEHB23
	.uleb128 0
	.uleb128 0
.LLSDACSE1160:
	.text
	.size	_ZN10UsbService9usb_closeEiRN5Proto6PacketE, .-_ZN10UsbService9usb_closeEiRN5Proto6PacketE
	.section	.rodata.str1.1
.LC7:
	.string	"fd %d, configuration %d = %d"
	.text
	.align 2
	.globl	_ZN10UsbService21usb_set_configurationEiRN5Proto6PacketE
	.type	_ZN10UsbService21usb_set_configurationEiRN5Proto6PacketE, @function
_ZN10UsbService21usb_set_configurationEiRN5Proto6PacketE:
.LFB1161:
	.loc 2 273 0
	.cfi_startproc
	.cfi_personality 0x9b,DW.ref.__gxx_personality_v0
	.cfi_lsda 0x1b,.LLSDA1161
.LVL355:
	pushq	%r14
	.cfi_def_cfa_offset 16
	.cfi_offset 14, -16
	pushq	%r13
	.cfi_def_cfa_offset 24
	.cfi_offset 13, -24
	pushq	%r12
	.cfi_def_cfa_offset 32
	.cfi_offset 12, -32
	pushq	%rbp
	.cfi_def_cfa_offset 40
	.cfi_offset 6, -40
	pushq	%rbx
	.cfi_def_cfa_offset 48
	.cfi_offset 3, -48
	subq	$112, %rsp
	.cfi_def_cfa_offset 160
	movq	%rdi, %rbx
	movl	%esi, %r14d
	.loc 2 273 0
	movq	%fs:40, %rax
	movq	%rax, 104(%rsp)
	xorl	%eax, %eax
.LVL356:
.LBB3016:
.LBB3017:
	.loc 1 178 0
	movb	$0, (%rsp)
	movl	$0, 4(%rsp)
	movq	$0, 8(%rsp)
	movq	%rdx, 16(%rsp)
	movl	$0, 24(%rsp)
	.loc 1 180 0
	movq	%rsp, %rdi
.LVL357:
.LEHB24:
	call	_ZN5Proto8Iterator5enterEv@PLT
.LVL358:
.LBE3017:
.LBE3016:
.LBB3018:
.LBB3019:
	.loc 1 213 0
	movl	4(%rsp), %eax
	cmpl	$1, %eax
	je	.L124
	cmpl	$2, %eax
	je	.L125
	jmp	.L148
.L124:
.LVL359:
.LBB3020:
.LBB3021:
.LBB3022:
.LBB3023:
	.loc 1 257 0
	movq	8(%rsp), %rbp
.LVL360:
	.loc 1 258 0
	movq	%rsp, %rdi
	call	_ZN5Proto8Iterator4nextEv@PLT
.LVL361:
.LBE3023:
.LBE3022:
.LBE3021:
.LBE3020:
	.loc 1 214 0
	movsbl	0(%rbp), %ebp
	jmp	.L126
.L125:
.LVL362:
.LBB3024:
.LBB3025:
.LBB3026:
.LBB3027:
.LBB3028:
	.loc 1 257 0
	movq	8(%rsp), %rbp
.LVL363:
	.loc 1 258 0
	movq	%rsp, %rdi
	call	_ZN5Proto8Iterator4nextEv@PLT
.LVL364:
.LBE3028:
.LBE3027:
	.loc 1 239 0
	movzwl	0(%rbp), %ebp
.LVL365:
#APP
# 239 "./src/proto/protocol.hpp" 1
	rorw $8, %bp
# 0 "" 2
.LVL366:
#NO_APP
.LBE3026:
.LBE3025:
.LBE3024:
	.loc 1 215 0
	movswl	%bp, %ebp
	jmp	.L126
.L148:
.LVL367:
.LBB3029:
.LBB3030:
.LBB3031:
.LBB3032:
	.loc 1 257 0
	movq	8(%rsp), %rbp
.LVL368:
	.loc 1 258 0
	movq	%rsp, %rdi
	call	_ZN5Proto8Iterator4nextEv@PLT
.LVL369:
.LBE3032:
.LBE3031:
.LBB3033:
.LBB3034:
	.loc 8 47 0
	movl	0(%rbp), %ebp
.LVL370:
	bswap	%ebp
.LVL371:
.L126:
.LBE3034:
.LBE3033:
.LBE3030:
.LBE3029:
.LBE3019:
.LBE3018:
.LBB3035:
.LBB3036:
	.loc 1 213 0
	movl	4(%rsp), %eax
	cmpl	$1, %eax
	je	.L128
	cmpl	$2, %eax
	je	.L129
	jmp	.L149
.L128:
.LVL372:
.LBB3037:
.LBB3038:
.LBB3039:
.LBB3040:
	.loc 1 257 0
	movq	8(%rsp), %r12
.LVL373:
	.loc 1 258 0
	movq	%rsp, %rdi
	call	_ZN5Proto8Iterator4nextEv@PLT
.LVL374:
.LBE3040:
.LBE3039:
.LBE3038:
.LBE3037:
	.loc 1 214 0
	movsbl	(%r12), %r12d
	jmp	.L130
.L129:
.LVL375:
.LBB3041:
.LBB3042:
.LBB3043:
.LBB3044:
.LBB3045:
	.loc 1 257 0
	movq	8(%rsp), %r12
.LVL376:
	.loc 1 258 0
	movq	%rsp, %rdi
	call	_ZN5Proto8Iterator4nextEv@PLT
.LVL377:
.LBE3045:
.LBE3044:
	.loc 1 239 0
	movzwl	(%r12), %r12d
.LVL378:
#APP
# 239 "./src/proto/protocol.hpp" 1
	rorw $8, %r12w
# 0 "" 2
.LVL379:
#NO_APP
.LBE3043:
.LBE3042:
.LBE3041:
	.loc 1 215 0
	movswl	%r12w, %r12d
	jmp	.L130
.L149:
.LVL380:
.LBB3046:
.LBB3047:
.LBB3048:
.LBB3049:
	.loc 1 257 0
	movq	8(%rsp), %r12
.LVL381:
	.loc 1 258 0
	movq	%rsp, %rdi
	call	_ZN5Proto8Iterator4nextEv@PLT
.LVL382:
.LBE3049:
.LBE3048:
.LBB3050:
.LBB3051:
	.loc 8 47 0
	movl	(%r12), %r12d
.LVL383:
	bswap	%r12d
.LVL384:
.L130:
.LBE3051:
.LBE3050:
.LBE3047:
.LBE3046:
.LBE3036:
.LBE3035:
.LBB3052:
.LBB3053:
.LBB3054:
	.loc 9 832 0
	movq	80(%rbx), %rax
.LVL385:
.LBE3054:
.LBE3053:
.LBB3055:
.LBB3056:
	.loc 9 850 0
	leaq	80(%rbx), %rdi
.LVL386:
.LBE3056:
.LBE3055:
.LBE3052:
	.loc 2 279 0
	movl	$-1, %r13d
.LBB3060:
	.loc 2 281 0
	cmpq	%rdi, %rax
	je	.L131
.LBB3057:
	.loc 2 282 0
	movq	16(%rax), %rbx
.LVL387:
	.loc 2 283 0
	cmpl	%ebp, (%rbx)
	jne	.L133
	jmp	.L132
.LVL388:
.L134:
	.loc 2 282 0
	movq	16(%rax), %rbx
	.loc 2 283 0
	cmpl	%ebp, (%rbx)
	jne	.L133
.LVL389:
.L132:
	.loc 2 284 0
	movl	%r12d, %esi
	movq	%rbx, %rdi
.LVL390:
	call	usb_set_configuration@PLT
.LVL391:
	movl	%eax, %r13d
.LVL392:
	.loc 2 285 0
	movl	24(%rbx), %r12d
.LVL393:
	.loc 2 286 0
	jmp	.L131
.LVL394:
.L133:
.LBE3057:
.LBB3058:
.LBB3059:
	.loc 9 159 0
	movq	(%rax), %rax
.LVL395:
.LBE3059:
.LBE3058:
	.loc 2 281 0
	cmpq	%rax, %rdi
	jne	.L134
.LBE3060:
	.loc 2 279 0
	movl	$-1, %r13d
.LVL396:
.L131:
	.loc 2 290 0
	call	log_level@PLT
.LVL397:
	testb	$4, %al
	je	.L135
.LVL398:
	.loc 2 290 0 discriminator 2
	movq	stderr@GOTPCREL(%rip), %rbx
.LVL399:
.LBB3061:
.LBB3062:
	.loc 3 98 0 discriminator 2
	leaq	_ZZN10UsbService21usb_set_configurationEiRN5Proto6PacketEE8__func__(%rip), %rcx
	leaq	.LC0(%rip), %rdx
	movl	$1, %esi
	movq	(%rbx), %rdi
	movl	$0, %eax
	call	__fprintf_chk@PLT
.LVL400:
.LBE3062:
.LBE3061:
.LBB3063:
.LBB3064:
	movl	%r13d, %r9d
	movl	%r12d, %r8d
	movl	%ebp, %ecx
	leaq	.LC7(%rip), %rdx
	movl	$1, %esi
	movq	(%rbx), %rdi
	movl	$0, %eax
	call	__fprintf_chk@PLT
.LVL401:
.LBE3064:
.LBE3063:
.LBB3065:
.LBB3066:
	movq	(%rbx), %rsi
	movl	$10, %edi
	call	fputc@PLT
.LVL402:
.L135:
.LBE3066:
.LBE3065:
.LBB3067:
.LBB3068:
	.loc 1 279 0
	leaq	32(%rsp), %rbx
.LVL403:
	leaq	64(%rsp), %rsi
	movl	$0, %edx
	movq	%rbx, %rdi
	call	_ZN5Proto6StructC2ERNSt7__cxx1112basic_stringIcSt11char_traitsIcESaIcEEEi@PLT
.LVL404:
.LEHE24:
	movq	_ZTVN5Proto6PacketE@GOTPCREL(%rip), %rax
	leaq	16(%rax), %rax
	movq	%rax, 32(%rsp)
.LVL405:
.LBB3069:
.LBB3070:
.LBB3071:
	.loc 4 109 0
	addq	$48, %rbx
.LVL406:
	movq	%rbx, 64(%rsp)
.LVL407:
.LBE3071:
.LBE3070:
.LBB3072:
.LBB3073:
.LBB3074:
	.loc 4 131 0
	movq	$0, 72(%rsp)
.LVL408:
.LBE3074:
.LBE3073:
.LBB3075:
.LBB3076:
	.loc 5 243 0
	movb	$0, 80(%rsp)
.LVL409:
.LBE3076:
.LBE3075:
.LBE3072:
.LBE3069:
.LBB3077:
.LBB3078:
	.loc 1 91 0
	movslq	52(%rsp), %rsi
	movq	40(%rsp), %rdi
.LVL410:
.LBB3079:
.LBB3080:
.LBB3081:
.LBB3082:
.LBB3083:
.LBB3084:
	.loc 4 716 0
	movq	8(%rdi), %rcx
.LVL411:
.LBE3084:
.LBE3083:
	.loc 4 260 0
	cmpq	%rcx, %rsi
	jbe	.L136
	.loc 4 261 0
	movq	%rsi, %rdx
	leaq	.LC3(%rip), %rsi
.LVL412:
	leaq	.LC4(%rip), %rdi
.LVL413:
	movl	$0, %eax
.LEHB25:
	call	_ZSt24__throw_out_of_range_fmtPKcz@PLT
.LVL414:
.L136:
.LBE3082:
.LBE3081:
	.loc 4 1418 0
	movl	$62, %r8d
	movl	$1, %ecx
	movl	$0, %edx
	call	_ZNSt7__cxx1112basic_stringIcSt11char_traitsIcESaIcEE14_M_replace_auxEmmmc@PLT
.LVL415:
.LEHE25:
.LBE3080:
.LBE3079:
	.loc 1 92 0
	addl	$1, 56(%rsp)
	addl	$1, 52(%rsp)
.LVL416:
.LBE3078:
.LBE3077:
.LBE3068:
.LBE3067:
.LBB3096:
.LBB3097:
	.loc 1 156 0
	leaq	32(%rsp), %rdi
.LVL417:
	movl	%r13d, %ecx
	movl	$4, %edx
	movl	$2, %esi
.LEHB26:
	call	_ZN5Proto6Struct10addNumericEhhj@PLT
.LVL418:
.LEHE26:
	jmp	.L150
.LVL419:
.L146:
	movq	%rax, %rbx
.LVL420:
.LBE3097:
.LBE3096:
.LBB3098:
.LBB3095:
.LBB3085:
.LBB3086:
.LBB3087:
.LBB3088:
.LBB3089:
.LBB3090:
	.loc 4 135 0
	movq	64(%rsp), %rdi
.LVL421:
.LBE3090:
.LBE3089:
.LBE3088:
	.loc 4 179 0
	leaq	80(%rsp), %rax
	cmpq	%rax, %rdi
	je	.L139
.LVL422:
.LBB3091:
.LBB3092:
.LBB3093:
.LBB3094:
	.loc 6 110 0
	call	_ZdlPv@PLT
.LVL423:
.L139:
	movq	%rbx, %rdi
.LEHB27:
	call	_Unwind_Resume@PLT
.LVL424:
.LEHE27:
.L150:
.LBE3094:
.LBE3093:
.LBE3092:
.LBE3091:
.LBE3087:
.LBE3086:
.LBE3085:
.LBE3095:
.LBE3098:
.LBB3099:
.LBB3100:
	.loc 1 156 0
	leaq	32(%rsp), %rdi
.LVL425:
	movl	%r12d, %ecx
	movl	$4, %edx
	movl	$2, %esi
.LEHB28:
	call	_ZN5Proto6Struct10addNumericEhhj@PLT
.LVL426:
.LBE3100:
.LBE3099:
	.loc 2 296 0
	leaq	32(%rsp), %rdi
.LVL427:
	movl	%r14d, %esi
	call	_ZN5Proto6Packet4sendEi@PLT
.LVL428:
.LEHE28:
.LBB3101:
.LBB3102:
	.loc 1 273 0
	movq	_ZTVN5Proto6PacketE@GOTPCREL(%rip), %rax
	leaq	16(%rax), %rax
	movq	%rax, 32(%rsp)
.LVL429:
.LBB3103:
.LBB3104:
.LBB3105:
.LBB3106:
.LBB3107:
.LBB3108:
	.loc 4 135 0
	movq	64(%rsp), %rdi
.LVL430:
.LBE3108:
.LBE3107:
.LBE3106:
	.loc 4 179 0
	leaq	80(%rsp), %rax
	cmpq	%rax, %rdi
	je	.L122
.LVL431:
.LBB3109:
.LBB3110:
.LBB3111:
.LBB3112:
	.loc 6 110 0
	call	_ZdlPv@PLT
.LVL432:
.LBE3112:
.LBE3111:
.LBE3110:
.LBE3109:
.LBE3105:
.LBE3104:
.LBE3103:
.LBE3102:
.LBE3101:
	.loc 2 297 0
	jmp	.L122
.LVL433:
.L145:
	movq	%rax, %rbx
.LVL434:
.LBB3113:
.LBB3114:
	.loc 1 273 0
	movq	_ZTVN5Proto6PacketE@GOTPCREL(%rip), %rax
	leaq	16(%rax), %rax
	movq	%rax, 32(%rsp)
.LVL435:
.LBB3115:
.LBB3116:
.LBB3117:
.LBB3118:
.LBB3119:
.LBB3120:
	.loc 4 135 0
	movq	64(%rsp), %rdi
.LVL436:
.LBE3120:
.LBE3119:
.LBE3118:
	.loc 4 179 0
	leaq	80(%rsp), %rax
	cmpq	%rax, %rdi
	je	.L142
.LVL437:
.LBB3121:
.LBB3122:
.LBB3123:
.LBB3124:
	.loc 6 110 0
	call	_ZdlPv@PLT
.LVL438:
.L142:
	movq	%rbx, %rdi
.LEHB29:
	call	_Unwind_Resume@PLT
.LVL439:
.LEHE29:
.L122:
.LBE3124:
.LBE3123:
.LBE3122:
.LBE3121:
.LBE3117:
.LBE3116:
.LBE3115:
.LBE3114:
.LBE3113:
	.loc 2 297 0
	movq	104(%rsp), %rax
	xorq	%fs:40, %rax
	je	.L143
	call	__stack_chk_fail@PLT
.LVL440:
.L143:
	addq	$112, %rsp
	.cfi_def_cfa_offset 48
	popq	%rbx
	.cfi_def_cfa_offset 40
	popq	%rbp
	.cfi_def_cfa_offset 32
	popq	%r12
	.cfi_def_cfa_offset 24
.LVL441:
	popq	%r13
	.cfi_def_cfa_offset 16
.LVL442:
	popq	%r14
	.cfi_def_cfa_offset 8
.LVL443:
	ret
	.cfi_endproc
.LFE1161:
	.section	.gcc_except_table
.LLSDA1161:
	.byte	0xff
	.byte	0xff
	.byte	0x1
	.uleb128 .LLSDACSE1161-.LLSDACSB1161
.LLSDACSB1161:
	.uleb128 .LEHB24-.LFB1161
	.uleb128 .LEHE24-.LEHB24
	.uleb128 0
	.uleb128 0
	.uleb128 .LEHB25-.LFB1161
	.uleb128 .LEHE25-.LEHB25
	.uleb128 .L146-.LFB1161
	.uleb128 0
	.uleb128 .LEHB26-.LFB1161
	.uleb128 .LEHE26-.LEHB26
	.uleb128 .L145-.LFB1161
	.uleb128 0
	.uleb128 .LEHB27-.LFB1161
	.uleb128 .LEHE27-.LEHB27
	.uleb128 0
	.uleb128 0
	.uleb128 .LEHB28-.LFB1161
	.uleb128 .LEHE28-.LEHB28
	.uleb128 .L145-.LFB1161
	.uleb128 0
	.uleb128 .LEHB29-.LFB1161
	.uleb128 .LEHE29-.LEHB29
	.uleb128 0
	.uleb128 0
.LLSDACSE1161:
	.text
	.size	_ZN10UsbService21usb_set_configurationEiRN5Proto6PacketE, .-_ZN10UsbService21usb_set_configurationEiRN5Proto6PacketE
	.section	.rodata.str1.1
.LC8:
	.string	"fd %d, alternate %d = %d"
	.text
	.align 2
	.globl	_ZN10UsbService20usb_set_altinterfaceEiRN5Proto6PacketE
	.type	_ZN10UsbService20usb_set_altinterfaceEiRN5Proto6PacketE, @function
_ZN10UsbService20usb_set_altinterfaceEiRN5Proto6PacketE:
.LFB1162:
	.loc 2 300 0
	.cfi_startproc
	.cfi_personality 0x9b,DW.ref.__gxx_personality_v0
	.cfi_lsda 0x1b,.LLSDA1162
.LVL444:
	pushq	%r14
	.cfi_def_cfa_offset 16
	.cfi_offset 14, -16
	pushq	%r13
	.cfi_def_cfa_offset 24
	.cfi_offset 13, -24
	pushq	%r12
	.cfi_def_cfa_offset 32
	.cfi_offset 12, -32
	pushq	%rbp
	.cfi_def_cfa_offset 40
	.cfi_offset 6, -40
	pushq	%rbx
	.cfi_def_cfa_offset 48
	.cfi_offset 3, -48
	subq	$112, %rsp
	.cfi_def_cfa_offset 160
	movq	%rdi, %rbx
	movl	%esi, %r14d
	.loc 2 300 0
	movq	%fs:40, %rax
	movq	%rax, 104(%rsp)
	xorl	%eax, %eax
.LVL445:
.LBB3260:
.LBB3261:
	.loc 1 178 0
	movb	$0, (%rsp)
	movl	$0, 4(%rsp)
	movq	$0, 8(%rsp)
	movq	%rdx, 16(%rsp)
	movl	$0, 24(%rsp)
	.loc 1 180 0
	movq	%rsp, %rdi
.LVL446:
.LEHB30:
	call	_ZN5Proto8Iterator5enterEv@PLT
.LVL447:
.LBE3261:
.LBE3260:
.LBB3262:
.LBB3263:
	.loc 1 213 0
	movl	4(%rsp), %eax
	cmpl	$1, %eax
	je	.L154
	cmpl	$2, %eax
	je	.L155
	jmp	.L178
.L154:
.LVL448:
.LBB3264:
.LBB3265:
.LBB3266:
.LBB3267:
	.loc 1 257 0
	movq	8(%rsp), %rbp
.LVL449:
	.loc 1 258 0
	movq	%rsp, %rdi
	call	_ZN5Proto8Iterator4nextEv@PLT
.LVL450:
.LBE3267:
.LBE3266:
.LBE3265:
.LBE3264:
	.loc 1 214 0
	movsbl	0(%rbp), %ebp
	jmp	.L156
.L155:
.LVL451:
.LBB3268:
.LBB3269:
.LBB3270:
.LBB3271:
.LBB3272:
	.loc 1 257 0
	movq	8(%rsp), %rbp
.LVL452:
	.loc 1 258 0
	movq	%rsp, %rdi
	call	_ZN5Proto8Iterator4nextEv@PLT
.LVL453:
.LBE3272:
.LBE3271:
	.loc 1 239 0
	movzwl	0(%rbp), %ebp
.LVL454:
#APP
# 239 "./src/proto/protocol.hpp" 1
	rorw $8, %bp
# 0 "" 2
.LVL455:
#NO_APP
.LBE3270:
.LBE3269:
.LBE3268:
	.loc 1 215 0
	movswl	%bp, %ebp
	jmp	.L156
.L178:
.LVL456:
.LBB3273:
.LBB3274:
.LBB3275:
.LBB3276:
	.loc 1 257 0
	movq	8(%rsp), %rbp
.LVL457:
	.loc 1 258 0
	movq	%rsp, %rdi
	call	_ZN5Proto8Iterator4nextEv@PLT
.LVL458:
.LBE3276:
.LBE3275:
.LBB3277:
.LBB3278:
	.loc 8 47 0
	movl	0(%rbp), %ebp
.LVL459:
	bswap	%ebp
.LVL460:
.L156:
.LBE3278:
.LBE3277:
.LBE3274:
.LBE3273:
.LBE3263:
.LBE3262:
.LBB3279:
.LBB3280:
	.loc 1 213 0
	movl	4(%rsp), %eax
	cmpl	$1, %eax
	je	.L158
	cmpl	$2, %eax
	je	.L159
	jmp	.L179
.L158:
.LVL461:
.LBB3281:
.LBB3282:
.LBB3283:
.LBB3284:
	.loc 1 257 0
	movq	8(%rsp), %r12
.LVL462:
	.loc 1 258 0
	movq	%rsp, %rdi
	call	_ZN5Proto8Iterator4nextEv@PLT
.LVL463:
.LBE3284:
.LBE3283:
.LBE3282:
.LBE3281:
	.loc 1 214 0
	movsbl	(%r12), %r12d
	jmp	.L160
.L159:
.LVL464:
.LBB3285:
.LBB3286:
.LBB3287:
.LBB3288:
.LBB3289:
	.loc 1 257 0
	movq	8(%rsp), %r12
.LVL465:
	.loc 1 258 0
	movq	%rsp, %rdi
	call	_ZN5Proto8Iterator4nextEv@PLT
.LVL466:
.LBE3289:
.LBE3288:
	.loc 1 239 0
	movzwl	(%r12), %r12d
.LVL467:
#APP
# 239 "./src/proto/protocol.hpp" 1
	rorw $8, %r12w
# 0 "" 2
.LVL468:
#NO_APP
.LBE3287:
.LBE3286:
.LBE3285:
	.loc 1 215 0
	movswl	%r12w, %r12d
	jmp	.L160
.L179:
.LVL469:
.LBB3290:
.LBB3291:
.LBB3292:
.LBB3293:
	.loc 1 257 0
	movq	8(%rsp), %r12
.LVL470:
	.loc 1 258 0
	movq	%rsp, %rdi
	call	_ZN5Proto8Iterator4nextEv@PLT
.LVL471:
.LBE3293:
.LBE3292:
.LBB3294:
.LBB3295:
	.loc 8 47 0
	movl	(%r12), %r12d
.LVL472:
	bswap	%r12d
.LVL473:
.L160:
.LBE3295:
.LBE3294:
.LBE3291:
.LBE3290:
.LBE3280:
.LBE3279:
.LBB3296:
.LBB3297:
.LBB3298:
	.loc 9 832 0
	movq	80(%rbx), %rax
.LVL474:
.LBE3298:
.LBE3297:
.LBB3299:
.LBB3300:
	.loc 9 850 0
	leaq	80(%rbx), %rdi
.LVL475:
.LBE3300:
.LBE3299:
.LBE3296:
	.loc 2 306 0
	movl	$-1, %r13d
.LBB3304:
	.loc 2 308 0
	cmpq	%rdi, %rax
	je	.L161
.LBB3301:
	.loc 2 309 0
	movq	16(%rax), %rbx
.LVL476:
	.loc 2 310 0
	cmpl	%ebp, (%rbx)
	jne	.L163
	jmp	.L162
.LVL477:
.L164:
	.loc 2 309 0
	movq	16(%rax), %rbx
	.loc 2 310 0
	cmpl	%ebp, (%rbx)
	jne	.L163
.LVL478:
.L162:
	.loc 2 311 0
	movl	%r12d, %esi
	movq	%rbx, %rdi
.LVL479:
	call	usb_set_altinterface@PLT
.LVL480:
	movl	%eax, %r13d
.LVL481:
	.loc 2 312 0
	movl	32(%rbx), %r12d
.LVL482:
	.loc 2 313 0
	jmp	.L161
.LVL483:
.L163:
.LBE3301:
.LBB3302:
.LBB3303:
	.loc 9 159 0
	movq	(%rax), %rax
.LVL484:
.LBE3303:
.LBE3302:
	.loc 2 308 0
	cmpq	%rax, %rdi
	jne	.L164
.LBE3304:
	.loc 2 306 0
	movl	$-1, %r13d
.LVL485:
.L161:
	.loc 2 317 0
	call	log_level@PLT
.LVL486:
	testb	$4, %al
	je	.L165
.LVL487:
	.loc 2 317 0 discriminator 2
	movq	stderr@GOTPCREL(%rip), %rbx
.LVL488:
.LBB3305:
.LBB3306:
	.loc 3 98 0 discriminator 2
	leaq	_ZZN10UsbService20usb_set_altinterfaceEiRN5Proto6PacketEE8__func__(%rip), %rcx
	leaq	.LC0(%rip), %rdx
	movl	$1, %esi
	movq	(%rbx), %rdi
	movl	$0, %eax
	call	__fprintf_chk@PLT
.LVL489:
.LBE3306:
.LBE3305:
.LBB3307:
.LBB3308:
	movl	%r13d, %r9d
	movl	%r12d, %r8d
	movl	%ebp, %ecx
	leaq	.LC8(%rip), %rdx
	movl	$1, %esi
	movq	(%rbx), %rdi
	movl	$0, %eax
	call	__fprintf_chk@PLT
.LVL490:
.LBE3308:
.LBE3307:
.LBB3309:
.LBB3310:
	movq	(%rbx), %rsi
	movl	$10, %edi
	call	fputc@PLT
.LVL491:
.L165:
.LBE3310:
.LBE3309:
.LBB3311:
.LBB3312:
	.loc 1 279 0
	leaq	32(%rsp), %rbx
.LVL492:
	leaq	64(%rsp), %rsi
	movl	$0, %edx
	movq	%rbx, %rdi
	call	_ZN5Proto6StructC2ERNSt7__cxx1112basic_stringIcSt11char_traitsIcESaIcEEEi@PLT
.LVL493:
.LEHE30:
	movq	_ZTVN5Proto6PacketE@GOTPCREL(%rip), %rax
	leaq	16(%rax), %rax
	movq	%rax, 32(%rsp)
.LVL494:
.LBB3313:
.LBB3314:
.LBB3315:
	.loc 4 109 0
	addq	$48, %rbx
.LVL495:
	movq	%rbx, 64(%rsp)
.LVL496:
.LBE3315:
.LBE3314:
.LBB3316:
.LBB3317:
.LBB3318:
	.loc 4 131 0
	movq	$0, 72(%rsp)
.LVL497:
.LBE3318:
.LBE3317:
.LBB3319:
.LBB3320:
	.loc 5 243 0
	movb	$0, 80(%rsp)
.LVL498:
.LBE3320:
.LBE3319:
.LBE3316:
.LBE3313:
.LBB3321:
.LBB3322:
	.loc 1 91 0
	movslq	52(%rsp), %rsi
	movq	40(%rsp), %rdi
.LVL499:
.LBB3323:
.LBB3324:
.LBB3325:
.LBB3326:
.LBB3327:
.LBB3328:
	.loc 4 716 0
	movq	8(%rdi), %rcx
.LVL500:
.LBE3328:
.LBE3327:
	.loc 4 260 0
	cmpq	%rcx, %rsi
	jbe	.L166
	.loc 4 261 0
	movq	%rsi, %rdx
	leaq	.LC3(%rip), %rsi
.LVL501:
	leaq	.LC4(%rip), %rdi
.LVL502:
	movl	$0, %eax
.LEHB31:
	call	_ZSt24__throw_out_of_range_fmtPKcz@PLT
.LVL503:
.L166:
.LBE3326:
.LBE3325:
	.loc 4 1418 0
	movl	$63, %r8d
	movl	$1, %ecx
	movl	$0, %edx
	call	_ZNSt7__cxx1112basic_stringIcSt11char_traitsIcESaIcEE14_M_replace_auxEmmmc@PLT
.LVL504:
.LEHE31:
.LBE3324:
.LBE3323:
	.loc 1 92 0
	addl	$1, 56(%rsp)
	addl	$1, 52(%rsp)
.LVL505:
.LBE3322:
.LBE3321:
.LBE3312:
.LBE3311:
.LBB3340:
.LBB3341:
	.loc 1 156 0
	leaq	32(%rsp), %rdi
.LVL506:
	movl	%r13d, %ecx
	movl	$4, %edx
	movl	$2, %esi
.LEHB32:
	call	_ZN5Proto6Struct10addNumericEhhj@PLT
.LVL507:
.LEHE32:
	jmp	.L180
.LVL508:
.L176:
	movq	%rax, %rbx
.LVL509:
.LBE3341:
.LBE3340:
.LBB3342:
.LBB3339:
.LBB3329:
.LBB3330:
.LBB3331:
.LBB3332:
.LBB3333:
.LBB3334:
	.loc 4 135 0
	movq	64(%rsp), %rdi
.LVL510:
.LBE3334:
.LBE3333:
.LBE3332:
	.loc 4 179 0
	leaq	80(%rsp), %rax
	cmpq	%rax, %rdi
	je	.L169
.LVL511:
.LBB3335:
.LBB3336:
.LBB3337:
.LBB3338:
	.loc 6 110 0
	call	_ZdlPv@PLT
.LVL512:
.L169:
	movq	%rbx, %rdi
.LEHB33:
	call	_Unwind_Resume@PLT
.LVL513:
.LEHE33:
.L180:
.LBE3338:
.LBE3337:
.LBE3336:
.LBE3335:
.LBE3331:
.LBE3330:
.LBE3329:
.LBE3339:
.LBE3342:
.LBB3343:
.LBB3344:
	.loc 1 156 0
	leaq	32(%rsp), %rdi
.LVL514:
	movl	%r12d, %ecx
	movl	$4, %edx
	movl	$2, %esi
.LEHB34:
	call	_ZN5Proto6Struct10addNumericEhhj@PLT
.LVL515:
.LBE3344:
.LBE3343:
	.loc 2 323 0
	leaq	32(%rsp), %rdi
.LVL516:
	movl	%r14d, %esi
	call	_ZN5Proto6Packet4sendEi@PLT
.LVL517:
.LEHE34:
.LBB3345:
.LBB3346:
	.loc 1 273 0
	movq	_ZTVN5Proto6PacketE@GOTPCREL(%rip), %rax
	leaq	16(%rax), %rax
	movq	%rax, 32(%rsp)
.LVL518:
.LBB3347:
.LBB3348:
.LBB3349:
.LBB3350:
.LBB3351:
.LBB3352:
	.loc 4 135 0
	movq	64(%rsp), %rdi
.LVL519:
.LBE3352:
.LBE3351:
.LBE3350:
	.loc 4 179 0
	leaq	80(%rsp), %rax
	cmpq	%rax, %rdi
	je	.L152
.LVL520:
.LBB3353:
.LBB3354:
.LBB3355:
.LBB3356:
	.loc 6 110 0
	call	_ZdlPv@PLT
.LVL521:
.LBE3356:
.LBE3355:
.LBE3354:
.LBE3353:
.LBE3349:
.LBE3348:
.LBE3347:
.LBE3346:
.LBE3345:
	.loc 2 324 0
	jmp	.L152
.LVL522:
.L175:
	movq	%rax, %rbx
.LVL523:
.LBB3357:
.LBB3358:
	.loc 1 273 0
	movq	_ZTVN5Proto6PacketE@GOTPCREL(%rip), %rax
	leaq	16(%rax), %rax
	movq	%rax, 32(%rsp)
.LVL524:
.LBB3359:
.LBB3360:
.LBB3361:
.LBB3362:
.LBB3363:
.LBB3364:
	.loc 4 135 0
	movq	64(%rsp), %rdi
.LVL525:
.LBE3364:
.LBE3363:
.LBE3362:
	.loc 4 179 0
	leaq	80(%rsp), %rax
	cmpq	%rax, %rdi
	je	.L172
.LVL526:
.LBB3365:
.LBB3366:
.LBB3367:
.LBB3368:
	.loc 6 110 0
	call	_ZdlPv@PLT
.LVL527:
.L172:
	movq	%rbx, %rdi
.LEHB35:
	call	_Unwind_Resume@PLT
.LVL528:
.LEHE35:
.L152:
.LBE3368:
.LBE3367:
.LBE3366:
.LBE3365:
.LBE3361:
.LBE3360:
.LBE3359:
.LBE3358:
.LBE3357:
	.loc 2 324 0
	movq	104(%rsp), %rax
	xorq	%fs:40, %rax
	je	.L173
	call	__stack_chk_fail@PLT
.LVL529:
.L173:
	addq	$112, %rsp
	.cfi_def_cfa_offset 48
	popq	%rbx
	.cfi_def_cfa_offset 40
	popq	%rbp
	.cfi_def_cfa_offset 32
	popq	%r12
	.cfi_def_cfa_offset 24
.LVL530:
	popq	%r13
	.cfi_def_cfa_offset 16
.LVL531:
	popq	%r14
	.cfi_def_cfa_offset 8
.LVL532:
	ret
	.cfi_endproc
.LFE1162:
	.section	.gcc_except_table
.LLSDA1162:
	.byte	0xff
	.byte	0xff
	.byte	0x1
	.uleb128 .LLSDACSE1162-.LLSDACSB1162
.LLSDACSB1162:
	.uleb128 .LEHB30-.LFB1162
	.uleb128 .LEHE30-.LEHB30
	.uleb128 0
	.uleb128 0
	.uleb128 .LEHB31-.LFB1162
	.uleb128 .LEHE31-.LEHB31
	.uleb128 .L176-.LFB1162
	.uleb128 0
	.uleb128 .LEHB32-.LFB1162
	.uleb128 .LEHE32-.LEHB32
	.uleb128 .L175-.LFB1162
	.uleb128 0
	.uleb128 .LEHB33-.LFB1162
	.uleb128 .LEHE33-.LEHB33
	.uleb128 0
	.uleb128 0
	.uleb128 .LEHB34-.LFB1162
	.uleb128 .LEHE34-.LEHB34
	.uleb128 .L175-.LFB1162
	.uleb128 0
	.uleb128 .LEHB35-.LFB1162
	.uleb128 .LEHE35-.LEHB35
	.uleb128 0
	.uleb128 0
.LLSDACSE1162:
	.text
	.size	_ZN10UsbService20usb_set_altinterfaceEiRN5Proto6PacketE, .-_ZN10UsbService20usb_set_altinterfaceEiRN5Proto6PacketE
	.section	.rodata.str1.1
.LC9:
	.string	"fd %d, ep %d = %d"
	.text
	.align 2
	.globl	_ZN10UsbService11usb_resetepEiRN5Proto6PacketE
	.type	_ZN10UsbService11usb_resetepEiRN5Proto6PacketE, @function
_ZN10UsbService11usb_resetepEiRN5Proto6PacketE:
.LFB1163:
	.loc 2 327 0
	.cfi_startproc
	.cfi_personality 0x9b,DW.ref.__gxx_personality_v0
	.cfi_lsda 0x1b,.LLSDA1163
.LVL533:
	pushq	%r14
	.cfi_def_cfa_offset 16
	.cfi_offset 14, -16
	pushq	%r13
	.cfi_def_cfa_offset 24
	.cfi_offset 13, -24
	pushq	%r12
	.cfi_def_cfa_offset 32
	.cfi_offset 12, -32
	pushq	%rbp
	.cfi_def_cfa_offset 40
	.cfi_offset 6, -40
	pushq	%rbx
	.cfi_def_cfa_offset 48
	.cfi_offset 3, -48
	subq	$112, %rsp
	.cfi_def_cfa_offset 160
	movq	%rdi, %r13
	movl	%esi, %r12d
	.loc 2 327 0
	movq	%fs:40, %rax
	movq	%rax, 104(%rsp)
	xorl	%eax, %eax
.LVL534:
.LBB3501:
.LBB3502:
	.loc 1 178 0
	movb	$0, (%rsp)
	movl	$0, 4(%rsp)
	movq	$0, 8(%rsp)
	movq	%rdx, 16(%rsp)
	movl	$0, 24(%rsp)
	.loc 1 180 0
	movq	%rsp, %rdi
.LVL535:
.LEHB36:
	call	_ZN5Proto8Iterator5enterEv@PLT
.LVL536:
.LBE3502:
.LBE3501:
.LBB3503:
.LBB3504:
	.loc 1 213 0
	movl	4(%rsp), %eax
	cmpl	$1, %eax
	je	.L184
	cmpl	$2, %eax
	je	.L185
	jmp	.L208
.L184:
.LVL537:
.LBB3505:
.LBB3506:
.LBB3507:
.LBB3508:
	.loc 1 257 0
	movq	8(%rsp), %rbx
.LVL538:
	.loc 1 258 0
	movq	%rsp, %rdi
	call	_ZN5Proto8Iterator4nextEv@PLT
.LVL539:
.LBE3508:
.LBE3507:
.LBE3506:
.LBE3505:
	.loc 1 214 0
	movsbl	(%rbx), %ebx
	jmp	.L186
.L185:
.LVL540:
.LBB3509:
.LBB3510:
.LBB3511:
.LBB3512:
.LBB3513:
	.loc 1 257 0
	movq	8(%rsp), %rbx
.LVL541:
	.loc 1 258 0
	movq	%rsp, %rdi
	call	_ZN5Proto8Iterator4nextEv@PLT
.LVL542:
.LBE3513:
.LBE3512:
	.loc 1 239 0
	movzwl	(%rbx), %ebx
.LVL543:
#APP
# 239 "./src/proto/protocol.hpp" 1
	rorw $8, %bx
# 0 "" 2
.LVL544:
#NO_APP
.LBE3511:
.LBE3510:
.LBE3509:
	.loc 1 215 0
	movswl	%bx, %ebx
	jmp	.L186
.L208:
.LVL545:
.LBB3514:
.LBB3515:
.LBB3516:
.LBB3517:
	.loc 1 257 0
	movq	8(%rsp), %rbx
.LVL546:
	.loc 1 258 0
	movq	%rsp, %rdi
	call	_ZN5Proto8Iterator4nextEv@PLT
.LVL547:
.LBE3517:
.LBE3516:
.LBB3518:
.LBB3519:
	.loc 8 47 0
	movl	(%rbx), %ebx
.LVL548:
	bswap	%ebx
.LVL549:
.L186:
.LBE3519:
.LBE3518:
.LBE3515:
.LBE3514:
.LBE3504:
.LBE3503:
.LBB3520:
.LBB3521:
	.loc 1 202 0
	movl	4(%rsp), %eax
	cmpl	$1, %eax
	je	.L188
	cmpl	$2, %eax
	je	.L189
	jmp	.L209
.L188:
.LVL550:
.LBB3522:
.LBB3523:
.LBB3524:
.LBB3525:
	.loc 1 257 0
	movq	8(%rsp), %rbp
.LVL551:
	.loc 1 258 0
	movq	%rsp, %rdi
	call	_ZN5Proto8Iterator4nextEv@PLT
.LVL552:
.LBE3525:
.LBE3524:
.LBE3523:
.LBE3522:
	.loc 1 203 0
	movzbl	0(%rbp), %ebp
	jmp	.L190
.L189:
.LVL553:
.LBB3526:
.LBB3527:
.LBB3528:
.LBB3529:
	.loc 1 257 0
	movq	8(%rsp), %rbp
.LVL554:
	.loc 1 258 0
	movq	%rsp, %rdi
	call	_ZN5Proto8Iterator4nextEv@PLT
.LVL555:
.LBE3529:
.LBE3528:
	.loc 1 227 0
	movzwl	0(%rbp), %ebp
.LVL556:
#APP
# 227 "./src/proto/protocol.hpp" 1
	rorw $8, %bp
# 0 "" 2
.LVL557:
#NO_APP
.LBE3527:
.LBE3526:
	.loc 1 204 0
	movzwl	%bp, %ebp
	jmp	.L190
.L209:
.LVL558:
.LBB3530:
.LBB3531:
.LBB3532:
.LBB3533:
	.loc 1 257 0
	movq	8(%rsp), %rbp
.LVL559:
	.loc 1 258 0
	movq	%rsp, %rdi
	call	_ZN5Proto8Iterator4nextEv@PLT
.LVL560:
.LBE3533:
.LBE3532:
.LBB3534:
.LBB3535:
	.loc 8 47 0
	movl	0(%rbp), %ebp
.LVL561:
	bswap	%ebp
.LVL562:
.L190:
.LBE3535:
.LBE3534:
.LBE3531:
.LBE3530:
.LBE3521:
.LBE3520:
.LBB3536:
.LBB3537:
.LBB3538:
	.loc 9 832 0
	movq	80(%r13), %rax
.LVL563:
.LBE3538:
.LBE3537:
.LBB3539:
.LBB3540:
	.loc 9 850 0
	leaq	80(%r13), %rdx
.LVL564:
.LBE3540:
.LBE3539:
.LBE3536:
	.loc 2 333 0
	movl	$-1, %r13d
.LVL565:
.LBB3544:
	.loc 2 335 0
	cmpq	%rdx, %rax
	je	.L191
.LBB3541:
	.loc 2 336 0
	movq	16(%rax), %rdi
.LVL566:
	.loc 2 337 0
	cmpl	%ebx, (%rdi)
	jne	.L193
	jmp	.L192
.LVL567:
.L194:
	.loc 2 336 0
	movq	16(%rax), %rdi
	.loc 2 337 0
	cmpl	%ebx, (%rdi)
	jne	.L193
.LVL568:
.L192:
	.loc 2 338 0
	movl	%ebp, %esi
	call	usb_resetep@PLT
.LVL569:
	movl	%eax, %r13d
	jmp	.L191
.LVL570:
.L193:
.LBE3541:
.LBB3542:
.LBB3543:
	.loc 9 159 0
	movq	(%rax), %rax
.LVL571:
.LBE3543:
.LBE3542:
	.loc 2 335 0
	cmpq	%rax, %rdx
	jne	.L194
.LBE3544:
	.loc 2 333 0
	movl	$-1, %r13d
.LVL572:
.L191:
	.loc 2 343 0
	call	log_level@PLT
.LVL573:
	testb	$4, %al
	je	.L195
.LVL574:
	.loc 2 343 0 discriminator 2
	movq	stderr@GOTPCREL(%rip), %r14
.LVL575:
.LBB3545:
.LBB3546:
	.loc 3 98 0 discriminator 2
	leaq	_ZZN10UsbService11usb_resetepEiRN5Proto6PacketEE8__func__(%rip), %rcx
	leaq	.LC0(%rip), %rdx
	movl	$1, %esi
	movq	(%r14), %rdi
	movl	$0, %eax
	call	__fprintf_chk@PLT
.LVL576:
.LBE3546:
.LBE3545:
.LBB3547:
.LBB3548:
	movl	%r13d, %r9d
	movl	%ebp, %r8d
	movl	%ebx, %ecx
	leaq	.LC9(%rip), %rdx
	movl	$1, %esi
	movq	(%r14), %rdi
	movl	$0, %eax
	call	__fprintf_chk@PLT
.LVL577:
.LBE3548:
.LBE3547:
.LBB3549:
.LBB3550:
	movq	(%r14), %rsi
	movl	$10, %edi
	call	fputc@PLT
.LVL578:
.L195:
.LBE3550:
.LBE3549:
.LBB3551:
.LBB3552:
	.loc 1 279 0
	leaq	32(%rsp), %rbx
.LVL579:
	leaq	64(%rsp), %rsi
	movl	$0, %edx
	movq	%rbx, %rdi
	call	_ZN5Proto6StructC2ERNSt7__cxx1112basic_stringIcSt11char_traitsIcESaIcEEEi@PLT
.LVL580:
.LEHE36:
	movq	_ZTVN5Proto6PacketE@GOTPCREL(%rip), %rax
	leaq	16(%rax), %rax
	movq	%rax, 32(%rsp)
.LVL581:
.LBB3553:
.LBB3554:
.LBB3555:
	.loc 4 109 0
	addq	$48, %rbx
.LVL582:
	movq	%rbx, 64(%rsp)
.LVL583:
.LBE3555:
.LBE3554:
.LBB3556:
.LBB3557:
.LBB3558:
	.loc 4 131 0
	movq	$0, 72(%rsp)
.LVL584:
.LBE3558:
.LBE3557:
.LBB3559:
.LBB3560:
	.loc 5 243 0
	movb	$0, 80(%rsp)
.LVL585:
.LBE3560:
.LBE3559:
.LBE3556:
.LBE3553:
.LBB3561:
.LBB3562:
	.loc 1 91 0
	movslq	52(%rsp), %rsi
	movq	40(%rsp), %rdi
.LVL586:
.LBB3563:
.LBB3564:
.LBB3565:
.LBB3566:
.LBB3567:
.LBB3568:
	.loc 4 716 0
	movq	8(%rdi), %rcx
.LVL587:
.LBE3568:
.LBE3567:
	.loc 4 260 0
	cmpq	%rcx, %rsi
	jbe	.L196
	.loc 4 261 0
	movq	%rsi, %rdx
	leaq	.LC3(%rip), %rsi
.LVL588:
	leaq	.LC4(%rip), %rdi
.LVL589:
	movl	$0, %eax
.LEHB37:
	call	_ZSt24__throw_out_of_range_fmtPKcz@PLT
.LVL590:
.L196:
.LBE3566:
.LBE3565:
	.loc 4 1418 0
	movl	$64, %r8d
	movl	$1, %ecx
	movl	$0, %edx
	call	_ZNSt7__cxx1112basic_stringIcSt11char_traitsIcESaIcEE14_M_replace_auxEmmmc@PLT
.LVL591:
.LEHE37:
.LBE3564:
.LBE3563:
	.loc 1 92 0
	addl	$1, 56(%rsp)
	addl	$1, 52(%rsp)
.LVL592:
.LBE3562:
.LBE3561:
.LBE3552:
.LBE3551:
.LBB3580:
.LBB3581:
	.loc 1 156 0
	leaq	32(%rsp), %rdi
.LVL593:
	movl	%r13d, %ecx
	movl	$4, %edx
	movl	$2, %esi
.LEHB38:
	call	_ZN5Proto6Struct10addNumericEhhj@PLT
.LVL594:
.LEHE38:
	jmp	.L210
.LVL595:
.L206:
	movq	%rax, %rbx
.LVL596:
.LBE3581:
.LBE3580:
.LBB3582:
.LBB3579:
.LBB3569:
.LBB3570:
.LBB3571:
.LBB3572:
.LBB3573:
.LBB3574:
	.loc 4 135 0
	movq	64(%rsp), %rdi
.LVL597:
.LBE3574:
.LBE3573:
.LBE3572:
	.loc 4 179 0
	leaq	80(%rsp), %rax
	cmpq	%rax, %rdi
	je	.L199
.LVL598:
.LBB3575:
.LBB3576:
.LBB3577:
.LBB3578:
	.loc 6 110 0
	call	_ZdlPv@PLT
.LVL599:
.L199:
	movq	%rbx, %rdi
.LEHB39:
	call	_Unwind_Resume@PLT
.LVL600:
.LEHE39:
.L210:
.LBE3578:
.LBE3577:
.LBE3576:
.LBE3575:
.LBE3571:
.LBE3570:
.LBE3569:
.LBE3579:
.LBE3582:
	.loc 2 348 0
	leaq	32(%rsp), %rdi
.LVL601:
	movl	%r12d, %esi
.LEHB40:
	call	_ZN5Proto6Packet4sendEi@PLT
.LVL602:
.LEHE40:
.LBB3583:
.LBB3584:
	.loc 1 273 0
	movq	_ZTVN5Proto6PacketE@GOTPCREL(%rip), %rax
	leaq	16(%rax), %rax
	movq	%rax, 32(%rsp)
.LVL603:
.LBB3585:
.LBB3586:
.LBB3587:
.LBB3588:
.LBB3589:
.LBB3590:
	.loc 4 135 0
	movq	64(%rsp), %rdi
.LVL604:
.LBE3590:
.LBE3589:
.LBE3588:
	.loc 4 179 0
	leaq	80(%rsp), %rax
	cmpq	%rax, %rdi
	je	.L182
.LVL605:
.LBB3591:
.LBB3592:
.LBB3593:
.LBB3594:
	.loc 6 110 0
	call	_ZdlPv@PLT
.LVL606:
.LBE3594:
.LBE3593:
.LBE3592:
.LBE3591:
.LBE3587:
.LBE3586:
.LBE3585:
.LBE3584:
.LBE3583:
	.loc 2 349 0
	jmp	.L182
.LVL607:
.L205:
	movq	%rax, %rbx
.LVL608:
.LBB3595:
.LBB3596:
	.loc 1 273 0
	movq	_ZTVN5Proto6PacketE@GOTPCREL(%rip), %rax
	leaq	16(%rax), %rax
	movq	%rax, 32(%rsp)
.LVL609:
.LBB3597:
.LBB3598:
.LBB3599:
.LBB3600:
.LBB3601:
.LBB3602:
	.loc 4 135 0
	movq	64(%rsp), %rdi
.LVL610:
.LBE3602:
.LBE3601:
.LBE3600:
	.loc 4 179 0
	leaq	80(%rsp), %rax
	cmpq	%rax, %rdi
	je	.L202
.LVL611:
.LBB3603:
.LBB3604:
.LBB3605:
.LBB3606:
	.loc 6 110 0
	call	_ZdlPv@PLT
.LVL612:
.L202:
	movq	%rbx, %rdi
.LEHB41:
	call	_Unwind_Resume@PLT
.LVL613:
.LEHE41:
.L182:
.LBE3606:
.LBE3605:
.LBE3604:
.LBE3603:
.LBE3599:
.LBE3598:
.LBE3597:
.LBE3596:
.LBE3595:
	.loc 2 349 0
	movq	104(%rsp), %rax
	xorq	%fs:40, %rax
	je	.L203
	call	__stack_chk_fail@PLT
.LVL614:
.L203:
	addq	$112, %rsp
	.cfi_def_cfa_offset 48
	popq	%rbx
	.cfi_def_cfa_offset 40
	popq	%rbp
	.cfi_def_cfa_offset 32
	popq	%r12
	.cfi_def_cfa_offset 24
.LVL615:
	popq	%r13
	.cfi_def_cfa_offset 16
.LVL616:
	popq	%r14
	.cfi_def_cfa_offset 8
	ret
	.cfi_endproc
.LFE1163:
	.section	.gcc_except_table
.LLSDA1163:
	.byte	0xff
	.byte	0xff
	.byte	0x1
	.uleb128 .LLSDACSE1163-.LLSDACSB1163
.LLSDACSB1163:
	.uleb128 .LEHB36-.LFB1163
	.uleb128 .LEHE36-.LEHB36
	.uleb128 0
	.uleb128 0
	.uleb128 .LEHB37-.LFB1163
	.uleb128 .LEHE37-.LEHB37
	.uleb128 .L206-.LFB1163
	.uleb128 0
	.uleb128 .LEHB38-.LFB1163
	.uleb128 .LEHE38-.LEHB38
	.uleb128 .L205-.LFB1163
	.uleb128 0
	.uleb128 .LEHB39-.LFB1163
	.uleb128 .LEHE39-.LEHB39
	.uleb128 0
	.uleb128 0
	.uleb128 .LEHB40-.LFB1163
	.uleb128 .LEHE40-.LEHB40
	.uleb128 .L205-.LFB1163
	.uleb128 0
	.uleb128 .LEHB41-.LFB1163
	.uleb128 .LEHE41-.LEHB41
	.uleb128 0
	.uleb128 0
.LLSDACSE1163:
	.text
	.size	_ZN10UsbService11usb_resetepEiRN5Proto6PacketE, .-_ZN10UsbService11usb_resetepEiRN5Proto6PacketE
	.align 2
	.globl	_ZN10UsbService14usb_clear_haltEiRN5Proto6PacketE
	.type	_ZN10UsbService14usb_clear_haltEiRN5Proto6PacketE, @function
_ZN10UsbService14usb_clear_haltEiRN5Proto6PacketE:
.LFB1164:
	.loc 2 352 0
	.cfi_startproc
	.cfi_personality 0x9b,DW.ref.__gxx_personality_v0
	.cfi_lsda 0x1b,.LLSDA1164
.LVL617:
	pushq	%r14
	.cfi_def_cfa_offset 16
	.cfi_offset 14, -16
	pushq	%r13
	.cfi_def_cfa_offset 24
	.cfi_offset 13, -24
	pushq	%r12
	.cfi_def_cfa_offset 32
	.cfi_offset 12, -32
	pushq	%rbp
	.cfi_def_cfa_offset 40
	.cfi_offset 6, -40
	pushq	%rbx
	.cfi_def_cfa_offset 48
	.cfi_offset 3, -48
	subq	$112, %rsp
	.cfi_def_cfa_offset 160
	movq	%rdi, %r13
	movl	%esi, %r12d
	.loc 2 352 0
	movq	%fs:40, %rax
	movq	%rax, 104(%rsp)
	xorl	%eax, %eax
.LVL618:
.LBB3739:
.LBB3740:
	.loc 1 178 0
	movb	$0, (%rsp)
	movl	$0, 4(%rsp)
	movq	$0, 8(%rsp)
	movq	%rdx, 16(%rsp)
	movl	$0, 24(%rsp)
	.loc 1 180 0
	movq	%rsp, %rdi
.LVL619:
.LEHB42:
	call	_ZN5Proto8Iterator5enterEv@PLT
.LVL620:
.LBE3740:
.LBE3739:
.LBB3741:
.LBB3742:
	.loc 1 213 0
	movl	4(%rsp), %eax
	cmpl	$1, %eax
	je	.L214
	cmpl	$2, %eax
	je	.L215
	jmp	.L238
.L214:
.LVL621:
.LBB3743:
.LBB3744:
.LBB3745:
.LBB3746:
	.loc 1 257 0
	movq	8(%rsp), %rbx
.LVL622:
	.loc 1 258 0
	movq	%rsp, %rdi
	call	_ZN5Proto8Iterator4nextEv@PLT
.LVL623:
.LBE3746:
.LBE3745:
.LBE3744:
.LBE3743:
	.loc 1 214 0
	movsbl	(%rbx), %ebx
	jmp	.L216
.L215:
.LVL624:
.LBB3747:
.LBB3748:
.LBB3749:
.LBB3750:
.LBB3751:
	.loc 1 257 0
	movq	8(%rsp), %rbx
.LVL625:
	.loc 1 258 0
	movq	%rsp, %rdi
	call	_ZN5Proto8Iterator4nextEv@PLT
.LVL626:
.LBE3751:
.LBE3750:
	.loc 1 239 0
	movzwl	(%rbx), %ebx
.LVL627:
#APP
# 239 "./src/proto/protocol.hpp" 1
	rorw $8, %bx
# 0 "" 2
.LVL628:
#NO_APP
.LBE3749:
.LBE3748:
.LBE3747:
	.loc 1 215 0
	movswl	%bx, %ebx
	jmp	.L216
.L238:
.LVL629:
.LBB3752:
.LBB3753:
.LBB3754:
.LBB3755:
	.loc 1 257 0
	movq	8(%rsp), %rbx
.LVL630:
	.loc 1 258 0
	movq	%rsp, %rdi
	call	_ZN5Proto8Iterator4nextEv@PLT
.LVL631:
.LBE3755:
.LBE3754:
.LBB3756:
.LBB3757:
	.loc 8 47 0
	movl	(%rbx), %ebx
.LVL632:
	bswap	%ebx
.LVL633:
.L216:
.LBE3757:
.LBE3756:
.LBE3753:
.LBE3752:
.LBE3742:
.LBE3741:
.LBB3758:
.LBB3759:
	.loc 1 202 0
	movl	4(%rsp), %eax
	cmpl	$1, %eax
	je	.L218
	cmpl	$2, %eax
	je	.L219
	jmp	.L239
.L218:
.LVL634:
.LBB3760:
.LBB3761:
.LBB3762:
.LBB3763:
	.loc 1 257 0
	movq	8(%rsp), %rbp
.LVL635:
	.loc 1 258 0
	movq	%rsp, %rdi
	call	_ZN5Proto8Iterator4nextEv@PLT
.LVL636:
.LBE3763:
.LBE3762:
.LBE3761:
.LBE3760:
	.loc 1 203 0
	movzbl	0(%rbp), %ebp
	jmp	.L220
.L219:
.LVL637:
.LBB3764:
.LBB3765:
.LBB3766:
.LBB3767:
	.loc 1 257 0
	movq	8(%rsp), %rbp
.LVL638:
	.loc 1 258 0
	movq	%rsp, %rdi
	call	_ZN5Proto8Iterator4nextEv@PLT
.LVL639:
.LBE3767:
.LBE3766:
	.loc 1 227 0
	movzwl	0(%rbp), %ebp
.LVL640:
#APP
# 227 "./src/proto/protocol.hpp" 1
	rorw $8, %bp
# 0 "" 2
.LVL641:
#NO_APP
.LBE3765:
.LBE3764:
	.loc 1 204 0
	movzwl	%bp, %ebp
	jmp	.L220
.L239:
.LVL642:
.LBB3768:
.LBB3769:
.LBB3770:
.LBB3771:
	.loc 1 257 0
	movq	8(%rsp), %rbp
.LVL643:
	.loc 1 258 0
	movq	%rsp, %rdi
	call	_ZN5Proto8Iterator4nextEv@PLT
.LVL644:
.LBE3771:
.LBE3770:
.LBB3772:
.LBB3773:
	.loc 8 47 0
	movl	0(%rbp), %ebp
.LVL645:
	bswap	%ebp
.LVL646:
.L220:
.LBE3773:
.LBE3772:
.LBE3769:
.LBE3768:
.LBE3759:
.LBE3758:
.LBB3774:
.LBB3775:
.LBB3776:
	.loc 9 832 0
	movq	80(%r13), %rax
.LVL647:
.LBE3776:
.LBE3775:
.LBB3777:
.LBB3778:
	.loc 9 850 0
	leaq	80(%r13), %rdx
.LVL648:
.LBE3778:
.LBE3777:
.LBE3774:
	.loc 2 358 0
	movl	$-1, %r13d
.LVL649:
.LBB3782:
	.loc 2 360 0
	cmpq	%rdx, %rax
	je	.L221
.LBB3779:
	.loc 2 361 0
	movq	16(%rax), %rdi
.LVL650:
	.loc 2 362 0
	cmpl	%ebx, (%rdi)
	jne	.L223
	jmp	.L222
.LVL651:
.L224:
	.loc 2 361 0
	movq	16(%rax), %rdi
	.loc 2 362 0
	cmpl	%ebx, (%rdi)
	jne	.L223
.LVL652:
.L222:
	.loc 2 363 0
	movl	%ebp, %esi
	call	usb_clear_halt@PLT
.LVL653:
	movl	%eax, %r13d
	jmp	.L221
.LVL654:
.L223:
.LBE3779:
.LBB3780:
.LBB3781:
	.loc 9 159 0
	movq	(%rax), %rax
.LVL655:
.LBE3781:
.LBE3780:
	.loc 2 360 0
	cmpq	%rax, %rdx
	jne	.L224
.LBE3782:
	.loc 2 358 0
	movl	$-1, %r13d
.LVL656:
.L221:
	.loc 2 368 0
	call	log_level@PLT
.LVL657:
	testb	$4, %al
	je	.L225
.LVL658:
	.loc 2 368 0 discriminator 2
	movq	stderr@GOTPCREL(%rip), %r14
.LVL659:
.LBB3783:
.LBB3784:
	.loc 3 98 0 discriminator 2
	leaq	_ZZN10UsbService14usb_clear_haltEiRN5Proto6PacketEE8__func__(%rip), %rcx
	leaq	.LC0(%rip), %rdx
	movl	$1, %esi
	movq	(%r14), %rdi
	movl	$0, %eax
	call	__fprintf_chk@PLT
.LVL660:
.LBE3784:
.LBE3783:
.LBB3785:
.LBB3786:
	movl	%r13d, %r9d
	movl	%ebp, %r8d
	movl	%ebx, %ecx
	leaq	.LC9(%rip), %rdx
	movl	$1, %esi
	movq	(%r14), %rdi
	movl	$0, %eax
	call	__fprintf_chk@PLT
.LVL661:
.LBE3786:
.LBE3785:
.LBB3787:
.LBB3788:
	movq	(%r14), %rsi
	movl	$10, %edi
	call	fputc@PLT
.LVL662:
.L225:
.LBE3788:
.LBE3787:
.LBB3789:
.LBB3790:
	.loc 1 279 0
	leaq	32(%rsp), %rbx
.LVL663:
	leaq	64(%rsp), %rsi
	movl	$0, %edx
	movq	%rbx, %rdi
	call	_ZN5Proto6StructC2ERNSt7__cxx1112basic_stringIcSt11char_traitsIcESaIcEEEi@PLT
.LVL664:
.LEHE42:
	movq	_ZTVN5Proto6PacketE@GOTPCREL(%rip), %rax
	leaq	16(%rax), %rax
	movq	%rax, 32(%rsp)
.LVL665:
.LBB3791:
.LBB3792:
.LBB3793:
	.loc 4 109 0
	addq	$48, %rbx
.LVL666:
	movq	%rbx, 64(%rsp)
.LVL667:
.LBE3793:
.LBE3792:
.LBB3794:
.LBB3795:
.LBB3796:
	.loc 4 131 0
	movq	$0, 72(%rsp)
.LVL668:
.LBE3796:
.LBE3795:
.LBB3797:
.LBB3798:
	.loc 5 243 0
	movb	$0, 80(%rsp)
.LVL669:
.LBE3798:
.LBE3797:
.LBE3794:
.LBE3791:
.LBB3799:
.LBB3800:
	.loc 1 91 0
	movslq	52(%rsp), %rsi
	movq	40(%rsp), %rdi
.LVL670:
.LBB3801:
.LBB3802:
.LBB3803:
.LBB3804:
.LBB3805:
.LBB3806:
	.loc 4 716 0
	movq	8(%rdi), %rcx
.LVL671:
.LBE3806:
.LBE3805:
	.loc 4 260 0
	cmpq	%rcx, %rsi
	jbe	.L226
	.loc 4 261 0
	movq	%rsi, %rdx
	leaq	.LC3(%rip), %rsi
.LVL672:
	leaq	.LC4(%rip), %rdi
.LVL673:
	movl	$0, %eax
.LEHB43:
	call	_ZSt24__throw_out_of_range_fmtPKcz@PLT
.LVL674:
.L226:
.LBE3804:
.LBE3803:
	.loc 4 1418 0
	movl	$65, %r8d
	movl	$1, %ecx
	movl	$0, %edx
	call	_ZNSt7__cxx1112basic_stringIcSt11char_traitsIcESaIcEE14_M_replace_auxEmmmc@PLT
.LVL675:
.LEHE43:
.LBE3802:
.LBE3801:
	.loc 1 92 0
	addl	$1, 56(%rsp)
	addl	$1, 52(%rsp)
.LVL676:
.LBE3800:
.LBE3799:
.LBE3790:
.LBE3789:
.LBB3818:
.LBB3819:
	.loc 1 156 0
	leaq	32(%rsp), %rdi
.LVL677:
	movl	%r13d, %ecx
	movl	$4, %edx
	movl	$2, %esi
.LEHB44:
	call	_ZN5Proto6Struct10addNumericEhhj@PLT
.LVL678:
.LEHE44:
	jmp	.L240
.LVL679:
.L236:
	movq	%rax, %rbx
.LVL680:
.LBE3819:
.LBE3818:
.LBB3820:
.LBB3817:
.LBB3807:
.LBB3808:
.LBB3809:
.LBB3810:
.LBB3811:
.LBB3812:
	.loc 4 135 0
	movq	64(%rsp), %rdi
.LVL681:
.LBE3812:
.LBE3811:
.LBE3810:
	.loc 4 179 0
	leaq	80(%rsp), %rax
	cmpq	%rax, %rdi
	je	.L229
.LVL682:
.LBB3813:
.LBB3814:
.LBB3815:
.LBB3816:
	.loc 6 110 0
	call	_ZdlPv@PLT
.LVL683:
.L229:
	movq	%rbx, %rdi
.LEHB45:
	call	_Unwind_Resume@PLT
.LVL684:
.LEHE45:
.L240:
.LBE3816:
.LBE3815:
.LBE3814:
.LBE3813:
.LBE3809:
.LBE3808:
.LBE3807:
.LBE3817:
.LBE3820:
	.loc 2 373 0
	leaq	32(%rsp), %rdi
.LVL685:
	movl	%r12d, %esi
.LEHB46:
	call	_ZN5Proto6Packet4sendEi@PLT
.LVL686:
.LEHE46:
.LBB3821:
.LBB3822:
	.loc 1 273 0
	movq	_ZTVN5Proto6PacketE@GOTPCREL(%rip), %rax
	leaq	16(%rax), %rax
	movq	%rax, 32(%rsp)
.LVL687:
.LBB3823:
.LBB3824:
.LBB3825:
.LBB3826:
.LBB3827:
.LBB3828:
	.loc 4 135 0
	movq	64(%rsp), %rdi
.LVL688:
.LBE3828:
.LBE3827:
.LBE3826:
	.loc 4 179 0
	leaq	80(%rsp), %rax
	cmpq	%rax, %rdi
	je	.L212
.LVL689:
.LBB3829:
.LBB3830:
.LBB3831:
.LBB3832:
	.loc 6 110 0
	call	_ZdlPv@PLT
.LVL690:
.LBE3832:
.LBE3831:
.LBE3830:
.LBE3829:
.LBE3825:
.LBE3824:
.LBE3823:
.LBE3822:
.LBE3821:
	.loc 2 374 0
	jmp	.L212
.LVL691:
.L235:
	movq	%rax, %rbx
.LVL692:
.LBB3833:
.LBB3834:
	.loc 1 273 0
	movq	_ZTVN5Proto6PacketE@GOTPCREL(%rip), %rax
	leaq	16(%rax), %rax
	movq	%rax, 32(%rsp)
.LVL693:
.LBB3835:
.LBB3836:
.LBB3837:
.LBB3838:
.LBB3839:
.LBB3840:
	.loc 4 135 0
	movq	64(%rsp), %rdi
.LVL694:
.LBE3840:
.LBE3839:
.LBE3838:
	.loc 4 179 0
	leaq	80(%rsp), %rax
	cmpq	%rax, %rdi
	je	.L232
.LVL695:
.LBB3841:
.LBB3842:
.LBB3843:
.LBB3844:
	.loc 6 110 0
	call	_ZdlPv@PLT
.LVL696:
.L232:
	movq	%rbx, %rdi
.LEHB47:
	call	_Unwind_Resume@PLT
.LVL697:
.LEHE47:
.L212:
.LBE3844:
.LBE3843:
.LBE3842:
.LBE3841:
.LBE3837:
.LBE3836:
.LBE3835:
.LBE3834:
.LBE3833:
	.loc 2 374 0
	movq	104(%rsp), %rax
	xorq	%fs:40, %rax
	je	.L233
	call	__stack_chk_fail@PLT
.LVL698:
.L233:
	addq	$112, %rsp
	.cfi_def_cfa_offset 48
	popq	%rbx
	.cfi_def_cfa_offset 40
	popq	%rbp
	.cfi_def_cfa_offset 32
	popq	%r12
	.cfi_def_cfa_offset 24
.LVL699:
	popq	%r13
	.cfi_def_cfa_offset 16
.LVL700:
	popq	%r14
	.cfi_def_cfa_offset 8
	ret
	.cfi_endproc
.LFE1164:
	.section	.gcc_except_table
.LLSDA1164:
	.byte	0xff
	.byte	0xff
	.byte	0x1
	.uleb128 .LLSDACSE1164-.LLSDACSB1164
.LLSDACSB1164:
	.uleb128 .LEHB42-.LFB1164
	.uleb128 .LEHE42-.LEHB42
	.uleb128 0
	.uleb128 0
	.uleb128 .LEHB43-.LFB1164
	.uleb128 .LEHE43-.LEHB43
	.uleb128 .L236-.LFB1164
	.uleb128 0
	.uleb128 .LEHB44-.LFB1164
	.uleb128 .LEHE44-.LEHB44
	.uleb128 .L235-.LFB1164
	.uleb128 0
	.uleb128 .LEHB45-.LFB1164
	.uleb128 .LEHE45-.LEHB45
	.uleb128 0
	.uleb128 0
	.uleb128 .LEHB46-.LFB1164
	.uleb128 .LEHE46-.LEHB46
	.uleb128 .L235-.LFB1164
	.uleb128 0
	.uleb128 .LEHB47-.LFB1164
	.uleb128 .LEHE47-.LEHB47
	.uleb128 0
	.uleb128 0
.LLSDACSE1164:
	.text
	.size	_ZN10UsbService14usb_clear_haltEiRN5Proto6PacketE, .-_ZN10UsbService14usb_clear_haltEiRN5Proto6PacketE
	.align 2
	.globl	_ZN10UsbService9usb_resetEiRN5Proto6PacketE
	.type	_ZN10UsbService9usb_resetEiRN5Proto6PacketE, @function
_ZN10UsbService9usb_resetEiRN5Proto6PacketE:
.LFB1165:
	.loc 2 377 0
	.cfi_startproc
	.cfi_personality 0x9b,DW.ref.__gxx_personality_v0
	.cfi_lsda 0x1b,.LLSDA1165
.LVL701:
	pushq	%r13
	.cfi_def_cfa_offset 16
	.cfi_offset 13, -16
	pushq	%r12
	.cfi_def_cfa_offset 24
	.cfi_offset 12, -24
	pushq	%rbp
	.cfi_def_cfa_offset 32
	.cfi_offset 6, -32
	pushq	%rbx
	.cfi_def_cfa_offset 40
	.cfi_offset 3, -40
	subq	$120, %rsp
	.cfi_def_cfa_offset 160
	movq	%rdi, %rbx
	movl	%esi, %r12d
	.loc 2 377 0
	movq	%fs:40, %rax
	movq	%rax, 104(%rsp)
	xorl	%eax, %eax
.LVL702:
.LBB3961:
.LBB3962:
	.loc 1 178 0
	movb	$0, (%rsp)
	movl	$0, 4(%rsp)
	movq	$0, 8(%rsp)
	movq	%rdx, 16(%rsp)
	movl	$0, 24(%rsp)
	.loc 1 180 0
	movq	%rsp, %rdi
.LVL703:
.LEHB48:
	call	_ZN5Proto8Iterator5enterEv@PLT
.LVL704:
.LBE3962:
.LBE3961:
.LBB3963:
.LBB3964:
	.loc 1 213 0
	movl	4(%rsp), %eax
	cmpl	$1, %eax
	je	.L244
	cmpl	$2, %eax
	je	.L245
	jmp	.L264
.L244:
.LVL705:
.LBB3965:
.LBB3966:
.LBB3967:
.LBB3968:
	.loc 1 257 0
	movq	8(%rsp), %rbp
.LVL706:
	.loc 1 258 0
	movq	%rsp, %rdi
	call	_ZN5Proto8Iterator4nextEv@PLT
.LVL707:
.LBE3968:
.LBE3967:
.LBE3966:
.LBE3965:
	.loc 1 214 0
	movsbl	0(%rbp), %ebp
	jmp	.L246
.L245:
.LVL708:
.LBB3969:
.LBB3970:
.LBB3971:
.LBB3972:
.LBB3973:
	.loc 1 257 0
	movq	8(%rsp), %rbp
.LVL709:
	.loc 1 258 0
	movq	%rsp, %rdi
	call	_ZN5Proto8Iterator4nextEv@PLT
.LVL710:
.LBE3973:
.LBE3972:
	.loc 1 239 0
	movzwl	0(%rbp), %ebp
.LVL711:
#APP
# 239 "./src/proto/protocol.hpp" 1
	rorw $8, %bp
# 0 "" 2
.LVL712:
#NO_APP
.LBE3971:
.LBE3970:
.LBE3969:
	.loc 1 215 0
	movswl	%bp, %ebp
	jmp	.L246
.L264:
.LVL713:
.LBB3974:
.LBB3975:
.LBB3976:
.LBB3977:
	.loc 1 257 0
	movq	8(%rsp), %rbp
.LVL714:
	.loc 1 258 0
	movq	%rsp, %rdi
	call	_ZN5Proto8Iterator4nextEv@PLT
.LVL715:
.LBE3977:
.LBE3976:
.LBB3978:
.LBB3979:
	.loc 8 47 0
	movl	0(%rbp), %ebp
.LVL716:
	bswap	%ebp
.LVL717:
.L246:
.LBE3979:
.LBE3978:
.LBE3975:
.LBE3974:
.LBE3964:
.LBE3963:
.LBB3980:
.LBB3981:
.LBB3982:
	.loc 9 832 0
	movq	80(%rbx), %rax
.LVL718:
.LBE3982:
.LBE3981:
.LBB3983:
.LBB3984:
	.loc 9 850 0
	leaq	80(%rbx), %rdx
.LVL719:
.LBE3984:
.LBE3983:
.LBE3980:
	.loc 2 382 0
	movl	$-1, %r13d
.LBB3988:
	.loc 2 384 0
	cmpq	%rdx, %rax
	je	.L247
.LBB3985:
	.loc 2 385 0
	movq	16(%rax), %rdi
.LVL720:
	.loc 2 386 0
	cmpl	%ebp, (%rdi)
	jne	.L249
	jmp	.L248
.LVL721:
.L250:
	.loc 2 385 0
	movq	16(%rax), %rdi
	.loc 2 386 0
	cmpl	%ebp, (%rdi)
	jne	.L249
.LVL722:
.L248:
	.loc 2 387 0
	call	usb_reset@PLT
.LVL723:
	movl	%eax, %r13d
	jmp	.L247
.LVL724:
.L249:
.LBE3985:
.LBB3986:
.LBB3987:
	.loc 9 159 0
	movq	(%rax), %rax
.LVL725:
.LBE3987:
.LBE3986:
	.loc 2 384 0
	cmpq	%rax, %rdx
	jne	.L250
.LBE3988:
	.loc 2 382 0
	movl	$-1, %r13d
.LVL726:
.L247:
	.loc 2 392 0
	call	log_level@PLT
.LVL727:
	testb	$4, %al
	je	.L251
.LVL728:
	.loc 2 392 0 discriminator 2
	movq	stderr@GOTPCREL(%rip), %rbx
.LVL729:
.LBB3989:
.LBB3990:
	.loc 3 98 0 discriminator 2
	leaq	_ZZN10UsbService9usb_resetEiRN5Proto6PacketEE8__func__(%rip), %rcx
	leaq	.LC0(%rip), %rdx
	movl	$1, %esi
	movq	(%rbx), %rdi
	movl	$0, %eax
	call	__fprintf_chk@PLT
.LVL730:
.LBE3990:
.LBE3989:
.LBB3991:
.LBB3992:
	movl	%r13d, %r8d
	movl	%ebp, %ecx
	leaq	.LC6(%rip), %rdx
	movl	$1, %esi
	movq	(%rbx), %rdi
	movl	$0, %eax
	call	__fprintf_chk@PLT
.LVL731:
.LBE3992:
.LBE3991:
.LBB3993:
.LBB3994:
	movq	(%rbx), %rsi
	movl	$10, %edi
	call	fputc@PLT
.LVL732:
.L251:
.LBE3994:
.LBE3993:
.LBB3995:
.LBB3996:
	.loc 1 279 0
	leaq	32(%rsp), %rbx
.LVL733:
	leaq	64(%rsp), %rsi
	movl	$0, %edx
	movq	%rbx, %rdi
	call	_ZN5Proto6StructC2ERNSt7__cxx1112basic_stringIcSt11char_traitsIcESaIcEEEi@PLT
.LVL734:
.LEHE48:
	movq	_ZTVN5Proto6PacketE@GOTPCREL(%rip), %rax
	leaq	16(%rax), %rax
	movq	%rax, 32(%rsp)
.LVL735:
.LBB3997:
.LBB3998:
.LBB3999:
	.loc 4 109 0
	addq	$48, %rbx
.LVL736:
	movq	%rbx, 64(%rsp)
.LVL737:
.LBE3999:
.LBE3998:
.LBB4000:
.LBB4001:
.LBB4002:
	.loc 4 131 0
	movq	$0, 72(%rsp)
.LVL738:
.LBE4002:
.LBE4001:
.LBB4003:
.LBB4004:
	.loc 5 243 0
	movb	$0, 80(%rsp)
.LVL739:
.LBE4004:
.LBE4003:
.LBE4000:
.LBE3997:
.LBB4005:
.LBB4006:
	.loc 1 91 0
	movslq	52(%rsp), %rsi
	movq	40(%rsp), %rdi
.LVL740:
.LBB4007:
.LBB4008:
.LBB4009:
.LBB4010:
.LBB4011:
.LBB4012:
	.loc 4 716 0
	movq	8(%rdi), %rcx
.LVL741:
.LBE4012:
.LBE4011:
	.loc 4 260 0
	cmpq	%rcx, %rsi
	jbe	.L252
	.loc 4 261 0
	movq	%rsi, %rdx
	leaq	.LC3(%rip), %rsi
.LVL742:
	leaq	.LC4(%rip), %rdi
.LVL743:
	movl	$0, %eax
.LEHB49:
	call	_ZSt24__throw_out_of_range_fmtPKcz@PLT
.LVL744:
.L252:
.LBE4010:
.LBE4009:
	.loc 4 1418 0
	movl	$66, %r8d
	movl	$1, %ecx
	movl	$0, %edx
	call	_ZNSt7__cxx1112basic_stringIcSt11char_traitsIcESaIcEE14_M_replace_auxEmmmc@PLT
.LVL745:
.LEHE49:
.LBE4008:
.LBE4007:
	.loc 1 92 0
	addl	$1, 56(%rsp)
	addl	$1, 52(%rsp)
.LVL746:
.LBE4006:
.LBE4005:
.LBE3996:
.LBE3995:
.LBB4024:
.LBB4025:
	.loc 1 156 0
	leaq	32(%rsp), %rdi
.LVL747:
	movl	%r13d, %ecx
	movl	$4, %edx
	movl	$2, %esi
.LEHB50:
	call	_ZN5Proto6Struct10addNumericEhhj@PLT
.LVL748:
.LEHE50:
	jmp	.L265
.LVL749:
.L262:
	movq	%rax, %rbx
.LVL750:
.LBE4025:
.LBE4024:
.LBB4026:
.LBB4023:
.LBB4013:
.LBB4014:
.LBB4015:
.LBB4016:
.LBB4017:
.LBB4018:
	.loc 4 135 0
	movq	64(%rsp), %rdi
.LVL751:
.LBE4018:
.LBE4017:
.LBE4016:
	.loc 4 179 0
	leaq	80(%rsp), %rax
	cmpq	%rax, %rdi
	je	.L255
.LVL752:
.LBB4019:
.LBB4020:
.LBB4021:
.LBB4022:
	.loc 6 110 0
	call	_ZdlPv@PLT
.LVL753:
.L255:
	movq	%rbx, %rdi
.LEHB51:
	call	_Unwind_Resume@PLT
.LVL754:
.LEHE51:
.L265:
.LBE4022:
.LBE4021:
.LBE4020:
.LBE4019:
.LBE4015:
.LBE4014:
.LBE4013:
.LBE4023:
.LBE4026:
	.loc 2 397 0
	leaq	32(%rsp), %rdi
.LVL755:
	movl	%r12d, %esi
.LEHB52:
	call	_ZN5Proto6Packet4sendEi@PLT
.LVL756:
.LEHE52:
.LBB4027:
.LBB4028:
	.loc 1 273 0
	movq	_ZTVN5Proto6PacketE@GOTPCREL(%rip), %rax
	leaq	16(%rax), %rax
	movq	%rax, 32(%rsp)
.LVL757:
.LBB4029:
.LBB4030:
.LBB4031:
.LBB4032:
.LBB4033:
.LBB4034:
	.loc 4 135 0
	movq	64(%rsp), %rdi
.LVL758:
.LBE4034:
.LBE4033:
.LBE4032:
	.loc 4 179 0
	leaq	80(%rsp), %rax
	cmpq	%rax, %rdi
	je	.L242
.LVL759:
.LBB4035:
.LBB4036:
.LBB4037:
.LBB4038:
	.loc 6 110 0
	call	_ZdlPv@PLT
.LVL760:
.LBE4038:
.LBE4037:
.LBE4036:
.LBE4035:
.LBE4031:
.LBE4030:
.LBE4029:
.LBE4028:
.LBE4027:
	.loc 2 398 0
	jmp	.L242
.LVL761:
.L261:
	movq	%rax, %rbx
.LVL762:
.LBB4039:
.LBB4040:
	.loc 1 273 0
	movq	_ZTVN5Proto6PacketE@GOTPCREL(%rip), %rax
	leaq	16(%rax), %rax
	movq	%rax, 32(%rsp)
.LVL763:
.LBB4041:
.LBB4042:
.LBB4043:
.LBB4044:
.LBB4045:
.LBB4046:
	.loc 4 135 0
	movq	64(%rsp), %rdi
.LVL764:
.LBE4046:
.LBE4045:
.LBE4044:
	.loc 4 179 0
	leaq	80(%rsp), %rax
	cmpq	%rax, %rdi
	je	.L258
.LVL765:
.LBB4047:
.LBB4048:
.LBB4049:
.LBB4050:
	.loc 6 110 0
	call	_ZdlPv@PLT
.LVL766:
.L258:
	movq	%rbx, %rdi
.LEHB53:
	call	_Unwind_Resume@PLT
.LVL767:
.LEHE53:
.L242:
.LBE4050:
.LBE4049:
.LBE4048:
.LBE4047:
.LBE4043:
.LBE4042:
.LBE4041:
.LBE4040:
.LBE4039:
	.loc 2 398 0
	movq	104(%rsp), %rax
	xorq	%fs:40, %rax
	je	.L259
	call	__stack_chk_fail@PLT
.LVL768:
.L259:
	addq	$120, %rsp
	.cfi_def_cfa_offset 40
	popq	%rbx
	.cfi_def_cfa_offset 32
	popq	%rbp
	.cfi_def_cfa_offset 24
	popq	%r12
	.cfi_def_cfa_offset 16
.LVL769:
	popq	%r13
	.cfi_def_cfa_offset 8
.LVL770:
	ret
	.cfi_endproc
.LFE1165:
	.section	.gcc_except_table
.LLSDA1165:
	.byte	0xff
	.byte	0xff
	.byte	0x1
	.uleb128 .LLSDACSE1165-.LLSDACSB1165
.LLSDACSB1165:
	.uleb128 .LEHB48-.LFB1165
	.uleb128 .LEHE48-.LEHB48
	.uleb128 0
	.uleb128 0
	.uleb128 .LEHB49-.LFB1165
	.uleb128 .LEHE49-.LEHB49
	.uleb128 .L262-.LFB1165
	.uleb128 0
	.uleb128 .LEHB50-.LFB1165
	.uleb128 .LEHE50-.LEHB50
	.uleb128 .L261-.LFB1165
	.uleb128 0
	.uleb128 .LEHB51-.LFB1165
	.uleb128 .LEHE51-.LEHB51
	.uleb128 0
	.uleb128 0
	.uleb128 .LEHB52-.LFB1165
	.uleb128 .LEHE52-.LEHB52
	.uleb128 .L261-.LFB1165
	.uleb128 0
	.uleb128 .LEHB53-.LFB1165
	.uleb128 .LEHE53-.LEHB53
	.uleb128 0
	.uleb128 0
.LLSDACSE1165:
	.text
	.size	_ZN10UsbService9usb_resetEiRN5Proto6PacketE, .-_ZN10UsbService9usb_resetEiRN5Proto6PacketE
	.align 2
	.globl	_ZN10UsbService19usb_claim_interfaceEiRN5Proto6PacketE
	.type	_ZN10UsbService19usb_claim_interfaceEiRN5Proto6PacketE, @function
_ZN10UsbService19usb_claim_interfaceEiRN5Proto6PacketE:
.LFB1166:
	.loc 2 401 0
	.cfi_startproc
	.cfi_personality 0x9b,DW.ref.__gxx_personality_v0
	.cfi_lsda 0x1b,.LLSDA1166
.LVL771:
	pushq	%r13
	.cfi_def_cfa_offset 16
	.cfi_offset 13, -16
	pushq	%r12
	.cfi_def_cfa_offset 24
	.cfi_offset 12, -24
	pushq	%rbp
	.cfi_def_cfa_offset 32
	.cfi_offset 6, -32
	pushq	%rbx
	.cfi_def_cfa_offset 40
	.cfi_offset 3, -40
	subq	$120, %rsp
	.cfi_def_cfa_offset 160
	movq	%rdi, %rbx
	movl	%esi, %r12d
	.loc 2 401 0
	movq	%fs:40, %rax
	movq	%rax, 104(%rsp)
	xorl	%eax, %eax
.LVL772:
.LBB4184:
.LBB4185:
	.loc 1 178 0
	movb	$0, (%rsp)
	movl	$0, 4(%rsp)
	movq	$0, 8(%rsp)
	movq	%rdx, 16(%rsp)
	movl	$0, 24(%rsp)
	.loc 1 180 0
	movq	%rsp, %rdi
.LVL773:
.LEHB54:
	call	_ZN5Proto8Iterator5enterEv@PLT
.LVL774:
.LBE4185:
.LBE4184:
.LBB4186:
.LBB4187:
	.loc 1 213 0
	movl	4(%rsp), %eax
	cmpl	$1, %eax
	je	.L269
	cmpl	$2, %eax
	je	.L270
	jmp	.L293
.L269:
.LVL775:
.LBB4188:
.LBB4189:
.LBB4190:
.LBB4191:
	.loc 1 257 0
	movq	8(%rsp), %rbp
.LVL776:
	.loc 1 258 0
	movq	%rsp, %rdi
	call	_ZN5Proto8Iterator4nextEv@PLT
.LVL777:
.LBE4191:
.LBE4190:
.LBE4189:
.LBE4188:
	.loc 1 214 0
	movsbl	0(%rbp), %ebp
	jmp	.L271
.L270:
.LVL778:
.LBB4192:
.LBB4193:
.LBB4194:
.LBB4195:
.LBB4196:
	.loc 1 257 0
	movq	8(%rsp), %rbp
.LVL779:
	.loc 1 258 0
	movq	%rsp, %rdi
	call	_ZN5Proto8Iterator4nextEv@PLT
.LVL780:
.LBE4196:
.LBE4195:
	.loc 1 239 0
	movzwl	0(%rbp), %ebp
.LVL781:
#APP
# 239 "./src/proto/protocol.hpp" 1
	rorw $8, %bp
# 0 "" 2
.LVL782:
#NO_APP
.LBE4194:
.LBE4193:
.LBE4192:
	.loc 1 215 0
	movswl	%bp, %ebp
	jmp	.L271
.L293:
.LVL783:
.LBB4197:
.LBB4198:
.LBB4199:
.LBB4200:
	.loc 1 257 0
	movq	8(%rsp), %rbp
.LVL784:
	.loc 1 258 0
	movq	%rsp, %rdi
	call	_ZN5Proto8Iterator4nextEv@PLT
.LVL785:
.LBE4200:
.LBE4199:
.LBB4201:
.LBB4202:
	.loc 8 47 0
	movl	0(%rbp), %ebp
.LVL786:
	bswap	%ebp
.LVL787:
.L271:
.LBE4202:
.LBE4201:
.LBE4198:
.LBE4197:
.LBE4187:
.LBE4186:
.LBB4203:
.LBB4204:
	.loc 1 213 0
	movl	4(%rsp), %eax
	cmpl	$1, %eax
	je	.L273
	cmpl	$2, %eax
	je	.L274
	jmp	.L294
.L273:
.LVL788:
.LBB4205:
.LBB4206:
.LBB4207:
.LBB4208:
	.loc 1 257 0
	movq	8(%rsp), %r13
.LVL789:
	.loc 1 258 0
	movq	%rsp, %rdi
	call	_ZN5Proto8Iterator4nextEv@PLT
.LVL790:
.LBE4208:
.LBE4207:
.LBE4206:
.LBE4205:
	.loc 1 214 0
	movsbl	0(%r13), %esi
	jmp	.L275
.L274:
.LVL791:
.LBB4209:
.LBB4210:
.LBB4211:
.LBB4212:
.LBB4213:
	.loc 1 257 0
	movq	8(%rsp), %r13
.LVL792:
	.loc 1 258 0
	movq	%rsp, %rdi
	call	_ZN5Proto8Iterator4nextEv@PLT
.LVL793:
.LBE4213:
.LBE4212:
	.loc 1 239 0
	movzwl	0(%r13), %esi
#APP
# 239 "./src/proto/protocol.hpp" 1
	rorw $8, %si
# 0 "" 2
.LVL794:
#NO_APP
.LBE4211:
.LBE4210:
.LBE4209:
	.loc 1 215 0
	movswl	%si, %esi
	jmp	.L275
.L294:
.LVL795:
.LBB4214:
.LBB4215:
.LBB4216:
.LBB4217:
	.loc 1 257 0
	movq	8(%rsp), %r13
.LVL796:
	.loc 1 258 0
	movq	%rsp, %rdi
	call	_ZN5Proto8Iterator4nextEv@PLT
.LVL797:
.LBE4217:
.LBE4216:
.LBB4218:
.LBB4219:
	.loc 8 47 0
	movl	0(%r13), %esi
	bswap	%esi
.LVL798:
.L275:
.LBE4219:
.LBE4218:
.LBE4215:
.LBE4214:
.LBE4204:
.LBE4203:
.LBB4220:
.LBB4221:
.LBB4222:
	.loc 9 832 0
	movq	80(%rbx), %rax
.LVL799:
.LBE4222:
.LBE4221:
.LBB4223:
.LBB4224:
	.loc 9 850 0
	leaq	80(%rbx), %rdx
.LVL800:
.LBE4224:
.LBE4223:
.LBE4220:
	.loc 2 405 0
	movl	$-1, %r13d
.LBB4228:
	.loc 2 409 0
	cmpq	%rdx, %rax
	je	.L276
.LBB4225:
	.loc 2 410 0
	movq	16(%rax), %rdi
.LVL801:
	.loc 2 411 0
	cmpl	%ebp, (%rdi)
	jne	.L278
	jmp	.L277
.LVL802:
.L279:
	.loc 2 410 0
	movq	16(%rax), %rdi
	.loc 2 411 0
	cmpl	%ebp, (%rdi)
	jne	.L278
.LVL803:
.L277:
	.loc 2 412 0
	call	usb_claim_interface@PLT
.LVL804:
	movl	%eax, %r13d
	jmp	.L276
.LVL805:
.L278:
.LBE4225:
.LBB4226:
.LBB4227:
	.loc 9 159 0
	movq	(%rax), %rax
.LVL806:
.LBE4227:
.LBE4226:
	.loc 2 409 0
	cmpq	%rax, %rdx
	jne	.L279
.LBE4228:
	.loc 2 405 0
	movl	$-1, %r13d
.LVL807:
.L276:
	.loc 2 417 0
	call	log_level@PLT
.LVL808:
	testb	$4, %al
	je	.L280
.LVL809:
	.loc 2 417 0 discriminator 2
	movq	stderr@GOTPCREL(%rip), %rbx
.LVL810:
.LBB4229:
.LBB4230:
	.loc 3 98 0 discriminator 2
	leaq	_ZZN10UsbService19usb_claim_interfaceEiRN5Proto6PacketEE8__func__(%rip), %rcx
	leaq	.LC0(%rip), %rdx
	movl	$1, %esi
	movq	(%rbx), %rdi
	movl	$0, %eax
	call	__fprintf_chk@PLT
.LVL811:
.LBE4230:
.LBE4229:
.LBB4231:
.LBB4232:
	movl	%r13d, %r8d
	movl	%ebp, %ecx
	leaq	.LC6(%rip), %rdx
	movl	$1, %esi
	movq	(%rbx), %rdi
	movl	$0, %eax
	call	__fprintf_chk@PLT
.LVL812:
.LBE4232:
.LBE4231:
.LBB4233:
.LBB4234:
	movq	(%rbx), %rsi
	movl	$10, %edi
	call	fputc@PLT
.LVL813:
.L280:
.LBE4234:
.LBE4233:
.LBB4235:
.LBB4236:
	.loc 1 279 0
	leaq	32(%rsp), %rbx
.LVL814:
	leaq	64(%rsp), %rsi
	movl	$0, %edx
	movq	%rbx, %rdi
	call	_ZN5Proto6StructC2ERNSt7__cxx1112basic_stringIcSt11char_traitsIcESaIcEEEi@PLT
.LVL815:
.LEHE54:
	movq	_ZTVN5Proto6PacketE@GOTPCREL(%rip), %rax
	leaq	16(%rax), %rax
	movq	%rax, 32(%rsp)
.LVL816:
.LBB4237:
.LBB4238:
.LBB4239:
	.loc 4 109 0
	addq	$48, %rbx
.LVL817:
	movq	%rbx, 64(%rsp)
.LVL818:
.LBE4239:
.LBE4238:
.LBB4240:
.LBB4241:
.LBB4242:
	.loc 4 131 0
	movq	$0, 72(%rsp)
.LVL819:
.LBE4242:
.LBE4241:
.LBB4243:
.LBB4244:
	.loc 5 243 0
	movb	$0, 80(%rsp)
.LVL820:
.LBE4244:
.LBE4243:
.LBE4240:
.LBE4237:
.LBB4245:
.LBB4246:
	.loc 1 91 0
	movslq	52(%rsp), %rsi
	movq	40(%rsp), %rdi
.LVL821:
.LBB4247:
.LBB4248:
.LBB4249:
.LBB4250:
.LBB4251:
.LBB4252:
	.loc 4 716 0
	movq	8(%rdi), %rcx
.LVL822:
.LBE4252:
.LBE4251:
	.loc 4 260 0
	cmpq	%rcx, %rsi
	jbe	.L281
	.loc 4 261 0
	movq	%rsi, %rdx
	leaq	.LC3(%rip), %rsi
.LVL823:
	leaq	.LC4(%rip), %rdi
.LVL824:
	movl	$0, %eax
.LEHB55:
	call	_ZSt24__throw_out_of_range_fmtPKcz@PLT
.LVL825:
.L281:
.LBE4250:
.LBE4249:
	.loc 4 1418 0
	movl	$56, %r8d
	movl	$1, %ecx
	movl	$0, %edx
	call	_ZNSt7__cxx1112basic_stringIcSt11char_traitsIcESaIcEE14_M_replace_auxEmmmc@PLT
.LVL826:
.LEHE55:
.LBE4248:
.LBE4247:
	.loc 1 92 0
	addl	$1, 56(%rsp)
	addl	$1, 52(%rsp)
.LVL827:
.LBE4246:
.LBE4245:
.LBE4236:
.LBE4235:
.LBB4264:
.LBB4265:
	.loc 1 156 0
	leaq	32(%rsp), %rdi
.LVL828:
	movl	%r13d, %ecx
	movl	$4, %edx
	movl	$2, %esi
.LEHB56:
	call	_ZN5Proto6Struct10addNumericEhhj@PLT
.LVL829:
.LEHE56:
	jmp	.L295
.LVL830:
.L291:
	movq	%rax, %rbx
.LVL831:
.LBE4265:
.LBE4264:
.LBB4266:
.LBB4263:
.LBB4253:
.LBB4254:
.LBB4255:
.LBB4256:
.LBB4257:
.LBB4258:
	.loc 4 135 0
	movq	64(%rsp), %rdi
.LVL832:
.LBE4258:
.LBE4257:
.LBE4256:
	.loc 4 179 0
	leaq	80(%rsp), %rax
	cmpq	%rax, %rdi
	je	.L284
.LVL833:
.LBB4259:
.LBB4260:
.LBB4261:
.LBB4262:
	.loc 6 110 0
	call	_ZdlPv@PLT
.LVL834:
.L284:
	movq	%rbx, %rdi
.LEHB57:
	call	_Unwind_Resume@PLT
.LVL835:
.LEHE57:
.L295:
.LBE4262:
.LBE4261:
.LBE4260:
.LBE4259:
.LBE4255:
.LBE4254:
.LBE4253:
.LBE4263:
.LBE4266:
	.loc 2 422 0
	leaq	32(%rsp), %rdi
.LVL836:
	movl	%r12d, %esi
.LEHB58:
	call	_ZN5Proto6Packet4sendEi@PLT
.LVL837:
.LEHE58:
.LBB4267:
.LBB4268:
	.loc 1 273 0
	movq	_ZTVN5Proto6PacketE@GOTPCREL(%rip), %rax
	leaq	16(%rax), %rax
	movq	%rax, 32(%rsp)
.LVL838:
.LBB4269:
.LBB4270:
.LBB4271:
.LBB4272:
.LBB4273:
.LBB4274:
	.loc 4 135 0
	movq	64(%rsp), %rdi
.LVL839:
.LBE4274:
.LBE4273:
.LBE4272:
	.loc 4 179 0
	leaq	80(%rsp), %rax
	cmpq	%rax, %rdi
	je	.L267
.LVL840:
.LBB4275:
.LBB4276:
.LBB4277:
.LBB4278:
	.loc 6 110 0
	call	_ZdlPv@PLT
.LVL841:
.LBE4278:
.LBE4277:
.LBE4276:
.LBE4275:
.LBE4271:
.LBE4270:
.LBE4269:
.LBE4268:
.LBE4267:
	.loc 2 423 0
	jmp	.L267
.LVL842:
.L290:
	movq	%rax, %rbx
.LVL843:
.LBB4279:
.LBB4280:
	.loc 1 273 0
	movq	_ZTVN5Proto6PacketE@GOTPCREL(%rip), %rax
	leaq	16(%rax), %rax
	movq	%rax, 32(%rsp)
.LVL844:
.LBB4281:
.LBB4282:
.LBB4283:
.LBB4284:
.LBB4285:
.LBB4286:
	.loc 4 135 0
	movq	64(%rsp), %rdi
.LVL845:
.LBE4286:
.LBE4285:
.LBE4284:
	.loc 4 179 0
	leaq	80(%rsp), %rax
	cmpq	%rax, %rdi
	je	.L287
.LVL846:
.LBB4287:
.LBB4288:
.LBB4289:
.LBB4290:
	.loc 6 110 0
	call	_ZdlPv@PLT
.LVL847:
.L287:
	movq	%rbx, %rdi
.LEHB59:
	call	_Unwind_Resume@PLT
.LVL848:
.LEHE59:
.L267:
.LBE4290:
.LBE4289:
.LBE4288:
.LBE4287:
.LBE4283:
.LBE4282:
.LBE4281:
.LBE4280:
.LBE4279:
	.loc 2 423 0
	movq	104(%rsp), %rax
	xorq	%fs:40, %rax
	je	.L288
	call	__stack_chk_fail@PLT
.LVL849:
.L288:
	addq	$120, %rsp
	.cfi_def_cfa_offset 40
	popq	%rbx
	.cfi_def_cfa_offset 32
	popq	%rbp
	.cfi_def_cfa_offset 24
	popq	%r12
	.cfi_def_cfa_offset 16
.LVL850:
	popq	%r13
	.cfi_def_cfa_offset 8
.LVL851:
	ret
	.cfi_endproc
.LFE1166:
	.section	.gcc_except_table
.LLSDA1166:
	.byte	0xff
	.byte	0xff
	.byte	0x1
	.uleb128 .LLSDACSE1166-.LLSDACSB1166
.LLSDACSB1166:
	.uleb128 .LEHB54-.LFB1166
	.uleb128 .LEHE54-.LEHB54
	.uleb128 0
	.uleb128 0
	.uleb128 .LEHB55-.LFB1166
	.uleb128 .LEHE55-.LEHB55
	.uleb128 .L291-.LFB1166
	.uleb128 0
	.uleb128 .LEHB56-.LFB1166
	.uleb128 .LEHE56-.LEHB56
	.uleb128 .L290-.LFB1166
	.uleb128 0
	.uleb128 .LEHB57-.LFB1166
	.uleb128 .LEHE57-.LEHB57
	.uleb128 0
	.uleb128 0
	.uleb128 .LEHB58-.LFB1166
	.uleb128 .LEHE58-.LEHB58
	.uleb128 .L290-.LFB1166
	.uleb128 0
	.uleb128 .LEHB59-.LFB1166
	.uleb128 .LEHE59-.LEHB59
	.uleb128 0
	.uleb128 0
.LLSDACSE1166:
	.text
	.size	_ZN10UsbService19usb_claim_interfaceEiRN5Proto6PacketE, .-_ZN10UsbService19usb_claim_interfaceEiRN5Proto6PacketE
	.align 2
	.globl	_ZN10UsbService21usb_release_interfaceEiRN5Proto6PacketE
	.type	_ZN10UsbService21usb_release_interfaceEiRN5Proto6PacketE, @function
_ZN10UsbService21usb_release_interfaceEiRN5Proto6PacketE:
.LFB1167:
	.loc 2 426 0
	.cfi_startproc
	.cfi_personality 0x9b,DW.ref.__gxx_personality_v0
	.cfi_lsda 0x1b,.LLSDA1167
.LVL852:
	pushq	%r13
	.cfi_def_cfa_offset 16
	.cfi_offset 13, -16
	pushq	%r12
	.cfi_def_cfa_offset 24
	.cfi_offset 12, -24
	pushq	%rbp
	.cfi_def_cfa_offset 32
	.cfi_offset 6, -32
	pushq	%rbx
	.cfi_def_cfa_offset 40
	.cfi_offset 3, -40
	subq	$120, %rsp
	.cfi_def_cfa_offset 160
	movq	%rdi, %rbx
	movl	%esi, %r12d
	.loc 2 426 0
	movq	%fs:40, %rax
	movq	%rax, 104(%rsp)
	xorl	%eax, %eax
.LVL853:
.LBB4424:
.LBB4425:
	.loc 1 178 0
	movb	$0, (%rsp)
	movl	$0, 4(%rsp)
	movq	$0, 8(%rsp)
	movq	%rdx, 16(%rsp)
	movl	$0, 24(%rsp)
	.loc 1 180 0
	movq	%rsp, %rdi
.LVL854:
.LEHB60:
	call	_ZN5Proto8Iterator5enterEv@PLT
.LVL855:
.LBE4425:
.LBE4424:
.LBB4426:
.LBB4427:
	.loc 1 213 0
	movl	4(%rsp), %eax
	cmpl	$1, %eax
	je	.L299
	cmpl	$2, %eax
	je	.L300
	jmp	.L323
.L299:
.LVL856:
.LBB4428:
.LBB4429:
.LBB4430:
.LBB4431:
	.loc 1 257 0
	movq	8(%rsp), %rbp
.LVL857:
	.loc 1 258 0
	movq	%rsp, %rdi
	call	_ZN5Proto8Iterator4nextEv@PLT
.LVL858:
.LBE4431:
.LBE4430:
.LBE4429:
.LBE4428:
	.loc 1 214 0
	movsbl	0(%rbp), %ebp
	jmp	.L301
.L300:
.LVL859:
.LBB4432:
.LBB4433:
.LBB4434:
.LBB4435:
.LBB4436:
	.loc 1 257 0
	movq	8(%rsp), %rbp
.LVL860:
	.loc 1 258 0
	movq	%rsp, %rdi
	call	_ZN5Proto8Iterator4nextEv@PLT
.LVL861:
.LBE4436:
.LBE4435:
	.loc 1 239 0
	movzwl	0(%rbp), %ebp
.LVL862:
#APP
# 239 "./src/proto/protocol.hpp" 1
	rorw $8, %bp
# 0 "" 2
.LVL863:
#NO_APP
.LBE4434:
.LBE4433:
.LBE4432:
	.loc 1 215 0
	movswl	%bp, %ebp
	jmp	.L301
.L323:
.LVL864:
.LBB4437:
.LBB4438:
.LBB4439:
.LBB4440:
	.loc 1 257 0
	movq	8(%rsp), %rbp
.LVL865:
	.loc 1 258 0
	movq	%rsp, %rdi
	call	_ZN5Proto8Iterator4nextEv@PLT
.LVL866:
.LBE4440:
.LBE4439:
.LBB4441:
.LBB4442:
	.loc 8 47 0
	movl	0(%rbp), %ebp
.LVL867:
	bswap	%ebp
.LVL868:
.L301:
.LBE4442:
.LBE4441:
.LBE4438:
.LBE4437:
.LBE4427:
.LBE4426:
.LBB4443:
.LBB4444:
	.loc 1 213 0
	movl	4(%rsp), %eax
	cmpl	$1, %eax
	je	.L303
	cmpl	$2, %eax
	je	.L304
	jmp	.L324
.L303:
.LVL869:
.LBB4445:
.LBB4446:
.LBB4447:
.LBB4448:
	.loc 1 257 0
	movq	8(%rsp), %r13
.LVL870:
	.loc 1 258 0
	movq	%rsp, %rdi
	call	_ZN5Proto8Iterator4nextEv@PLT
.LVL871:
.LBE4448:
.LBE4447:
.LBE4446:
.LBE4445:
	.loc 1 214 0
	movsbl	0(%r13), %esi
	jmp	.L305
.L304:
.LVL872:
.LBB4449:
.LBB4450:
.LBB4451:
.LBB4452:
.LBB4453:
	.loc 1 257 0
	movq	8(%rsp), %r13
.LVL873:
	.loc 1 258 0
	movq	%rsp, %rdi
	call	_ZN5Proto8Iterator4nextEv@PLT
.LVL874:
.LBE4453:
.LBE4452:
	.loc 1 239 0
	movzwl	0(%r13), %esi
#APP
# 239 "./src/proto/protocol.hpp" 1
	rorw $8, %si
# 0 "" 2
.LVL875:
#NO_APP
.LBE4451:
.LBE4450:
.LBE4449:
	.loc 1 215 0
	movswl	%si, %esi
	jmp	.L305
.L324:
.LVL876:
.LBB4454:
.LBB4455:
.LBB4456:
.LBB4457:
	.loc 1 257 0
	movq	8(%rsp), %r13
.LVL877:
	.loc 1 258 0
	movq	%rsp, %rdi
	call	_ZN5Proto8Iterator4nextEv@PLT
.LVL878:
.LBE4457:
.LBE4456:
.LBB4458:
.LBB4459:
	.loc 8 47 0
	movl	0(%r13), %esi
	bswap	%esi
.LVL879:
.L305:
.LBE4459:
.LBE4458:
.LBE4455:
.LBE4454:
.LBE4444:
.LBE4443:
.LBB4460:
.LBB4461:
.LBB4462:
	.loc 9 832 0
	movq	80(%rbx), %rax
.LVL880:
.LBE4462:
.LBE4461:
.LBB4463:
.LBB4464:
	.loc 9 850 0
	leaq	80(%rbx), %rdx
.LVL881:
.LBE4464:
.LBE4463:
.LBE4460:
	.loc 2 430 0
	movl	$-1, %r13d
.LBB4468:
	.loc 2 434 0
	cmpq	%rdx, %rax
	je	.L306
.LBB4465:
	.loc 2 435 0
	movq	16(%rax), %rdi
.LVL882:
	.loc 2 436 0
	cmpl	%ebp, (%rdi)
	jne	.L308
	jmp	.L307
.LVL883:
.L309:
	.loc 2 435 0
	movq	16(%rax), %rdi
	.loc 2 436 0
	cmpl	%ebp, (%rdi)
	jne	.L308
.LVL884:
.L307:
	.loc 2 437 0
	call	usb_release_interface@PLT
.LVL885:
	.loc 2 438 0
	movl	$0, %r13d
	jmp	.L306
.LVL886:
.L308:
.LBE4465:
.LBB4466:
.LBB4467:
	.loc 9 159 0
	movq	(%rax), %rax
.LVL887:
.LBE4467:
.LBE4466:
	.loc 2 434 0
	cmpq	%rax, %rdx
	jne	.L309
.LBE4468:
	.loc 2 430 0
	movl	$-1, %r13d
.LVL888:
.L306:
	.loc 2 443 0
	call	log_level@PLT
.LVL889:
	testb	$4, %al
	je	.L310
.LVL890:
	.loc 2 443 0 discriminator 2
	movq	stderr@GOTPCREL(%rip), %rbx
.LVL891:
.LBB4469:
.LBB4470:
	.loc 3 98 0 discriminator 2
	leaq	_ZZN10UsbService21usb_release_interfaceEiRN5Proto6PacketEE8__func__(%rip), %rcx
	leaq	.LC0(%rip), %rdx
	movl	$1, %esi
	movq	(%rbx), %rdi
	movl	$0, %eax
	call	__fprintf_chk@PLT
.LVL892:
.LBE4470:
.LBE4469:
.LBB4471:
.LBB4472:
	movl	%r13d, %r8d
	movl	%ebp, %ecx
	leaq	.LC6(%rip), %rdx
	movl	$1, %esi
	movq	(%rbx), %rdi
	movl	$0, %eax
	call	__fprintf_chk@PLT
.LVL893:
.LBE4472:
.LBE4471:
.LBB4473:
.LBB4474:
	movq	(%rbx), %rsi
	movl	$10, %edi
	call	fputc@PLT
.LVL894:
.L310:
.LBE4474:
.LBE4473:
.LBB4475:
.LBB4476:
	.loc 1 279 0
	leaq	32(%rsp), %rbx
.LVL895:
	leaq	64(%rsp), %rsi
	movl	$0, %edx
	movq	%rbx, %rdi
	call	_ZN5Proto6StructC2ERNSt7__cxx1112basic_stringIcSt11char_traitsIcESaIcEEEi@PLT
.LVL896:
.LEHE60:
	movq	_ZTVN5Proto6PacketE@GOTPCREL(%rip), %rax
	leaq	16(%rax), %rax
	movq	%rax, 32(%rsp)
.LVL897:
.LBB4477:
.LBB4478:
.LBB4479:
	.loc 4 109 0
	addq	$48, %rbx
.LVL898:
	movq	%rbx, 64(%rsp)
.LVL899:
.LBE4479:
.LBE4478:
.LBB4480:
.LBB4481:
.LBB4482:
	.loc 4 131 0
	movq	$0, 72(%rsp)
.LVL900:
.LBE4482:
.LBE4481:
.LBB4483:
.LBB4484:
	.loc 5 243 0
	movb	$0, 80(%rsp)
.LVL901:
.LBE4484:
.LBE4483:
.LBE4480:
.LBE4477:
.LBB4485:
.LBB4486:
	.loc 1 91 0
	movslq	52(%rsp), %rsi
	movq	40(%rsp), %rdi
.LVL902:
.LBB4487:
.LBB4488:
.LBB4489:
.LBB4490:
.LBB4491:
.LBB4492:
	.loc 4 716 0
	movq	8(%rdi), %rcx
.LVL903:
.LBE4492:
.LBE4491:
	.loc 4 260 0
	cmpq	%rcx, %rsi
	jbe	.L311
	.loc 4 261 0
	movq	%rsi, %rdx
	leaq	.LC3(%rip), %rsi
.LVL904:
	leaq	.LC4(%rip), %rdi
.LVL905:
	movl	$0, %eax
.LEHB61:
	call	_ZSt24__throw_out_of_range_fmtPKcz@PLT
.LVL906:
.L311:
.LBE4490:
.LBE4489:
	.loc 4 1418 0
	movl	$57, %r8d
	movl	$1, %ecx
	movl	$0, %edx
	call	_ZNSt7__cxx1112basic_stringIcSt11char_traitsIcESaIcEE14_M_replace_auxEmmmc@PLT
.LVL907:
.LEHE61:
.LBE4488:
.LBE4487:
	.loc 1 92 0
	addl	$1, 56(%rsp)
	addl	$1, 52(%rsp)
.LVL908:
.LBE4486:
.LBE4485:
.LBE4476:
.LBE4475:
.LBB4504:
.LBB4505:
	.loc 1 156 0
	leaq	32(%rsp), %rdi
.LVL909:
	movl	%r13d, %ecx
	movl	$4, %edx
	movl	$2, %esi
.LEHB62:
	call	_ZN5Proto6Struct10addNumericEhhj@PLT
.LVL910:
.LEHE62:
	jmp	.L325
.LVL911:
.L321:
	movq	%rax, %rbx
.LVL912:
.LBE4505:
.LBE4504:
.LBB4506:
.LBB4503:
.LBB4493:
.LBB4494:
.LBB4495:
.LBB4496:
.LBB4497:
.LBB4498:
	.loc 4 135 0
	movq	64(%rsp), %rdi
.LVL913:
.LBE4498:
.LBE4497:
.LBE4496:
	.loc 4 179 0
	leaq	80(%rsp), %rax
	cmpq	%rax, %rdi
	je	.L314
.LVL914:
.LBB4499:
.LBB4500:
.LBB4501:
.LBB4502:
	.loc 6 110 0
	call	_ZdlPv@PLT
.LVL915:
.L314:
	movq	%rbx, %rdi
.LEHB63:
	call	_Unwind_Resume@PLT
.LVL916:
.LEHE63:
.L325:
.LBE4502:
.LBE4501:
.LBE4500:
.LBE4499:
.LBE4495:
.LBE4494:
.LBE4493:
.LBE4503:
.LBE4506:
	.loc 2 448 0
	leaq	32(%rsp), %rdi
.LVL917:
	movl	%r12d, %esi
.LEHB64:
	call	_ZN5Proto6Packet4sendEi@PLT
.LVL918:
.LEHE64:
.LBB4507:
.LBB4508:
	.loc 1 273 0
	movq	_ZTVN5Proto6PacketE@GOTPCREL(%rip), %rax
	leaq	16(%rax), %rax
	movq	%rax, 32(%rsp)
.LVL919:
.LBB4509:
.LBB4510:
.LBB4511:
.LBB4512:
.LBB4513:
.LBB4514:
	.loc 4 135 0
	movq	64(%rsp), %rdi
.LVL920:
.LBE4514:
.LBE4513:
.LBE4512:
	.loc 4 179 0
	leaq	80(%rsp), %rax
	cmpq	%rax, %rdi
	je	.L297
.LVL921:
.LBB4515:
.LBB4516:
.LBB4517:
.LBB4518:
	.loc 6 110 0
	call	_ZdlPv@PLT
.LVL922:
.LBE4518:
.LBE4517:
.LBE4516:
.LBE4515:
.LBE4511:
.LBE4510:
.LBE4509:
.LBE4508:
.LBE4507:
	.loc 2 449 0
	jmp	.L297
.LVL923:
.L320:
	movq	%rax, %rbx
.LVL924:
.LBB4519:
.LBB4520:
	.loc 1 273 0
	movq	_ZTVN5Proto6PacketE@GOTPCREL(%rip), %rax
	leaq	16(%rax), %rax
	movq	%rax, 32(%rsp)
.LVL925:
.LBB4521:
.LBB4522:
.LBB4523:
.LBB4524:
.LBB4525:
.LBB4526:
	.loc 4 135 0
	movq	64(%rsp), %rdi
.LVL926:
.LBE4526:
.LBE4525:
.LBE4524:
	.loc 4 179 0
	leaq	80(%rsp), %rax
	cmpq	%rax, %rdi
	je	.L317
.LVL927:
.LBB4527:
.LBB4528:
.LBB4529:
.LBB4530:
	.loc 6 110 0
	call	_ZdlPv@PLT
.LVL928:
.L317:
	movq	%rbx, %rdi
.LEHB65:
	call	_Unwind_Resume@PLT
.LVL929:
.LEHE65:
.L297:
.LBE4530:
.LBE4529:
.LBE4528:
.LBE4527:
.LBE4523:
.LBE4522:
.LBE4521:
.LBE4520:
.LBE4519:
	.loc 2 449 0
	movq	104(%rsp), %rax
	xorq	%fs:40, %rax
	je	.L318
	call	__stack_chk_fail@PLT
.LVL930:
.L318:
	addq	$120, %rsp
	.cfi_def_cfa_offset 40
	popq	%rbx
	.cfi_def_cfa_offset 32
	popq	%rbp
	.cfi_def_cfa_offset 24
	popq	%r12
	.cfi_def_cfa_offset 16
.LVL931:
	popq	%r13
	.cfi_def_cfa_offset 8
.LVL932:
	ret
	.cfi_endproc
.LFE1167:
	.section	.gcc_except_table
.LLSDA1167:
	.byte	0xff
	.byte	0xff
	.byte	0x1
	.uleb128 .LLSDACSE1167-.LLSDACSB1167
.LLSDACSB1167:
	.uleb128 .LEHB60-.LFB1167
	.uleb128 .LEHE60-.LEHB60
	.uleb128 0
	.uleb128 0
	.uleb128 .LEHB61-.LFB1167
	.uleb128 .LEHE61-.LEHB61
	.uleb128 .L321-.LFB1167
	.uleb128 0
	.uleb128 .LEHB62-.LFB1167
	.uleb128 .LEHE62-.LEHB62
	.uleb128 .L320-.LFB1167
	.uleb128 0
	.uleb128 .LEHB63-.LFB1167
	.uleb128 .LEHE63-.LEHB63
	.uleb128 0
	.uleb128 0
	.uleb128 .LEHB64-.LFB1167
	.uleb128 .LEHE64-.LEHB64
	.uleb128 .L320-.LFB1167
	.uleb128 0
	.uleb128 .LEHB65-.LFB1167
	.uleb128 .LEHE65-.LEHB65
	.uleb128 0
	.uleb128 0
.LLSDACSE1167:
	.text
	.size	_ZN10UsbService21usb_release_interfaceEiRN5Proto6PacketE, .-_ZN10UsbService21usb_release_interfaceEiRN5Proto6PacketE
	.section	.rodata.str1.8
	.align 8
.LC10:
	.string	"basic_string::at: __n (which is %zu) >= this->size() (which is %zu)"
	.align 8
.LC11:
	.string	"fd %d, index %d, namelen %u = %d"
	.text
	.align 2
	.globl	_ZN10UsbService21usb_get_kernel_driverEiRN5Proto6PacketE
	.type	_ZN10UsbService21usb_get_kernel_driverEiRN5Proto6PacketE, @function
_ZN10UsbService21usb_get_kernel_driverEiRN5Proto6PacketE:
.LFB1168:
	.loc 2 452 0
	.cfi_startproc
	.cfi_personality 0x9b,DW.ref.__gxx_personality_v0
	.cfi_lsda 0x1b,.LLSDA1168
.LVL933:
	pushq	%rbp
	.cfi_def_cfa_offset 16
	.cfi_offset 6, -16
	movq	%rsp, %rbp
	.cfi_def_cfa_register 6
	pushq	%r15
	pushq	%r14
	pushq	%r13
	pushq	%r12
	pushq	%rbx
	subq	$152, %rsp
	.cfi_offset 15, -24
	.cfi_offset 14, -32
	.cfi_offset 13, -40
	.cfi_offset 12, -48
	.cfi_offset 3, -56
	movq	%rdi, %r14
	movl	%esi, %r13d
	.loc 2 452 0
	movq	%fs:40, %rax
	movq	%rax, -56(%rbp)
	xorl	%eax, %eax
.LVL934:
.LBB4741:
.LBB4742:
	.loc 1 178 0
	movb	$0, -192(%rbp)
	movl	$0, -188(%rbp)
	movq	$0, -184(%rbp)
	movq	%rdx, -176(%rbp)
	movl	$0, -168(%rbp)
	.loc 1 180 0
	leaq	-192(%rbp), %rdi
.LVL935:
.LEHB66:
	call	_ZN5Proto8Iterator5enterEv@PLT
.LVL936:
.LBE4742:
.LBE4741:
.LBB4743:
.LBB4744:
	.loc 1 213 0
	movl	-188(%rbp), %eax
	cmpl	$1, %eax
	je	.L329
	cmpl	$2, %eax
	je	.L330
	jmp	.L362
.L329:
.LVL937:
.LBB4745:
.LBB4746:
.LBB4747:
.LBB4748:
	.loc 1 257 0
	movq	-184(%rbp), %rbx
.LVL938:
	.loc 1 258 0
	leaq	-192(%rbp), %rdi
.LVL939:
	call	_ZN5Proto8Iterator4nextEv@PLT
.LVL940:
.LBE4748:
.LBE4747:
.LBE4746:
.LBE4745:
	.loc 1 214 0
	movsbl	(%rbx), %ebx
	jmp	.L331
.L330:
.LVL941:
.LBB4749:
.LBB4750:
.LBB4751:
.LBB4752:
.LBB4753:
	.loc 1 257 0
	movq	-184(%rbp), %rbx
.LVL942:
	.loc 1 258 0
	leaq	-192(%rbp), %rdi
.LVL943:
	call	_ZN5Proto8Iterator4nextEv@PLT
.LVL944:
.LBE4753:
.LBE4752:
	.loc 1 239 0
	movzwl	(%rbx), %ebx
.LVL945:
#APP
# 239 "./src/proto/protocol.hpp" 1
	rorw $8, %bx
# 0 "" 2
.LVL946:
#NO_APP
.LBE4751:
.LBE4750:
.LBE4749:
	.loc 1 215 0
	movswl	%bx, %ebx
	jmp	.L331
.L362:
.LVL947:
.LBB4754:
.LBB4755:
.LBB4756:
.LBB4757:
	.loc 1 257 0
	movq	-184(%rbp), %rbx
.LVL948:
	.loc 1 258 0
	leaq	-192(%rbp), %rdi
.LVL949:
	call	_ZN5Proto8Iterator4nextEv@PLT
.LVL950:
.LBE4757:
.LBE4756:
.LBB4758:
.LBB4759:
	.loc 8 47 0
	movl	(%rbx), %ebx
.LVL951:
	bswap	%ebx
.LVL952:
.L331:
.LBE4759:
.LBE4758:
.LBE4755:
.LBE4754:
.LBE4744:
.LBE4743:
.LBB4760:
.LBB4761:
	.loc 1 213 0
	movl	-188(%rbp), %eax
	cmpl	$1, %eax
	je	.L333
	cmpl	$2, %eax
	je	.L334
	jmp	.L363
.L333:
.LVL953:
.LBB4762:
.LBB4763:
.LBB4764:
.LBB4765:
	.loc 1 257 0
	movq	-184(%rbp), %rax
	movq	%rax, %r12
.LVL954:
	.loc 1 258 0
	leaq	-192(%rbp), %rdi
.LVL955:
	call	_ZN5Proto8Iterator4nextEv@PLT
.LVL956:
.LBE4765:
.LBE4764:
.LBE4763:
.LBE4762:
	.loc 1 214 0
	movsbl	(%r12), %r12d
	jmp	.L335
.L334:
.LVL957:
.LBB4766:
.LBB4767:
.LBB4768:
.LBB4769:
.LBB4770:
	.loc 1 257 0
	movq	-184(%rbp), %rax
	movq	%rax, %r12
.LVL958:
	.loc 1 258 0
	leaq	-192(%rbp), %rdi
.LVL959:
	call	_ZN5Proto8Iterator4nextEv@PLT
.LVL960:
.LBE4770:
.LBE4769:
	.loc 1 239 0
	movzwl	(%r12), %r12d
.LVL961:
#APP
# 239 "./src/proto/protocol.hpp" 1
	rorw $8, %r12w
# 0 "" 2
.LVL962:
#NO_APP
.LBE4768:
.LBE4767:
.LBE4766:
	.loc 1 215 0
	movswl	%r12w, %r12d
	jmp	.L335
.L363:
.LVL963:
.LBB4771:
.LBB4772:
.LBB4773:
.LBB4774:
	.loc 1 257 0
	movq	-184(%rbp), %rax
	movq	%rax, %r12
.LVL964:
	.loc 1 258 0
	leaq	-192(%rbp), %rdi
.LVL965:
	call	_ZN5Proto8Iterator4nextEv@PLT
.LVL966:
.LBE4774:
.LBE4773:
.LBB4775:
.LBB4776:
	.loc 8 47 0
	movl	(%r12), %r12d
.LVL967:
	bswap	%r12d
.LVL968:
.L335:
.LBE4776:
.LBE4775:
.LBE4772:
.LBE4771:
.LBE4761:
.LBE4760:
.LBB4777:
.LBB4778:
	.loc 1 202 0
	movl	-188(%rbp), %eax
	cmpl	$1, %eax
	je	.L337
	cmpl	$2, %eax
	je	.L338
	jmp	.L364
.L337:
.LVL969:
.LBB4779:
.LBB4780:
.LBB4781:
.LBB4782:
	.loc 1 257 0
	movq	-184(%rbp), %rax
	movq	%rax, %r15
.LVL970:
	.loc 1 258 0
	leaq	-192(%rbp), %rdi
.LVL971:
	call	_ZN5Proto8Iterator4nextEv@PLT
.LVL972:
.LBE4782:
.LBE4781:
.LBE4780:
.LBE4779:
	.loc 1 203 0
	movzbl	(%r15), %eax
	movl	%eax, %r15d
	jmp	.L339
.L338:
.LVL973:
.LBB4783:
.LBB4784:
.LBB4785:
.LBB4786:
	.loc 1 257 0
	movq	-184(%rbp), %rax
	movq	%rax, %r15
.LVL974:
	.loc 1 258 0
	leaq	-192(%rbp), %rdi
.LVL975:
	call	_ZN5Proto8Iterator4nextEv@PLT
.LVL976:
.LBE4786:
.LBE4785:
	.loc 1 227 0
	movzwl	(%r15), %eax
#APP
# 227 "./src/proto/protocol.hpp" 1
	rorw $8, %ax
# 0 "" 2
.LVL977:
#NO_APP
.LBE4784:
.LBE4783:
	.loc 1 204 0
	movzwl	%ax, %eax
	movl	%eax, %r15d
	jmp	.L339
.L364:
.LVL978:
.LBB4787:
.LBB4788:
.LBB4789:
.LBB4790:
	.loc 1 257 0
	movq	-184(%rbp), %rax
	movq	%rax, %r15
.LVL979:
	.loc 1 258 0
	leaq	-192(%rbp), %rdi
.LVL980:
	call	_ZN5Proto8Iterator4nextEv@PLT
.LVL981:
.LEHE66:
.LBE4790:
.LBE4789:
.LBB4791:
.LBB4792:
	.loc 8 47 0
	movl	(%r15), %eax
	bswap	%eax
	movl	%eax, %r15d
.LVL982:
.L339:
.LBE4792:
.LBE4791:
.LBE4788:
.LBE4787:
.LBE4778:
.LBE4777:
.LBB4793:
.LBB4794:
.LBB4795:
	.loc 4 109 0
	leaq	-160(%rbp), %rdi
.LVL983:
	leaq	16(%rdi), %rax
	movq	%rax, -160(%rbp)
.LVL984:
.LBE4795:
.LBE4794:
.LBB4796:
.LBB4797:
.LBB4798:
	.loc 4 131 0
	movq	$0, -152(%rbp)
.LVL985:
.LBE4798:
.LBE4797:
.LBB4799:
.LBB4800:
	.loc 5 243 0
	movb	$0, -144(%rbp)
.LVL986:
.LBE4800:
.LBE4799:
.LBE4796:
.LBE4793:
.LBB4801:
.LBB4802:
	.loc 4 754 0
	movl	%r15d, %esi
.LVL987:
	movl	$0, %edx
.LEHB67:
	call	_ZNSt7__cxx1112basic_stringIcSt11char_traitsIcESaIcEE6resizeEmc@PLT
.LVL988:
.LBE4802:
.LBE4801:
.LBB4803:
.LBB4804:
.LBB4805:
	.loc 9 832 0
	movq	80(%r14), %rax
.LVL989:
.LBE4805:
.LBE4804:
.LBB4806:
.LBB4807:
	.loc 9 850 0
	leaq	80(%r14), %rdx
.LVL990:
.LBE4807:
.LBE4806:
	.loc 2 465 0
	cmpq	%rax, %rdx
	je	.L357
.LBB4808:
	.loc 2 466 0
	movq	16(%rax), %rdi
.LVL991:
	.loc 2 467 0
	cmpl	%ebx, (%rdi)
	jne	.L342
	jmp	.L341
.LVL992:
.L343:
	.loc 2 466 0
	movq	16(%rax), %rdi
	.loc 2 467 0
	cmpl	%ebx, (%rdi)
	jne	.L342
.LVL993:
.L341:
	.loc 2 469 0
	movl	%r15d, %ecx
	movq	-160(%rbp), %rdx
	movl	%r12d, %esi
	call	usb_get_driver_np@PLT
.LVL994:
	movl	%eax, %r14d
.LVL995:
	jmp	.L340
.LVL996:
.L342:
.LBE4808:
.LBB4809:
.LBB4810:
	.loc 9 159 0
	movq	(%rax), %rax
.LVL997:
.LBE4810:
.LBE4809:
	.loc 2 465 0
	cmpq	%rax, %rdx
	jne	.L343
.LBE4803:
	.loc 2 463 0
	movl	$-1, %r14d
.LVL998:
.LBB4811:
	jmp	.L340
.LVL999:
.L357:
.LBE4811:
	movl	$-1, %r14d
.LVL1000:
.L340:
	.loc 2 477 0
	leal	-1(%r15), %esi
.LVL1001:
.LBB4812:
.LBB4813:
.LBB4814:
.LBB4815:
	.loc 4 716 0
	movq	-152(%rbp), %rdx
.LVL1002:
.LBE4815:
.LBE4814:
	.loc 4 892 0
	cmpq	%rsi, %rdx
	ja	.L344
	.loc 4 893 0
	leaq	.LC10(%rip), %rdi
	movl	$0, %eax
	call	_ZSt24__throw_out_of_range_fmtPKcz@PLT
.LVL1003:
.L344:
.LBE4813:
.LBE4812:
	.loc 2 477 0
	movq	-160(%rbp), %rax
	movb	$0, (%rax,%rsi)
	.loc 2 478 0
	call	log_level@PLT
.LVL1004:
	testb	$4, %al
	je	.L345
.LVL1005:
.LBB4816:
.LBB4817:
	.loc 3 98 0 discriminator 2
	leaq	_ZZN10UsbService21usb_get_kernel_driverEiRN5Proto6PacketEE8__func__(%rip), %rcx
	leaq	.LC0(%rip), %rdx
	movl	$1, %esi
	movq	stderr@GOTPCREL(%rip), %rax
.LVL1006:
	movq	(%rax), %rdi
	movl	$0, %eax
.LVL1007:
	call	__fprintf_chk@PLT
.LVL1008:
.LBE4817:
.LBE4816:
.LBB4818:
.LBB4819:
	.loc 3 98 0 is_stmt 0
	subq	$8, %rsp
	pushq	%r14
	movl	%r15d, %r9d
	movl	%r12d, %r8d
	movl	%ebx, %ecx
	leaq	.LC11(%rip), %rdx
	movl	$1, %esi
	movq	stderr@GOTPCREL(%rip), %rax
.LVL1009:
	movq	(%rax), %rdi
	movl	$0, %eax
.LVL1010:
	.cfi_escape 0x2e,0x10
	call	__fprintf_chk@PLT
.LVL1011:
	addq	$16, %rsp
.LVL1012:
.LBE4819:
.LBE4818:
	.loc 2 478 0 is_stmt 1
	movq	stderr@GOTPCREL(%rip), %rax
.LVL1013:
.LBB4820:
.LBB4821:
	.loc 3 98 0
	movq	(%rax), %rsi
	movl	$10, %edi
	.cfi_escape 0x2e,0
	call	fputc@PLT
.LVL1014:
.L345:
.LBE4821:
.LBE4820:
.LBB4822:
.LBB4823:
	.loc 1 279 0
	leaq	-128(%rbp), %rdi
.LVL1015:
	leaq	32(%rdi), %rsi
	movl	$0, %edx
	call	_ZN5Proto6StructC2ERNSt7__cxx1112basic_stringIcSt11char_traitsIcESaIcEEEi@PLT
.LVL1016:
.LEHE67:
	movq	_ZTVN5Proto6PacketE@GOTPCREL(%rip), %rax
	leaq	16(%rax), %rax
	movq	%rax, -128(%rbp)
.LVL1017:
.LBB4824:
.LBB4825:
.LBB4826:
	.loc 4 109 0
	leaq	-80(%rbp), %rax
.LVL1018:
	movq	%rax, -96(%rbp)
.LVL1019:
.LBE4826:
.LBE4825:
.LBB4827:
.LBB4828:
.LBB4829:
	.loc 4 131 0
	movq	$0, -88(%rbp)
.LVL1020:
.LBE4829:
.LBE4828:
.LBB4830:
.LBB4831:
	.loc 5 243 0
	movb	$0, -80(%rbp)
.LVL1021:
.LBE4831:
.LBE4830:
.LBE4827:
.LBE4824:
.LBB4832:
.LBB4833:
	.loc 1 91 0
	movslq	-108(%rbp), %rsi
	movq	-120(%rbp), %rdi
.LVL1022:
.LBB4834:
.LBB4835:
.LBB4836:
.LBB4837:
.LBB4838:
.LBB4839:
	.loc 4 716 0
	movq	8(%rdi), %rcx
.LVL1023:
.LBE4839:
.LBE4838:
	.loc 4 260 0
	cmpq	%rcx, %rsi
	jbe	.L346
	.loc 4 261 0
	movq	%rsi, %rdx
	leaq	.LC3(%rip), %rsi
.LVL1024:
	leaq	.LC4(%rip), %rdi
.LVL1025:
	movl	$0, %eax
.LEHB68:
	call	_ZSt24__throw_out_of_range_fmtPKcz@PLT
.LVL1026:
.L346:
.LBE4837:
.LBE4836:
	.loc 4 1418 0
	movl	$58, %r8d
	movl	$1, %ecx
	movl	$0, %edx
	call	_ZNSt7__cxx1112basic_stringIcSt11char_traitsIcESaIcEE14_M_replace_auxEmmmc@PLT
.LVL1027:
.LEHE68:
.LBE4835:
.LBE4834:
	.loc 1 92 0
	addl	$1, -104(%rbp)
	addl	$1, -108(%rbp)
.LVL1028:
.LBE4833:
.LBE4832:
.LBE4823:
.LBE4822:
.LBB4852:
.LBB4853:
	.loc 1 156 0
	leaq	-128(%rbp), %rdi
.LVL1029:
	movl	%r14d, %ecx
	movl	$4, %edx
	movl	$2, %esi
.LEHB69:
	call	_ZN5Proto6Struct10addNumericEhhj@PLT
.LVL1030:
	jmp	.L365
.LVL1031:
.L360:
	movq	%rax, %rbx
.LVL1032:
.LBE4853:
.LBE4852:
.LBB4854:
.LBB4851:
.LBB4840:
.LBB4841:
.LBB4842:
.LBB4843:
.LBB4844:
.LBB4845:
.LBB4846:
	.loc 4 135 0
	movq	-96(%rbp), %rdi
.LVL1033:
.LBE4846:
.LBE4845:
.LBE4844:
	.loc 4 179 0
	leaq	-80(%rbp), %rax
	cmpq	%rax, %rdi
	je	.L350
.LVL1034:
.LBB4847:
.LBB4848:
.LBB4849:
.LBB4850:
	.loc 6 110 0
	call	_ZdlPv@PLT
.LVL1035:
	jmp	.L350
.LVL1036:
.L365:
.LBE4850:
.LBE4849:
.LBE4848:
.LBE4847:
.LBE4843:
.LBE4842:
.LBE4841:
.LBE4840:
.LBE4851:
.LBE4854:
	.loc 2 483 0
	leaq	-128(%rbp), %rdi
	movl	$4, %edx
	movq	-160(%rbp), %rsi
	call	_ZN5Proto6Struct9addStringEPKch@PLT
.LVL1037:
	.loc 2 484 0
	leaq	-128(%rbp), %rdi
	movl	%r13d, %esi
	call	_ZN5Proto6Packet4sendEi@PLT
.LVL1038:
.LEHE69:
.LBB4855:
.LBB4856:
	.loc 1 273 0
	movq	_ZTVN5Proto6PacketE@GOTPCREL(%rip), %rax
	leaq	16(%rax), %rax
	movq	%rax, -128(%rbp)
.LVL1039:
.LBB4857:
.LBB4858:
.LBB4859:
.LBB4860:
.LBB4861:
.LBB4862:
	.loc 4 135 0
	movq	-96(%rbp), %rdi
.LVL1040:
.LBE4862:
.LBE4861:
.LBE4860:
	.loc 4 179 0
	leaq	-80(%rbp), %rax
	cmpq	%rax, %rdi
	je	.L351
.LVL1041:
.LBB4863:
.LBB4864:
.LBB4865:
.LBB4866:
	.loc 6 110 0
	call	_ZdlPv@PLT
.LVL1042:
.L351:
.LBE4866:
.LBE4865:
.LBE4864:
.LBE4863:
.LBE4859:
.LBE4858:
.LBE4857:
.LBE4856:
.LBE4855:
.LBB4867:
.LBB4868:
.LBB4869:
.LBB4870:
.LBB4871:
.LBB4872:
	.loc 4 135 0
	movq	-160(%rbp), %rdi
.LVL1043:
.LBE4872:
.LBE4871:
.LBE4870:
	.loc 4 179 0
	leaq	-144(%rbp), %rax
	cmpq	%rax, %rdi
	je	.L327
.LVL1044:
.LBB4873:
.LBB4874:
.LBB4875:
.LBB4876:
	.loc 6 110 0
	call	_ZdlPv@PLT
.LVL1045:
.LBE4876:
.LBE4875:
.LBE4874:
.LBE4873:
.LBE4869:
.LBE4868:
.LBE4867:
	.loc 2 485 0
	jmp	.L327
.LVL1046:
.L359:
	movq	%rax, %rbx
.LVL1047:
.LBB4877:
.LBB4878:
	.loc 1 273 0
	movq	_ZTVN5Proto6PacketE@GOTPCREL(%rip), %rax
	leaq	16(%rax), %rax
	movq	%rax, -128(%rbp)
.LVL1048:
.LBB4879:
.LBB4880:
.LBB4881:
.LBB4882:
.LBB4883:
.LBB4884:
	.loc 4 135 0
	movq	-96(%rbp), %rdi
.LVL1049:
.LBE4884:
.LBE4883:
.LBE4882:
	.loc 4 179 0
	leaq	-80(%rbp), %rax
	cmpq	%rax, %rdi
	je	.L350
.LVL1050:
.LBB4885:
.LBB4886:
.LBB4887:
.LBB4888:
	.loc 6 110 0
	call	_ZdlPv@PLT
.LVL1051:
	jmp	.L350
.LVL1052:
.L358:
	movq	%rax, %rbx
.L350:
.LVL1053:
.LBE4888:
.LBE4887:
.LBE4886:
.LBE4885:
.LBE4881:
.LBE4880:
.LBE4879:
.LBE4878:
.LBE4877:
.LBB4889:
.LBB4890:
.LBB4891:
.LBB4892:
.LBB4893:
.LBB4894:
	.loc 4 135 0
	movq	-160(%rbp), %rdi
.LVL1054:
.LBE4894:
.LBE4893:
.LBE4892:
	.loc 4 179 0
	leaq	-144(%rbp), %rax
	cmpq	%rax, %rdi
	je	.L355
.LVL1055:
.LBB4895:
.LBB4896:
.LBB4897:
.LBB4898:
	.loc 6 110 0
	call	_ZdlPv@PLT
.LVL1056:
.L355:
	movq	%rbx, %rdi
.LEHB70:
	call	_Unwind_Resume@PLT
.LVL1057:
.LEHE70:
.L327:
.LBE4898:
.LBE4897:
.LBE4896:
.LBE4895:
.LBE4891:
.LBE4890:
.LBE4889:
	.loc 2 485 0
	movq	-56(%rbp), %rax
	xorq	%fs:40, %rax
	je	.L356
	call	__stack_chk_fail@PLT
.LVL1058:
.L356:
	leaq	-40(%rbp), %rsp
	popq	%rbx
	popq	%r12
	popq	%r13
.LVL1059:
	popq	%r14
.LVL1060:
	popq	%r15
	popq	%rbp
	.cfi_def_cfa 7, 8
.LVL1061:
	ret
	.cfi_endproc
.LFE1168:
	.section	.gcc_except_table
.LLSDA1168:
	.byte	0xff
	.byte	0xff
	.byte	0x1
	.uleb128 .LLSDACSE1168-.LLSDACSB1168
.LLSDACSB1168:
	.uleb128 .LEHB66-.LFB1168
	.uleb128 .LEHE66-.LEHB66
	.uleb128 0
	.uleb128 0
	.uleb128 .LEHB67-.LFB1168
	.uleb128 .LEHE67-.LEHB67
	.uleb128 .L358-.LFB1168
	.uleb128 0
	.uleb128 .LEHB68-.LFB1168
	.uleb128 .LEHE68-.LEHB68
	.uleb128 .L360-.LFB1168
	.uleb128 0
	.uleb128 .LEHB69-.LFB1168
	.uleb128 .LEHE69-.LEHB69
	.uleb128 .L359-.LFB1168
	.uleb128 0
	.uleb128 .LEHB70-.LFB1168
	.uleb128 .LEHE70-.LEHB70
	.uleb128 0
	.uleb128 0
.LLSDACSE1168:
	.text
	.size	_ZN10UsbService21usb_get_kernel_driverEiRN5Proto6PacketE, .-_ZN10UsbService21usb_get_kernel_driverEiRN5Proto6PacketE
	.section	.rodata.str1.1
.LC12:
	.string	"fd %d, index %d = %d"
	.text
	.align 2
	.globl	_ZN10UsbService24usb_detach_kernel_driverEiRN5Proto6PacketE
	.type	_ZN10UsbService24usb_detach_kernel_driverEiRN5Proto6PacketE, @function
_ZN10UsbService24usb_detach_kernel_driverEiRN5Proto6PacketE:
.LFB1169:
	.loc 2 488 0
	.cfi_startproc
	.cfi_personality 0x9b,DW.ref.__gxx_personality_v0
	.cfi_lsda 0x1b,.LLSDA1169
.LVL1062:
	pushq	%r14
	.cfi_def_cfa_offset 16
	.cfi_offset 14, -16
	pushq	%r13
	.cfi_def_cfa_offset 24
	.cfi_offset 13, -24
	pushq	%r12
	.cfi_def_cfa_offset 32
	.cfi_offset 12, -32
	pushq	%rbp
	.cfi_def_cfa_offset 40
	.cfi_offset 6, -40
	pushq	%rbx
	.cfi_def_cfa_offset 48
	.cfi_offset 3, -48
	subq	$112, %rsp
	.cfi_def_cfa_offset 160
	movq	%rdi, %r13
	movl	%esi, %r12d
	.loc 2 488 0
	movq	%fs:40, %rax
	movq	%rax, 104(%rsp)
	xorl	%eax, %eax
.LVL1063:
.LBB5032:
.LBB5033:
	.loc 1 178 0
	movb	$0, (%rsp)
	movl	$0, 4(%rsp)
	movq	$0, 8(%rsp)
	movq	%rdx, 16(%rsp)
	movl	$0, 24(%rsp)
	.loc 1 180 0
	movq	%rsp, %rdi
.LVL1064:
.LEHB71:
	call	_ZN5Proto8Iterator5enterEv@PLT
.LVL1065:
.LBE5033:
.LBE5032:
.LBB5034:
.LBB5035:
	.loc 1 213 0
	movl	4(%rsp), %eax
	cmpl	$1, %eax
	je	.L369
	cmpl	$2, %eax
	je	.L370
	jmp	.L393
.L369:
.LVL1066:
.LBB5036:
.LBB5037:
.LBB5038:
.LBB5039:
	.loc 1 257 0
	movq	8(%rsp), %rbx
.LVL1067:
	.loc 1 258 0
	movq	%rsp, %rdi
	call	_ZN5Proto8Iterator4nextEv@PLT
.LVL1068:
.LBE5039:
.LBE5038:
.LBE5037:
.LBE5036:
	.loc 1 214 0
	movsbl	(%rbx), %ebx
	jmp	.L371
.L370:
.LVL1069:
.LBB5040:
.LBB5041:
.LBB5042:
.LBB5043:
.LBB5044:
	.loc 1 257 0
	movq	8(%rsp), %rbx
.LVL1070:
	.loc 1 258 0
	movq	%rsp, %rdi
	call	_ZN5Proto8Iterator4nextEv@PLT
.LVL1071:
.LBE5044:
.LBE5043:
	.loc 1 239 0
	movzwl	(%rbx), %ebx
.LVL1072:
#APP
# 239 "./src/proto/protocol.hpp" 1
	rorw $8, %bx
# 0 "" 2
.LVL1073:
#NO_APP
.LBE5042:
.LBE5041:
.LBE5040:
	.loc 1 215 0
	movswl	%bx, %ebx
	jmp	.L371
.L393:
.LVL1074:
.LBB5045:
.LBB5046:
.LBB5047:
.LBB5048:
	.loc 1 257 0
	movq	8(%rsp), %rbx
.LVL1075:
	.loc 1 258 0
	movq	%rsp, %rdi
	call	_ZN5Proto8Iterator4nextEv@PLT
.LVL1076:
.LBE5048:
.LBE5047:
.LBB5049:
.LBB5050:
	.loc 8 47 0
	movl	(%rbx), %ebx
.LVL1077:
	bswap	%ebx
.LVL1078:
.L371:
.LBE5050:
.LBE5049:
.LBE5046:
.LBE5045:
.LBE5035:
.LBE5034:
.LBB5051:
.LBB5052:
	.loc 1 213 0
	movl	4(%rsp), %eax
	cmpl	$1, %eax
	je	.L373
	cmpl	$2, %eax
	je	.L374
	jmp	.L394
.L373:
.LVL1079:
.LBB5053:
.LBB5054:
.LBB5055:
.LBB5056:
	.loc 1 257 0
	movq	8(%rsp), %rbp
.LVL1080:
	.loc 1 258 0
	movq	%rsp, %rdi
	call	_ZN5Proto8Iterator4nextEv@PLT
.LVL1081:
.LBE5056:
.LBE5055:
.LBE5054:
.LBE5053:
	.loc 1 214 0
	movsbl	0(%rbp), %ebp
	jmp	.L375
.L374:
.LVL1082:
.LBB5057:
.LBB5058:
.LBB5059:
.LBB5060:
.LBB5061:
	.loc 1 257 0
	movq	8(%rsp), %rbp
.LVL1083:
	.loc 1 258 0
	movq	%rsp, %rdi
	call	_ZN5Proto8Iterator4nextEv@PLT
.LVL1084:
.LBE5061:
.LBE5060:
	.loc 1 239 0
	movzwl	0(%rbp), %ebp
.LVL1085:
#APP
# 239 "./src/proto/protocol.hpp" 1
	rorw $8, %bp
# 0 "" 2
.LVL1086:
#NO_APP
.LBE5059:
.LBE5058:
.LBE5057:
	.loc 1 215 0
	movswl	%bp, %ebp
	jmp	.L375
.L394:
.LVL1087:
.LBB5062:
.LBB5063:
.LBB5064:
.LBB5065:
	.loc 1 257 0
	movq	8(%rsp), %rbp
.LVL1088:
	.loc 1 258 0
	movq	%rsp, %rdi
	call	_ZN5Proto8Iterator4nextEv@PLT
.LVL1089:
.LBE5065:
.LBE5064:
.LBB5066:
.LBB5067:
	.loc 8 47 0
	movl	0(%rbp), %ebp
.LVL1090:
	bswap	%ebp
.LVL1091:
.L375:
.LBE5067:
.LBE5066:
.LBE5063:
.LBE5062:
.LBE5052:
.LBE5051:
.LBB5068:
.LBB5069:
.LBB5070:
	.loc 9 832 0
	movq	80(%r13), %rax
.LVL1092:
.LBE5070:
.LBE5069:
.LBB5071:
.LBB5072:
	.loc 9 850 0
	leaq	80(%r13), %rdx
.LVL1093:
.LBE5072:
.LBE5071:
.LBE5068:
	.loc 2 494 0
	movl	$-1, %r13d
.LVL1094:
.LBB5076:
	.loc 2 496 0
	cmpq	%rdx, %rax
	je	.L376
.LBB5073:
	.loc 2 497 0
	movq	16(%rax), %rdi
.LVL1095:
	.loc 2 498 0
	cmpl	%ebx, (%rdi)
	jne	.L378
	jmp	.L377
.LVL1096:
.L379:
	.loc 2 497 0
	movq	16(%rax), %rdi
	.loc 2 498 0
	cmpl	%ebx, (%rdi)
	jne	.L378
.LVL1097:
.L377:
	.loc 2 500 0
	movl	%ebp, %esi
	call	usb_detach_kernel_driver_np@PLT
.LVL1098:
	movl	%eax, %r13d
	jmp	.L376
.LVL1099:
.L378:
.LBE5073:
.LBB5074:
.LBB5075:
	.loc 9 159 0
	movq	(%rax), %rax
.LVL1100:
.LBE5075:
.LBE5074:
	.loc 2 496 0
	cmpq	%rax, %rdx
	jne	.L379
.LBE5076:
	.loc 2 494 0
	movl	$-1, %r13d
.LVL1101:
.L376:
	.loc 2 508 0
	call	log_level@PLT
.LVL1102:
	testb	$4, %al
	je	.L380
.LVL1103:
	.loc 2 508 0 discriminator 2
	movq	stderr@GOTPCREL(%rip), %r14
.LVL1104:
.LBB5077:
.LBB5078:
	.loc 3 98 0 discriminator 2
	leaq	_ZZN10UsbService24usb_detach_kernel_driverEiRN5Proto6PacketEE8__func__(%rip), %rcx
	leaq	.LC0(%rip), %rdx
	movl	$1, %esi
	movq	(%r14), %rdi
	movl	$0, %eax
	call	__fprintf_chk@PLT
.LVL1105:
.LBE5078:
.LBE5077:
.LBB5079:
.LBB5080:
	movl	%r13d, %r9d
	movl	%ebp, %r8d
	movl	%ebx, %ecx
	leaq	.LC12(%rip), %rdx
	movl	$1, %esi
	movq	(%r14), %rdi
	movl	$0, %eax
	call	__fprintf_chk@PLT
.LVL1106:
.LBE5080:
.LBE5079:
.LBB5081:
.LBB5082:
	movq	(%r14), %rsi
	movl	$10, %edi
	call	fputc@PLT
.LVL1107:
.L380:
.LBE5082:
.LBE5081:
.LBB5083:
.LBB5084:
	.loc 1 279 0
	leaq	32(%rsp), %rbx
.LVL1108:
	leaq	64(%rsp), %rsi
	movl	$0, %edx
	movq	%rbx, %rdi
	call	_ZN5Proto6StructC2ERNSt7__cxx1112basic_stringIcSt11char_traitsIcESaIcEEEi@PLT
.LVL1109:
.LEHE71:
	movq	_ZTVN5Proto6PacketE@GOTPCREL(%rip), %rax
	leaq	16(%rax), %rax
	movq	%rax, 32(%rsp)
.LVL1110:
.LBB5085:
.LBB5086:
.LBB5087:
	.loc 4 109 0
	addq	$48, %rbx
.LVL1111:
	movq	%rbx, 64(%rsp)
.LVL1112:
.LBE5087:
.LBE5086:
.LBB5088:
.LBB5089:
.LBB5090:
	.loc 4 131 0
	movq	$0, 72(%rsp)
.LVL1113:
.LBE5090:
.LBE5089:
.LBB5091:
.LBB5092:
	.loc 5 243 0
	movb	$0, 80(%rsp)
.LVL1114:
.LBE5092:
.LBE5091:
.LBE5088:
.LBE5085:
.LBB5093:
.LBB5094:
	.loc 1 91 0
	movslq	52(%rsp), %rsi
	movq	40(%rsp), %rdi
.LVL1115:
.LBB5095:
.LBB5096:
.LBB5097:
.LBB5098:
.LBB5099:
.LBB5100:
	.loc 4 716 0
	movq	8(%rdi), %rcx
.LVL1116:
.LBE5100:
.LBE5099:
	.loc 4 260 0
	cmpq	%rcx, %rsi
	jbe	.L381
	.loc 4 261 0
	movq	%rsi, %rdx
	leaq	.LC3(%rip), %rsi
.LVL1117:
	leaq	.LC4(%rip), %rdi
.LVL1118:
	movl	$0, %eax
.LEHB72:
	call	_ZSt24__throw_out_of_range_fmtPKcz@PLT
.LVL1119:
.L381:
.LBE5098:
.LBE5097:
	.loc 4 1418 0
	movl	$59, %r8d
	movl	$1, %ecx
	movl	$0, %edx
	call	_ZNSt7__cxx1112basic_stringIcSt11char_traitsIcESaIcEE14_M_replace_auxEmmmc@PLT
.LVL1120:
.LEHE72:
.LBE5096:
.LBE5095:
	.loc 1 92 0
	addl	$1, 56(%rsp)
	addl	$1, 52(%rsp)
.LVL1121:
.LBE5094:
.LBE5093:
.LBE5084:
.LBE5083:
.LBB5112:
.LBB5113:
	.loc 1 156 0
	leaq	32(%rsp), %rdi
.LVL1122:
	movl	%r13d, %ecx
	movl	$4, %edx
	movl	$2, %esi
.LEHB73:
	call	_ZN5Proto6Struct10addNumericEhhj@PLT
.LVL1123:
.LEHE73:
	jmp	.L395
.LVL1124:
.L391:
	movq	%rax, %rbx
.LVL1125:
.LBE5113:
.LBE5112:
.LBB5114:
.LBB5111:
.LBB5101:
.LBB5102:
.LBB5103:
.LBB5104:
.LBB5105:
.LBB5106:
	.loc 4 135 0
	movq	64(%rsp), %rdi
.LVL1126:
.LBE5106:
.LBE5105:
.LBE5104:
	.loc 4 179 0
	leaq	80(%rsp), %rax
	cmpq	%rax, %rdi
	je	.L384
.LVL1127:
.LBB5107:
.LBB5108:
.LBB5109:
.LBB5110:
	.loc 6 110 0
	call	_ZdlPv@PLT
.LVL1128:
.L384:
	movq	%rbx, %rdi
.LEHB74:
	call	_Unwind_Resume@PLT
.LVL1129:
.LEHE74:
.L395:
.LBE5110:
.LBE5109:
.LBE5108:
.LBE5107:
.LBE5103:
.LBE5102:
.LBE5101:
.LBE5111:
.LBE5114:
	.loc 2 513 0
	leaq	32(%rsp), %rdi
.LVL1130:
	movl	%r12d, %esi
.LEHB75:
	call	_ZN5Proto6Packet4sendEi@PLT
.LVL1131:
.LEHE75:
.LBB5115:
.LBB5116:
	.loc 1 273 0
	movq	_ZTVN5Proto6PacketE@GOTPCREL(%rip), %rax
	leaq	16(%rax), %rax
	movq	%rax, 32(%rsp)
.LVL1132:
.LBB5117:
.LBB5118:
.LBB5119:
.LBB5120:
.LBB5121:
.LBB5122:
	.loc 4 135 0
	movq	64(%rsp), %rdi
.LVL1133:
.LBE5122:
.LBE5121:
.LBE5120:
	.loc 4 179 0
	leaq	80(%rsp), %rax
	cmpq	%rax, %rdi
	je	.L367
.LVL1134:
.LBB5123:
.LBB5124:
.LBB5125:
.LBB5126:
	.loc 6 110 0
	call	_ZdlPv@PLT
.LVL1135:
.LBE5126:
.LBE5125:
.LBE5124:
.LBE5123:
.LBE5119:
.LBE5118:
.LBE5117:
.LBE5116:
.LBE5115:
	.loc 2 514 0
	jmp	.L367
.LVL1136:
.L390:
	movq	%rax, %rbx
.LVL1137:
.LBB5127:
.LBB5128:
	.loc 1 273 0
	movq	_ZTVN5Proto6PacketE@GOTPCREL(%rip), %rax
	leaq	16(%rax), %rax
	movq	%rax, 32(%rsp)
.LVL1138:
.LBB5129:
.LBB5130:
.LBB5131:
.LBB5132:
.LBB5133:
.LBB5134:
	.loc 4 135 0
	movq	64(%rsp), %rdi
.LVL1139:
.LBE5134:
.LBE5133:
.LBE5132:
	.loc 4 179 0
	leaq	80(%rsp), %rax
	cmpq	%rax, %rdi
	je	.L387
.LVL1140:
.LBB5135:
.LBB5136:
.LBB5137:
.LBB5138:
	.loc 6 110 0
	call	_ZdlPv@PLT
.LVL1141:
.L387:
	movq	%rbx, %rdi
.LEHB76:
	call	_Unwind_Resume@PLT
.LVL1142:
.LEHE76:
.L367:
.LBE5138:
.LBE5137:
.LBE5136:
.LBE5135:
.LBE5131:
.LBE5130:
.LBE5129:
.LBE5128:
.LBE5127:
	.loc 2 514 0
	movq	104(%rsp), %rax
	xorq	%fs:40, %rax
	je	.L388
	call	__stack_chk_fail@PLT
.LVL1143:
.L388:
	addq	$112, %rsp
	.cfi_def_cfa_offset 48
	popq	%rbx
	.cfi_def_cfa_offset 40
	popq	%rbp
	.cfi_def_cfa_offset 32
	popq	%r12
	.cfi_def_cfa_offset 24
.LVL1144:
	popq	%r13
	.cfi_def_cfa_offset 16
.LVL1145:
	popq	%r14
	.cfi_def_cfa_offset 8
	ret
	.cfi_endproc
.LFE1169:
	.section	.gcc_except_table
.LLSDA1169:
	.byte	0xff
	.byte	0xff
	.byte	0x1
	.uleb128 .LLSDACSE1169-.LLSDACSB1169
.LLSDACSB1169:
	.uleb128 .LEHB71-.LFB1169
	.uleb128 .LEHE71-.LEHB71
	.uleb128 0
	.uleb128 0
	.uleb128 .LEHB72-.LFB1169
	.uleb128 .LEHE72-.LEHB72
	.uleb128 .L391-.LFB1169
	.uleb128 0
	.uleb128 .LEHB73-.LFB1169
	.uleb128 .LEHE73-.LEHB73
	.uleb128 .L390-.LFB1169
	.uleb128 0
	.uleb128 .LEHB74-.LFB1169
	.uleb128 .LEHE74-.LEHB74
	.uleb128 0
	.uleb128 0
	.uleb128 .LEHB75-.LFB1169
	.uleb128 .LEHE75-.LEHB75
	.uleb128 .L390-.LFB1169
	.uleb128 0
	.uleb128 .LEHB76-.LFB1169
	.uleb128 .LEHE76-.LEHB76
	.uleb128 0
	.uleb128 0
.LLSDACSE1169:
	.text
	.size	_ZN10UsbService24usb_detach_kernel_driverEiRN5Proto6PacketE, .-_ZN10UsbService24usb_detach_kernel_driverEiRN5Proto6PacketE
	.align 2
	.globl	_ZN10UsbService15usb_control_msgEiRN5Proto6PacketE
	.type	_ZN10UsbService15usb_control_msgEiRN5Proto6PacketE, @function
_ZN10UsbService15usb_control_msgEiRN5Proto6PacketE:
.LFB1170:
	.loc 2 517 0
	.cfi_startproc
	.cfi_personality 0x9b,DW.ref.__gxx_personality_v0
	.cfi_lsda 0x1b,.LLSDA1170
.LVL1146:
	pushq	%r15
	.cfi_def_cfa_offset 16
	.cfi_offset 15, -16
	pushq	%r14
	.cfi_def_cfa_offset 24
	.cfi_offset 14, -24
	pushq	%r13
	.cfi_def_cfa_offset 32
	.cfi_offset 13, -32
	pushq	%r12
	.cfi_def_cfa_offset 40
	.cfi_offset 12, -40
	pushq	%rbp
	.cfi_def_cfa_offset 48
	.cfi_offset 6, -48
	pushq	%rbx
	.cfi_def_cfa_offset 56
	.cfi_offset 3, -56
	subq	$136, %rsp
	.cfi_def_cfa_offset 192
	movq	%rdi, %rbx
	movl	%esi, (%rsp)
	.loc 2 517 0
	movq	%fs:40, %rax
	movq	%rax, 120(%rsp)
	xorl	%eax, %eax
.LVL1147:
.LBB5345:
.LBB5346:
	.loc 1 178 0
	movb	$0, 16(%rsp)
	movl	$0, 20(%rsp)
	movq	$0, 24(%rsp)
	movq	%rdx, 32(%rsp)
	movl	$0, 40(%rsp)
	.loc 1 180 0
	leaq	16(%rsp), %rdi
.LVL1148:
.LEHB77:
	call	_ZN5Proto8Iterator5enterEv@PLT
.LVL1149:
.LBE5346:
.LBE5345:
.LBB5347:
.LBB5348:
	.loc 1 213 0
	movl	20(%rsp), %eax
	cmpl	$1, %eax
	je	.L399
	cmpl	$2, %eax
	je	.L400
	jmp	.L438
.L399:
.LVL1150:
.LBB5349:
.LBB5350:
.LBB5351:
.LBB5352:
	.loc 1 257 0
	movq	24(%rsp), %rbp
.LVL1151:
	.loc 1 258 0
	leaq	16(%rsp), %rdi
.LVL1152:
	call	_ZN5Proto8Iterator4nextEv@PLT
.LVL1153:
.LBE5352:
.LBE5351:
.LBE5350:
.LBE5349:
	.loc 1 214 0
	movsbl	0(%rbp), %ebp
	jmp	.L401
.L400:
.LVL1154:
.LBB5353:
.LBB5354:
.LBB5355:
.LBB5356:
.LBB5357:
	.loc 1 257 0
	movq	24(%rsp), %rbp
.LVL1155:
	.loc 1 258 0
	leaq	16(%rsp), %rdi
.LVL1156:
	call	_ZN5Proto8Iterator4nextEv@PLT
.LVL1157:
.LBE5357:
.LBE5356:
	.loc 1 239 0
	movzwl	0(%rbp), %ebp
.LVL1158:
#APP
# 239 "./src/proto/protocol.hpp" 1
	rorw $8, %bp
# 0 "" 2
.LVL1159:
#NO_APP
.LBE5355:
.LBE5354:
.LBE5353:
	.loc 1 215 0
	movswl	%bp, %ebp
	jmp	.L401
.L438:
.LVL1160:
.LBB5358:
.LBB5359:
.LBB5360:
.LBB5361:
	.loc 1 257 0
	movq	24(%rsp), %rbp
.LVL1161:
	.loc 1 258 0
	leaq	16(%rsp), %rdi
.LVL1162:
	call	_ZN5Proto8Iterator4nextEv@PLT
.LVL1163:
.LBE5361:
.LBE5360:
.LBB5362:
.LBB5363:
	.loc 8 47 0
	movl	0(%rbp), %ebp
.LVL1164:
	bswap	%ebp
.LVL1165:
.L401:
.LBE5363:
.LBE5362:
.LBE5359:
.LBE5358:
.LBE5348:
.LBE5347:
.LBB5364:
.LBB5365:
	.loc 9 832 0
	movq	80(%rbx), %rax
.LVL1166:
.LBE5365:
.LBE5364:
.LBB5366:
.LBB5367:
	.loc 9 850 0
	leaq	80(%rbx), %rdi
.LVL1167:
.LBE5367:
.LBE5366:
	.loc 2 524 0
	cmpq	%rdi, %rax
	je	.L434
	.loc 2 525 0
	movq	16(%rax), %rbx
.LVL1168:
	cmpl	%ebp, (%rbx)
	jne	.L404
	jmp	.L403
.LVL1169:
.L405:
	movq	16(%rax), %rbx
	cmpl	%ebp, (%rbx)
	je	.L403
.LVL1170:
.L404:
.LBB5368:
.LBB5369:
	.loc 9 159 0
	movq	(%rax), %rax
.LVL1171:
.LBE5369:
.LBE5368:
	.loc 2 524 0
	cmpq	%rax, %rdi
	jne	.L405
	.loc 2 533 0
	movl	$0, %r13d
	.loc 2 532 0
	movl	$-1, %ebx
	jmp	.L402
.LVL1172:
.L403:
.LBB5370:
	.loc 2 534 0
	testq	%rbx, %rbx
	je	.L435
.LVL1173:
.LBB5371:
.LBB5372:
.LBB5373:
	.loc 1 213 0
	movl	20(%rsp), %eax
.LVL1174:
	cmpl	$1, %eax
	je	.L407
	cmpl	$2, %eax
	je	.L408
	jmp	.L439
.L407:
.LVL1175:
.LBB5374:
.LBB5375:
.LBB5376:
.LBB5377:
	.loc 1 257 0
	movq	24(%rsp), %r12
.LVL1176:
	.loc 1 258 0
	leaq	16(%rsp), %rdi
.LVL1177:
	call	_ZN5Proto8Iterator4nextEv@PLT
.LVL1178:
.LBE5377:
.LBE5376:
.LBE5375:
.LBE5374:
	.loc 1 214 0
	movsbl	(%r12), %eax
	movl	%eax, 12(%rsp)
	jmp	.L409
.L408:
.LVL1179:
.LBB5378:
.LBB5379:
.LBB5380:
.LBB5381:
.LBB5382:
	.loc 1 257 0
	movq	24(%rsp), %r12
.LVL1180:
	.loc 1 258 0
	leaq	16(%rsp), %rdi
.LVL1181:
	call	_ZN5Proto8Iterator4nextEv@PLT
.LVL1182:
.LBE5382:
.LBE5381:
	.loc 1 239 0
	movzwl	(%r12), %eax
#APP
# 239 "./src/proto/protocol.hpp" 1
	rorw $8, %ax
# 0 "" 2
.LVL1183:
#NO_APP
.LBE5380:
.LBE5379:
.LBE5378:
	.loc 1 215 0
	cwtl
	movl	%eax, 12(%rsp)
	jmp	.L409
.L439:
.LVL1184:
.LBB5383:
.LBB5384:
.LBB5385:
.LBB5386:
	.loc 1 257 0
	movq	24(%rsp), %r12
.LVL1185:
	.loc 1 258 0
	leaq	16(%rsp), %rdi
.LVL1186:
	call	_ZN5Proto8Iterator4nextEv@PLT
.LVL1187:
.LBE5386:
.LBE5385:
.LBB5387:
.LBB5388:
	.loc 8 47 0
	movl	(%r12), %eax
	bswap	%eax
	movl	%eax, 12(%rsp)
.LVL1188:
.L409:
.LBE5388:
.LBE5387:
.LBE5384:
.LBE5383:
.LBE5373:
.LBE5372:
.LBB5389:
.LBB5390:
	.loc 1 213 0
	movl	20(%rsp), %eax
	cmpl	$1, %eax
	je	.L411
	cmpl	$2, %eax
	je	.L412
	jmp	.L440
.L411:
.LVL1189:
.LBB5391:
.LBB5392:
.LBB5393:
.LBB5394:
	.loc 1 257 0
	movq	24(%rsp), %r12
.LVL1190:
	.loc 1 258 0
	leaq	16(%rsp), %rdi
.LVL1191:
	call	_ZN5Proto8Iterator4nextEv@PLT
.LVL1192:
.LBE5394:
.LBE5393:
.LBE5392:
.LBE5391:
	.loc 1 214 0
	movsbl	(%r12), %eax
	movl	%eax, 8(%rsp)
	jmp	.L413
.L412:
.LVL1193:
.LBB5395:
.LBB5396:
.LBB5397:
.LBB5398:
.LBB5399:
	.loc 1 257 0
	movq	24(%rsp), %r12
.LVL1194:
	.loc 1 258 0
	leaq	16(%rsp), %rdi
.LVL1195:
	call	_ZN5Proto8Iterator4nextEv@PLT
.LVL1196:
.LBE5399:
.LBE5398:
	.loc 1 239 0
	movzwl	(%r12), %eax
#APP
# 239 "./src/proto/protocol.hpp" 1
	rorw $8, %ax
# 0 "" 2
.LVL1197:
#NO_APP
.LBE5397:
.LBE5396:
.LBE5395:
	.loc 1 215 0
	cwtl
	movl	%eax, 8(%rsp)
	jmp	.L413
.L440:
.LVL1198:
.LBB5400:
.LBB5401:
.LBB5402:
.LBB5403:
	.loc 1 257 0
	movq	24(%rsp), %r12
.LVL1199:
	.loc 1 258 0
	leaq	16(%rsp), %rdi
.LVL1200:
	call	_ZN5Proto8Iterator4nextEv@PLT
.LVL1201:
.LBE5403:
.LBE5402:
.LBB5404:
.LBB5405:
	.loc 8 47 0
	movl	(%r12), %eax
	bswap	%eax
	movl	%eax, 8(%rsp)
.LVL1202:
.L413:
.LBE5405:
.LBE5404:
.LBE5401:
.LBE5400:
.LBE5390:
.LBE5389:
.LBB5406:
.LBB5407:
	.loc 1 213 0
	movl	20(%rsp), %eax
	cmpl	$1, %eax
	je	.L415
	cmpl	$2, %eax
	je	.L416
	jmp	.L441
.L415:
.LVL1203:
.LBB5408:
.LBB5409:
.LBB5410:
.LBB5411:
	.loc 1 257 0
	movq	24(%rsp), %r12
.LVL1204:
	.loc 1 258 0
	leaq	16(%rsp), %rdi
.LVL1205:
	call	_ZN5Proto8Iterator4nextEv@PLT
.LVL1206:
.LBE5411:
.LBE5410:
.LBE5409:
.LBE5408:
	.loc 1 214 0
	movsbl	(%r12), %eax
	movl	%eax, 4(%rsp)
	jmp	.L417
.L416:
.LVL1207:
.LBB5412:
.LBB5413:
.LBB5414:
.LBB5415:
.LBB5416:
	.loc 1 257 0
	movq	24(%rsp), %r12
.LVL1208:
	.loc 1 258 0
	leaq	16(%rsp), %rdi
.LVL1209:
	call	_ZN5Proto8Iterator4nextEv@PLT
.LVL1210:
.LBE5416:
.LBE5415:
	.loc 1 239 0
	movzwl	(%r12), %eax
#APP
# 239 "./src/proto/protocol.hpp" 1
	rorw $8, %ax
# 0 "" 2
.LVL1211:
#NO_APP
.LBE5414:
.LBE5413:
.LBE5412:
	.loc 1 215 0
	cwtl
	movl	%eax, 4(%rsp)
	jmp	.L417
.L441:
.LVL1212:
.LBB5417:
.LBB5418:
.LBB5419:
.LBB5420:
	.loc 1 257 0
	movq	24(%rsp), %r12
.LVL1213:
	.loc 1 258 0
	leaq	16(%rsp), %rdi
.LVL1214:
	call	_ZN5Proto8Iterator4nextEv@PLT
.LVL1215:
.LBE5420:
.LBE5419:
.LBB5421:
.LBB5422:
	.loc 8 47 0
	movl	(%r12), %eax
	bswap	%eax
	movl	%eax, 4(%rsp)
.LVL1216:
.L417:
.LBE5422:
.LBE5421:
.LBE5418:
.LBE5417:
.LBE5407:
.LBE5406:
.LBB5423:
.LBB5424:
	.loc 1 213 0
	movl	20(%rsp), %eax
	cmpl	$1, %eax
	je	.L419
	cmpl	$2, %eax
	je	.L420
	jmp	.L442
.L419:
.LVL1217:
.LBB5425:
.LBB5426:
.LBB5427:
.LBB5428:
	.loc 1 257 0
	movq	24(%rsp), %r12
.LVL1218:
	.loc 1 258 0
	leaq	16(%rsp), %rdi
.LVL1219:
	call	_ZN5Proto8Iterator4nextEv@PLT
.LVL1220:
.LBE5428:
.LBE5427:
.LBE5426:
.LBE5425:
	.loc 1 214 0
	movsbl	(%r12), %r12d
	jmp	.L421
.L420:
.LVL1221:
.LBB5429:
.LBB5430:
.LBB5431:
.LBB5432:
.LBB5433:
	.loc 1 257 0
	movq	24(%rsp), %r12
.LVL1222:
	.loc 1 258 0
	leaq	16(%rsp), %rdi
.LVL1223:
	call	_ZN5Proto8Iterator4nextEv@PLT
.LVL1224:
.LBE5433:
.LBE5432:
	.loc 1 239 0
	movzwl	(%r12), %r12d
.LVL1225:
#APP
# 239 "./src/proto/protocol.hpp" 1
	rorw $8, %r12w
# 0 "" 2
.LVL1226:
#NO_APP
.LBE5431:
.LBE5430:
.LBE5429:
	.loc 1 215 0
	movswl	%r12w, %r12d
	jmp	.L421
.L442:
.LVL1227:
.LBB5434:
.LBB5435:
.LBB5436:
.LBB5437:
	.loc 1 257 0
	movq	24(%rsp), %r12
.LVL1228:
	.loc 1 258 0
	leaq	16(%rsp), %rdi
.LVL1229:
	call	_ZN5Proto8Iterator4nextEv@PLT
.LVL1230:
.LBE5437:
.LBE5436:
.LBB5438:
.LBB5439:
	.loc 8 47 0
	movl	(%r12), %r12d
.LVL1231:
	bswap	%r12d
.LVL1232:
.L421:
.LBE5439:
.LBE5438:
.LBE5435:
.LBE5434:
.LBE5424:
.LBE5423:
	.loc 2 541 0
	movl	20(%rsp), %r14d
.LVL1233:
.LBB5440:
.LBB5441:
.LBB5442:
	.loc 1 257 0
	movq	24(%rsp), %r13
.LVL1234:
	.loc 1 258 0
	leaq	16(%rsp), %rdi
.LVL1235:
	call	_ZN5Proto8Iterator4nextEv@PLT
.LVL1236:
.LBE5442:
.LBE5441:
.LBE5440:
.LBB5443:
.LBB5444:
	.loc 1 213 0
	movl	20(%rsp), %eax
	cmpl	$1, %eax
	je	.L423
	cmpl	$2, %eax
	je	.L424
	jmp	.L443
.L423:
.LVL1237:
.LBB5445:
.LBB5446:
.LBB5447:
.LBB5448:
	.loc 1 257 0
	movq	24(%rsp), %r15
.LVL1238:
	.loc 1 258 0
	leaq	16(%rsp), %rdi
.LVL1239:
	call	_ZN5Proto8Iterator4nextEv@PLT
.LVL1240:
.LBE5448:
.LBE5447:
.LBE5446:
.LBE5445:
	.loc 1 214 0
	movsbl	(%r15), %eax
	jmp	.L425
.L424:
.LVL1241:
.LBB5449:
.LBB5450:
.LBB5451:
.LBB5452:
.LBB5453:
	.loc 1 257 0
	movq	24(%rsp), %r15
.LVL1242:
	.loc 1 258 0
	leaq	16(%rsp), %rdi
.LVL1243:
	call	_ZN5Proto8Iterator4nextEv@PLT
.LVL1244:
.LBE5453:
.LBE5452:
	.loc 1 239 0
	movzwl	(%r15), %eax
#APP
# 239 "./src/proto/protocol.hpp" 1
	rorw $8, %ax
# 0 "" 2
.LVL1245:
#NO_APP
.LBE5451:
.LBE5450:
.LBE5449:
	.loc 1 215 0
	cwtl
	jmp	.L425
.L443:
.LVL1246:
.LBB5454:
.LBB5455:
.LBB5456:
.LBB5457:
	.loc 1 257 0
	movq	24(%rsp), %r15
.LVL1247:
	.loc 1 258 0
	leaq	16(%rsp), %rdi
.LVL1248:
	call	_ZN5Proto8Iterator4nextEv@PLT
.LVL1249:
.LBE5457:
.LBE5456:
.LBB5458:
.LBB5459:
	.loc 8 47 0
	movl	(%r15), %eax
	bswap	%eax
.LVL1250:
.L425:
.LBE5459:
.LBE5458:
.LBE5455:
.LBE5454:
.LBE5444:
.LBE5443:
	.loc 2 545 0
	pushq	%rax
	.cfi_def_cfa_offset 200
.LVL1251:
	pushq	%r14
	.cfi_def_cfa_offset 208
	movq	%r13, %r9
	movl	%r12d, %r8d
	movl	20(%rsp), %ecx
	movl	24(%rsp), %edx
	movl	28(%rsp), %esi
	movq	%rbx, %rdi
	call	usb_control_msg@PLT
.LVL1252:
	movl	%eax, %ebx
.LVL1253:
	.loc 2 546 0
	addq	$16, %rsp
	.cfi_def_cfa_offset 192
.LVL1254:
	call	log_level@PLT
.LVL1255:
	testb	$4, %al
	je	.L402
.LVL1256:
	.loc 2 546 0 discriminator 2
	movq	stderr@GOTPCREL(%rip), %r12
.LVL1257:
.LBB5460:
.LBB5461:
	.loc 3 98 0 discriminator 2
	leaq	_ZZN10UsbService15usb_control_msgEiRN5Proto6PacketEE8__func__(%rip), %rcx
	leaq	.LC0(%rip), %rdx
	movl	$1, %esi
	movq	(%r12), %rdi
	movl	$0, %eax
	call	__fprintf_chk@PLT
.LVL1258:
.LBE5461:
.LBE5460:
.LBB5462:
.LBB5463:
	movl	%ebx, %r8d
	movl	%ebp, %ecx
	leaq	.LC6(%rip), %rdx
	movl	$1, %esi
	movq	(%r12), %rdi
	movl	$0, %eax
	call	__fprintf_chk@PLT
.LVL1259:
.LBE5463:
.LBE5462:
.LBB5464:
.LBB5465:
	movq	(%r12), %rsi
	movl	$10, %edi
	call	fputc@PLT
.LVL1260:
	jmp	.L402
.LVL1261:
.L434:
.LBE5465:
.LBE5464:
.LBE5371:
.LBE5370:
	.loc 2 533 0
	movl	$0, %r13d
	.loc 2 532 0
	movl	$-1, %ebx
.LVL1262:
	jmp	.L402
.LVL1263:
.L435:
	.loc 2 533 0
	movl	$0, %r13d
	.loc 2 532 0
	movl	$-1, %ebx
.LVL1264:
.L402:
.LBB5466:
.LBB5467:
	.loc 1 279 0
	leaq	48(%rsp), %rbp
.LVL1265:
	leaq	80(%rsp), %rsi
	movl	$0, %edx
	movq	%rbp, %rdi
	call	_ZN5Proto6StructC2ERNSt7__cxx1112basic_stringIcSt11char_traitsIcESaIcEEEi@PLT
.LVL1266:
.LEHE77:
	movq	_ZTVN5Proto6PacketE@GOTPCREL(%rip), %rax
	leaq	16(%rax), %rax
	movq	%rax, 48(%rsp)
.LVL1267:
.LBB5468:
.LBB5469:
.LBB5470:
	.loc 4 109 0
	addq	$48, %rbp
.LVL1268:
	movq	%rbp, 80(%rsp)
.LVL1269:
.LBE5470:
.LBE5469:
.LBB5471:
.LBB5472:
.LBB5473:
	.loc 4 131 0
	movq	$0, 88(%rsp)
.LVL1270:
.LBE5473:
.LBE5472:
.LBB5474:
.LBB5475:
	.loc 5 243 0
	movb	$0, 96(%rsp)
.LVL1271:
.LBE5475:
.LBE5474:
.LBE5471:
.LBE5468:
.LBB5476:
.LBB5477:
	.loc 1 91 0
	movslq	68(%rsp), %rsi
	movq	56(%rsp), %rdi
.LVL1272:
.LBB5478:
.LBB5479:
.LBB5480:
.LBB5481:
.LBB5482:
.LBB5483:
	.loc 4 716 0
	movq	8(%rdi), %rcx
.LVL1273:
.LBE5483:
.LBE5482:
	.loc 4 260 0
	cmpq	%rcx, %rsi
	jbe	.L426
	.loc 4 261 0
	movq	%rsi, %rdx
	leaq	.LC3(%rip), %rsi
.LVL1274:
	leaq	.LC4(%rip), %rdi
.LVL1275:
	movl	$0, %eax
.LEHB78:
	call	_ZSt24__throw_out_of_range_fmtPKcz@PLT
.LVL1276:
.L426:
.LBE5481:
.LBE5480:
	.loc 4 1418 0
	movl	$55, %r8d
	movl	$1, %ecx
	movl	$0, %edx
	call	_ZNSt7__cxx1112basic_stringIcSt11char_traitsIcESaIcEE14_M_replace_auxEmmmc@PLT
.LVL1277:
.LEHE78:
.LBE5479:
.LBE5478:
	.loc 1 92 0
	addl	$1, 72(%rsp)
	addl	$1, 68(%rsp)
.LVL1278:
.LBE5477:
.LBE5476:
.LBE5467:
.LBE5466:
.LBB5495:
.LBB5496:
	.loc 1 156 0
	leaq	48(%rsp), %rdi
.LVL1279:
	movl	%ebx, %ecx
	movl	$4, %edx
	movl	$2, %esi
.LEHB79:
	call	_ZN5Proto6Struct10addNumericEhhj@PLT
.LVL1280:
.LEHE79:
	jmp	.L444
.LVL1281:
.L437:
	movq	%rax, %rbx
.LVL1282:
.LBE5496:
.LBE5495:
.LBB5497:
.LBB5494:
.LBB5484:
.LBB5485:
.LBB5486:
.LBB5487:
.LBB5488:
.LBB5489:
	.loc 4 135 0
	movq	80(%rsp), %rdi
.LVL1283:
.LBE5489:
.LBE5488:
.LBE5487:
	.loc 4 179 0
	leaq	96(%rsp), %rax
	cmpq	%rax, %rdi
	je	.L429
.LVL1284:
.LBB5490:
.LBB5491:
.LBB5492:
.LBB5493:
	.loc 6 110 0
	call	_ZdlPv@PLT
.LVL1285:
.L429:
	movq	%rbx, %rdi
.LEHB80:
	call	_Unwind_Resume@PLT
.LVL1286:
.LEHE80:
.L444:
.LBE5493:
.LBE5492:
.LBE5491:
.LBE5490:
.LBE5486:
.LBE5485:
.LBE5484:
.LBE5494:
.LBE5497:
	.loc 2 552 0
	testl	%ebx, %ebx
	movl	$0, %edx
	cmovns	%ebx, %edx
	movslq	%edx, %rdx
	leaq	48(%rsp), %rdi
.LVL1287:
	movl	$4, %ecx
	movq	%r13, %rsi
.LEHB81:
	call	_ZN5Proto6Struct7addDataEPKcmh@PLT
.LVL1288:
	.loc 2 553 0
	leaq	48(%rsp), %rdi
.LVL1289:
	movl	(%rsp), %esi
	call	_ZN5Proto6Packet4sendEi@PLT
.LVL1290:
.LEHE81:
.LBB5498:
.LBB5499:
	.loc 1 273 0
	movq	_ZTVN5Proto6PacketE@GOTPCREL(%rip), %rax
	leaq	16(%rax), %rax
	movq	%rax, 48(%rsp)
.LVL1291:
.LBB5500:
.LBB5501:
.LBB5502:
.LBB5503:
.LBB5504:
.LBB5505:
	.loc 4 135 0
	movq	80(%rsp), %rdi
.LVL1292:
.LBE5505:
.LBE5504:
.LBE5503:
	.loc 4 179 0
	leaq	96(%rsp), %rax
	cmpq	%rax, %rdi
	je	.L397
.LVL1293:
.LBB5506:
.LBB5507:
.LBB5508:
.LBB5509:
	.loc 6 110 0
	call	_ZdlPv@PLT
.LVL1294:
.LBE5509:
.LBE5508:
.LBE5507:
.LBE5506:
.LBE5502:
.LBE5501:
.LBE5500:
.LBE5499:
.LBE5498:
	.loc 2 554 0
	jmp	.L397
.LVL1295:
.L436:
	movq	%rax, %rbx
.LVL1296:
.LBB5510:
.LBB5511:
	.loc 1 273 0
	movq	_ZTVN5Proto6PacketE@GOTPCREL(%rip), %rax
	leaq	16(%rax), %rax
	movq	%rax, 48(%rsp)
.LVL1297:
.LBB5512:
.LBB5513:
.LBB5514:
.LBB5515:
.LBB5516:
.LBB5517:
	.loc 4 135 0
	movq	80(%rsp), %rdi
.LVL1298:
.LBE5517:
.LBE5516:
.LBE5515:
	.loc 4 179 0
	leaq	96(%rsp), %rax
	cmpq	%rax, %rdi
	je	.L432
.LVL1299:
.LBB5518:
.LBB5519:
.LBB5520:
.LBB5521:
	.loc 6 110 0
	call	_ZdlPv@PLT
.LVL1300:
.L432:
	movq	%rbx, %rdi
.LEHB82:
	call	_Unwind_Resume@PLT
.LVL1301:
.LEHE82:
.L397:
.LBE5521:
.LBE5520:
.LBE5519:
.LBE5518:
.LBE5514:
.LBE5513:
.LBE5512:
.LBE5511:
.LBE5510:
	.loc 2 554 0
	movq	120(%rsp), %rax
	xorq	%fs:40, %rax
	je	.L433
	call	__stack_chk_fail@PLT
.LVL1302:
.L433:
	addq	$136, %rsp
	.cfi_def_cfa_offset 56
.LVL1303:
	popq	%rbx
	.cfi_def_cfa_offset 48
.LVL1304:
	popq	%rbp
	.cfi_def_cfa_offset 40
.LVL1305:
	popq	%r12
	.cfi_def_cfa_offset 32
	popq	%r13
	.cfi_def_cfa_offset 24
.LVL1306:
	popq	%r14
	.cfi_def_cfa_offset 16
	popq	%r15
	.cfi_def_cfa_offset 8
	ret
	.cfi_endproc
.LFE1170:
	.section	.gcc_except_table
.LLSDA1170:
	.byte	0xff
	.byte	0xff
	.byte	0x1
	.uleb128 .LLSDACSE1170-.LLSDACSB1170
.LLSDACSB1170:
	.uleb128 .LEHB77-.LFB1170
	.uleb128 .LEHE77-.LEHB77
	.uleb128 0
	.uleb128 0
	.uleb128 .LEHB78-.LFB1170
	.uleb128 .LEHE78-.LEHB78
	.uleb128 .L437-.LFB1170
	.uleb128 0
	.uleb128 .LEHB79-.LFB1170
	.uleb128 .LEHE79-.LEHB79
	.uleb128 .L436-.LFB1170
	.uleb128 0
	.uleb128 .LEHB80-.LFB1170
	.uleb128 .LEHE80-.LEHB80
	.uleb128 0
	.uleb128 0
	.uleb128 .LEHB81-.LFB1170
	.uleb128 .LEHE81-.LEHB81
	.uleb128 .L436-.LFB1170
	.uleb128 0
	.uleb128 .LEHB82-.LFB1170
	.uleb128 .LEHE82-.LEHB82
	.uleb128 0
	.uleb128 0
.LLSDACSE1170:
	.text
	.size	_ZN10UsbService15usb_control_msgEiRN5Proto6PacketE, .-_ZN10UsbService15usb_control_msgEiRN5Proto6PacketE
	.align 2
	.globl	_ZN10UsbService13usb_bulk_readEiRN5Proto6PacketE
	.type	_ZN10UsbService13usb_bulk_readEiRN5Proto6PacketE, @function
_ZN10UsbService13usb_bulk_readEiRN5Proto6PacketE:
.LFB1171:
	.loc 2 557 0
	.cfi_startproc
	.cfi_personality 0x9b,DW.ref.__gxx_personality_v0
	.cfi_lsda 0x1b,.LLSDA1171
.LVL1307:
	pushq	%r15
	.cfi_def_cfa_offset 16
	.cfi_offset 15, -16
	pushq	%r14
	.cfi_def_cfa_offset 24
	.cfi_offset 14, -24
	pushq	%r13
	.cfi_def_cfa_offset 32
	.cfi_offset 13, -32
	pushq	%r12
	.cfi_def_cfa_offset 40
	.cfi_offset 12, -40
	pushq	%rbp
	.cfi_def_cfa_offset 48
	.cfi_offset 6, -48
	pushq	%rbx
	.cfi_def_cfa_offset 56
	.cfi_offset 3, -56
	subq	$136, %rsp
	.cfi_def_cfa_offset 192
	movq	%rdi, %rbx
	movl	%esi, 12(%rsp)
	.loc 2 557 0
	movq	%fs:40, %rax
	movq	%rax, 120(%rsp)
	xorl	%eax, %eax
.LVL1308:
.LBB5687:
.LBB5688:
	.loc 1 178 0
	movb	$0, 16(%rsp)
	movl	$0, 20(%rsp)
	movq	$0, 24(%rsp)
	movq	%rdx, 32(%rsp)
	movl	$0, 40(%rsp)
	.loc 1 180 0
	leaq	16(%rsp), %rdi
.LVL1309:
.LEHB83:
	call	_ZN5Proto8Iterator5enterEv@PLT
.LVL1310:
.LBE5688:
.LBE5687:
.LBB5689:
.LBB5690:
	.loc 1 213 0
	movl	20(%rsp), %eax
	cmpl	$1, %eax
	je	.L448
	cmpl	$2, %eax
	je	.L449
	jmp	.L480
.L448:
.LVL1311:
.LBB5691:
.LBB5692:
.LBB5693:
.LBB5694:
	.loc 1 257 0
	movq	24(%rsp), %rbp
.LVL1312:
	.loc 1 258 0
	leaq	16(%rsp), %rdi
.LVL1313:
	call	_ZN5Proto8Iterator4nextEv@PLT
.LVL1314:
.LBE5694:
.LBE5693:
.LBE5692:
.LBE5691:
	.loc 1 214 0
	movsbl	0(%rbp), %ebp
	jmp	.L450
.L449:
.LVL1315:
.LBB5695:
.LBB5696:
.LBB5697:
.LBB5698:
.LBB5699:
	.loc 1 257 0
	movq	24(%rsp), %rbp
.LVL1316:
	.loc 1 258 0
	leaq	16(%rsp), %rdi
.LVL1317:
	call	_ZN5Proto8Iterator4nextEv@PLT
.LVL1318:
.LBE5699:
.LBE5698:
	.loc 1 239 0
	movzwl	0(%rbp), %ebp
.LVL1319:
#APP
# 239 "./src/proto/protocol.hpp" 1
	rorw $8, %bp
# 0 "" 2
.LVL1320:
#NO_APP
.LBE5697:
.LBE5696:
.LBE5695:
	.loc 1 215 0
	movswl	%bp, %ebp
	jmp	.L450
.L480:
.LVL1321:
.LBB5700:
.LBB5701:
.LBB5702:
.LBB5703:
	.loc 1 257 0
	movq	24(%rsp), %rbp
.LVL1322:
	.loc 1 258 0
	leaq	16(%rsp), %rdi
.LVL1323:
	call	_ZN5Proto8Iterator4nextEv@PLT
.LVL1324:
.LBE5703:
.LBE5702:
.LBB5704:
.LBB5705:
	.loc 8 47 0
	movl	0(%rbp), %ebp
.LVL1325:
	bswap	%ebp
.LVL1326:
.L450:
.LBE5705:
.LBE5704:
.LBE5701:
.LBE5700:
.LBE5690:
.LBE5689:
.LBB5706:
.LBB5707:
	.loc 9 832 0
	movq	80(%rbx), %rax
.LVL1327:
.LBE5707:
.LBE5706:
.LBB5708:
.LBB5709:
	.loc 9 850 0
	leaq	80(%rbx), %rdi
.LVL1328:
.LBE5709:
.LBE5708:
	.loc 2 564 0
	cmpq	%rdi, %rax
	je	.L476
	.loc 2 565 0
	movq	16(%rax), %rbx
.LVL1329:
	cmpl	%ebp, (%rbx)
	jne	.L452
	jmp	.L451
.LVL1330:
.L453:
	movq	16(%rax), %rbx
	cmpl	%ebp, (%rbx)
	je	.L451
.LVL1331:
.L452:
.LBB5710:
.LBB5711:
	.loc 9 159 0
	movq	(%rax), %rax
.LVL1332:
.LBE5711:
.LBE5710:
	.loc 2 564 0
	cmpq	%rax, %rdi
	jne	.L453
	.loc 2 562 0
	movl	$0, %ebx
	jmp	.L451
.LVL1333:
.L476:
	movl	$0, %ebx
.LVL1334:
.L451:
.LBB5712:
.LBB5713:
	.loc 1 213 0
	movl	20(%rsp), %eax
.LVL1335:
	cmpl	$1, %eax
	je	.L455
	cmpl	$2, %eax
	je	.L456
	jmp	.L481
.L455:
.LVL1336:
.LBB5714:
.LBB5715:
.LBB5716:
.LBB5717:
	.loc 1 257 0
	movq	24(%rsp), %r12
.LVL1337:
	.loc 1 258 0
	leaq	16(%rsp), %rdi
.LVL1338:
	call	_ZN5Proto8Iterator4nextEv@PLT
.LVL1339:
.LBE5717:
.LBE5716:
.LBE5715:
.LBE5714:
	.loc 1 214 0
	movsbl	(%r12), %r14d
	jmp	.L457
.L456:
.LVL1340:
.LBB5718:
.LBB5719:
.LBB5720:
.LBB5721:
.LBB5722:
	.loc 1 257 0
	movq	24(%rsp), %r12
.LVL1341:
	.loc 1 258 0
	leaq	16(%rsp), %rdi
.LVL1342:
	call	_ZN5Proto8Iterator4nextEv@PLT
.LVL1343:
.LBE5722:
.LBE5721:
	.loc 1 239 0
	movzwl	(%r12), %r14d
#APP
# 239 "./src/proto/protocol.hpp" 1
	rorw $8, %r14w
# 0 "" 2
.LVL1344:
#NO_APP
.LBE5720:
.LBE5719:
.LBE5718:
	.loc 1 215 0
	movswl	%r14w, %r14d
	jmp	.L457
.L481:
.LVL1345:
.LBB5723:
.LBB5724:
.LBB5725:
.LBB5726:
	.loc 1 257 0
	movq	24(%rsp), %r12
.LVL1346:
	.loc 1 258 0
	leaq	16(%rsp), %rdi
.LVL1347:
	call	_ZN5Proto8Iterator4nextEv@PLT
.LVL1348:
.LBE5726:
.LBE5725:
.LBB5727:
.LBB5728:
	.loc 8 47 0
	movl	(%r12), %r14d
	bswap	%r14d
.LVL1349:
.L457:
.LBE5728:
.LBE5727:
.LBE5724:
.LBE5723:
.LBE5713:
.LBE5712:
.LBB5729:
.LBB5730:
	.loc 1 213 0
	movl	20(%rsp), %eax
	cmpl	$1, %eax
	je	.L459
	cmpl	$2, %eax
	je	.L460
	jmp	.L482
.L459:
.LVL1350:
.LBB5731:
.LBB5732:
.LBB5733:
.LBB5734:
	.loc 1 257 0
	movq	24(%rsp), %r12
.LVL1351:
	.loc 1 258 0
	leaq	16(%rsp), %rdi
.LVL1352:
	call	_ZN5Proto8Iterator4nextEv@PLT
.LVL1353:
.LBE5734:
.LBE5733:
.LBE5732:
.LBE5731:
	.loc 1 214 0
	movsbl	(%r12), %r12d
	jmp	.L461
.L460:
.LVL1354:
.LBB5735:
.LBB5736:
.LBB5737:
.LBB5738:
.LBB5739:
	.loc 1 257 0
	movq	24(%rsp), %r12
.LVL1355:
	.loc 1 258 0
	leaq	16(%rsp), %rdi
.LVL1356:
	call	_ZN5Proto8Iterator4nextEv@PLT
.LVL1357:
.LBE5739:
.LBE5738:
	.loc 1 239 0
	movzwl	(%r12), %r12d
.LVL1358:
#APP
# 239 "./src/proto/protocol.hpp" 1
	rorw $8, %r12w
# 0 "" 2
.LVL1359:
#NO_APP
.LBE5737:
.LBE5736:
.LBE5735:
	.loc 1 215 0
	movswl	%r12w, %r12d
	jmp	.L461
.L482:
.LVL1360:
.LBB5740:
.LBB5741:
.LBB5742:
.LBB5743:
	.loc 1 257 0
	movq	24(%rsp), %r12
.LVL1361:
	.loc 1 258 0
	leaq	16(%rsp), %rdi
.LVL1362:
	call	_ZN5Proto8Iterator4nextEv@PLT
.LVL1363:
.LBE5743:
.LBE5742:
.LBB5744:
.LBB5745:
	.loc 8 47 0
	movl	(%r12), %r12d
.LVL1364:
	bswap	%r12d
.LVL1365:
.L461:
.LBE5745:
.LBE5744:
.LBE5741:
.LBE5740:
.LBE5730:
.LBE5729:
.LBB5746:
.LBB5747:
	.loc 1 213 0
	movl	20(%rsp), %eax
	cmpl	$1, %eax
	je	.L463
	cmpl	$2, %eax
	je	.L464
	jmp	.L483
.L463:
.LVL1366:
.LBB5748:
.LBB5749:
.LBB5750:
.LBB5751:
	.loc 1 257 0
	movq	24(%rsp), %r13
.LVL1367:
	.loc 1 258 0
	leaq	16(%rsp), %rdi
.LVL1368:
	call	_ZN5Proto8Iterator4nextEv@PLT
.LVL1369:
.LBE5751:
.LBE5750:
.LBE5749:
.LBE5748:
	.loc 1 214 0
	movsbl	0(%r13), %r15d
	jmp	.L465
.L464:
.LVL1370:
.LBB5752:
.LBB5753:
.LBB5754:
.LBB5755:
.LBB5756:
	.loc 1 257 0
	movq	24(%rsp), %r13
.LVL1371:
	.loc 1 258 0
	leaq	16(%rsp), %rdi
.LVL1372:
	call	_ZN5Proto8Iterator4nextEv@PLT
.LVL1373:
.LBE5756:
.LBE5755:
	.loc 1 239 0
	movzwl	0(%r13), %r15d
#APP
# 239 "./src/proto/protocol.hpp" 1
	rorw $8, %r15w
# 0 "" 2
.LVL1374:
#NO_APP
.LBE5754:
.LBE5753:
.LBE5752:
	.loc 1 215 0
	movswl	%r15w, %r15d
	jmp	.L465
.L483:
.LVL1375:
.LBB5757:
.LBB5758:
.LBB5759:
.LBB5760:
	.loc 1 257 0
	movq	24(%rsp), %r13
.LVL1376:
	.loc 1 258 0
	leaq	16(%rsp), %rdi
.LVL1377:
	call	_ZN5Proto8Iterator4nextEv@PLT
.LVL1378:
.LBE5760:
.LBE5759:
.LBB5761:
.LBB5762:
	.loc 8 47 0
	movl	0(%r13), %r15d
	bswap	%r15d
.LVL1379:
.L465:
.LBE5762:
.LBE5761:
.LBE5758:
.LBE5757:
.LBE5747:
.LBE5746:
	.loc 2 577 0
	testq	%rbx, %rbx
	je	.L477
	testl	%r12d, %r12d
	jle	.L477
	.loc 2 580 0
	movslq	%r12d, %rdi
	call	_Znam@PLT
.LVL1380:
	movq	%rax, %r13
.LVL1381:
	.loc 2 581 0
	movl	%r15d, %r8d
	movl	%r12d, %ecx
	movq	%rax, %rdx
	movl	%r14d, %esi
	movq	%rbx, %rdi
	call	usb_bulk_read@PLT
.LVL1382:
	movl	%eax, %ebx
.LVL1383:
	.loc 2 582 0
	call	log_level@PLT
.LVL1384:
	testb	$4, %al
	je	.L466
.LVL1385:
	.loc 2 582 0 discriminator 2
	movq	stderr@GOTPCREL(%rip), %r12
.LVL1386:
.LBB5763:
.LBB5764:
	.loc 3 98 0 discriminator 2
	leaq	_ZZN10UsbService13usb_bulk_readEiRN5Proto6PacketEE8__func__(%rip), %rcx
	leaq	.LC0(%rip), %rdx
	movl	$1, %esi
	movq	(%r12), %rdi
	movl	$0, %eax
	call	__fprintf_chk@PLT
.LVL1387:
.LBE5764:
.LBE5763:
.LBB5765:
.LBB5766:
	movl	%ebx, %r8d
	movl	%ebp, %ecx
	leaq	.LC6(%rip), %rdx
	movl	$1, %esi
	movq	(%r12), %rdi
	movl	$0, %eax
	call	__fprintf_chk@PLT
.LVL1388:
.LBE5766:
.LBE5765:
.LBB5767:
.LBB5768:
	movq	(%r12), %rsi
	movl	$10, %edi
	call	fputc@PLT
.LVL1389:
	jmp	.L466
.LVL1390:
.L477:
.LBE5768:
.LBE5767:
	.loc 2 573 0
	movl	$0, %r13d
	.loc 2 572 0
	movl	$-1, %ebx
.LVL1391:
.L466:
.LBB5769:
.LBB5770:
	.loc 1 279 0
	leaq	48(%rsp), %rbp
.LVL1392:
	leaq	80(%rsp), %rsi
	movl	$0, %edx
	movq	%rbp, %rdi
	call	_ZN5Proto6StructC2ERNSt7__cxx1112basic_stringIcSt11char_traitsIcESaIcEEEi@PLT
.LVL1393:
.LEHE83:
	movq	_ZTVN5Proto6PacketE@GOTPCREL(%rip), %rax
	leaq	16(%rax), %rax
	movq	%rax, 48(%rsp)
.LVL1394:
.LBB5771:
.LBB5772:
.LBB5773:
	.loc 4 109 0
	addq	$48, %rbp
.LVL1395:
	movq	%rbp, 80(%rsp)
.LVL1396:
.LBE5773:
.LBE5772:
.LBB5774:
.LBB5775:
.LBB5776:
	.loc 4 131 0
	movq	$0, 88(%rsp)
.LVL1397:
.LBE5776:
.LBE5775:
.LBB5777:
.LBB5778:
	.loc 5 243 0
	movb	$0, 96(%rsp)
.LVL1398:
.LBE5778:
.LBE5777:
.LBE5774:
.LBE5771:
.LBB5779:
.LBB5780:
	.loc 1 91 0
	movslq	68(%rsp), %rsi
	movq	56(%rsp), %rdi
.LVL1399:
.LBB5781:
.LBB5782:
.LBB5783:
.LBB5784:
.LBB5785:
.LBB5786:
	.loc 4 716 0
	movq	8(%rdi), %rcx
.LVL1400:
.LBE5786:
.LBE5785:
	.loc 4 260 0
	cmpq	%rcx, %rsi
	jbe	.L467
	.loc 4 261 0
	movq	%rsi, %rdx
	leaq	.LC3(%rip), %rsi
.LVL1401:
	leaq	.LC4(%rip), %rdi
.LVL1402:
	movl	$0, %eax
.LEHB84:
	call	_ZSt24__throw_out_of_range_fmtPKcz@PLT
.LVL1403:
.L467:
.LBE5784:
.LBE5783:
	.loc 4 1418 0
	movl	$60, %r8d
	movl	$1, %ecx
	movl	$0, %edx
	call	_ZNSt7__cxx1112basic_stringIcSt11char_traitsIcESaIcEE14_M_replace_auxEmmmc@PLT
.LVL1404:
.LEHE84:
.LBE5782:
.LBE5781:
	.loc 1 92 0
	addl	$1, 72(%rsp)
	addl	$1, 68(%rsp)
.LVL1405:
.LBE5780:
.LBE5779:
.LBE5770:
.LBE5769:
.LBB5798:
.LBB5799:
	.loc 1 156 0
	leaq	48(%rsp), %rdi
.LVL1406:
	movl	%ebx, %ecx
	movl	$4, %edx
	movl	$2, %esi
.LEHB85:
	call	_ZN5Proto6Struct10addNumericEhhj@PLT
.LVL1407:
.LEHE85:
	jmp	.L484
.LVL1408:
.L479:
	movq	%rax, %rbx
.LVL1409:
.LBE5799:
.LBE5798:
.LBB5800:
.LBB5797:
.LBB5787:
.LBB5788:
.LBB5789:
.LBB5790:
.LBB5791:
.LBB5792:
	.loc 4 135 0
	movq	80(%rsp), %rdi
.LVL1410:
.LBE5792:
.LBE5791:
.LBE5790:
	.loc 4 179 0
	leaq	96(%rsp), %rax
	cmpq	%rax, %rdi
	je	.L470
.LVL1411:
.LBB5793:
.LBB5794:
.LBB5795:
.LBB5796:
	.loc 6 110 0
	call	_ZdlPv@PLT
.LVL1412:
.L470:
	movq	%rbx, %rdi
.LEHB86:
	call	_Unwind_Resume@PLT
.LVL1413:
.LEHE86:
.L484:
.LBE5796:
.LBE5795:
.LBE5794:
.LBE5793:
.LBE5789:
.LBE5788:
.LBE5787:
.LBE5797:
.LBE5800:
	.loc 2 588 0
	testl	%ebx, %ebx
	movl	$0, %edx
	cmovns	%ebx, %edx
	movslq	%edx, %rdx
	leaq	48(%rsp), %rdi
.LVL1414:
	movl	$4, %ecx
	movq	%r13, %rsi
.LEHB87:
	call	_ZN5Proto6Struct7addDataEPKcmh@PLT
.LVL1415:
	.loc 2 589 0
	leaq	48(%rsp), %rdi
.LVL1416:
	movl	12(%rsp), %esi
	call	_ZN5Proto6Packet4sendEi@PLT
.LVL1417:
.LEHE87:
	.loc 2 592 0
	testq	%r13, %r13
	je	.L471
	.loc 2 593 0
	movq	%r13, %rdi
	call	_ZdlPv@PLT
.LVL1418:
.L471:
.LBB5801:
.LBB5802:
	.loc 1 273 0
	movq	_ZTVN5Proto6PacketE@GOTPCREL(%rip), %rax
	leaq	16(%rax), %rax
	movq	%rax, 48(%rsp)
.LVL1419:
.LBB5803:
.LBB5804:
.LBB5805:
.LBB5806:
.LBB5807:
.LBB5808:
	.loc 4 135 0
	movq	80(%rsp), %rdi
.LVL1420:
.LBE5808:
.LBE5807:
.LBE5806:
	.loc 4 179 0
	leaq	96(%rsp), %rax
	cmpq	%rax, %rdi
	je	.L446
.LVL1421:
.LBB5809:
.LBB5810:
.LBB5811:
.LBB5812:
	.loc 6 110 0
	call	_ZdlPv@PLT
.LVL1422:
.LBE5812:
.LBE5811:
.LBE5810:
.LBE5809:
.LBE5805:
.LBE5804:
.LBE5803:
.LBE5802:
.LBE5801:
	.loc 2 594 0
	jmp	.L446
.LVL1423:
.L478:
	movq	%rax, %rbx
.LVL1424:
.LBB5813:
.LBB5814:
	.loc 1 273 0
	movq	_ZTVN5Proto6PacketE@GOTPCREL(%rip), %rax
	leaq	16(%rax), %rax
	movq	%rax, 48(%rsp)
.LVL1425:
.LBB5815:
.LBB5816:
.LBB5817:
.LBB5818:
.LBB5819:
.LBB5820:
	.loc 4 135 0
	movq	80(%rsp), %rdi
.LVL1426:
.LBE5820:
.LBE5819:
.LBE5818:
	.loc 4 179 0
	leaq	96(%rsp), %rax
	cmpq	%rax, %rdi
	je	.L474
.LVL1427:
.LBB5821:
.LBB5822:
.LBB5823:
.LBB5824:
	.loc 6 110 0
	call	_ZdlPv@PLT
.LVL1428:
.L474:
	movq	%rbx, %rdi
.LEHB88:
	call	_Unwind_Resume@PLT
.LVL1429:
.LEHE88:
.L446:
.LBE5824:
.LBE5823:
.LBE5822:
.LBE5821:
.LBE5817:
.LBE5816:
.LBE5815:
.LBE5814:
.LBE5813:
	.loc 2 594 0
	movq	120(%rsp), %rax
	xorq	%fs:40, %rax
	je	.L475
	call	__stack_chk_fail@PLT
.LVL1430:
.L475:
	addq	$136, %rsp
	.cfi_def_cfa_offset 56
	popq	%rbx
	.cfi_def_cfa_offset 48
.LVL1431:
	popq	%rbp
	.cfi_def_cfa_offset 40
.LVL1432:
	popq	%r12
	.cfi_def_cfa_offset 32
	popq	%r13
	.cfi_def_cfa_offset 24
.LVL1433:
	popq	%r14
	.cfi_def_cfa_offset 16
	popq	%r15
	.cfi_def_cfa_offset 8
	ret
	.cfi_endproc
.LFE1171:
	.section	.gcc_except_table
.LLSDA1171:
	.byte	0xff
	.byte	0xff
	.byte	0x1
	.uleb128 .LLSDACSE1171-.LLSDACSB1171
.LLSDACSB1171:
	.uleb128 .LEHB83-.LFB1171
	.uleb128 .LEHE83-.LEHB83
	.uleb128 0
	.uleb128 0
	.uleb128 .LEHB84-.LFB1171
	.uleb128 .LEHE84-.LEHB84
	.uleb128 .L479-.LFB1171
	.uleb128 0
	.uleb128 .LEHB85-.LFB1171
	.uleb128 .LEHE85-.LEHB85
	.uleb128 .L478-.LFB1171
	.uleb128 0
	.uleb128 .LEHB86-.LFB1171
	.uleb128 .LEHE86-.LEHB86
	.uleb128 0
	.uleb128 0
	.uleb128 .LEHB87-.LFB1171
	.uleb128 .LEHE87-.LEHB87
	.uleb128 .L478-.LFB1171
	.uleb128 0
	.uleb128 .LEHB88-.LFB1171
	.uleb128 .LEHE88-.LEHB88
	.uleb128 0
	.uleb128 0
.LLSDACSE1171:
	.text
	.size	_ZN10UsbService13usb_bulk_readEiRN5Proto6PacketE, .-_ZN10UsbService13usb_bulk_readEiRN5Proto6PacketE
	.align 2
	.globl	_ZN10UsbService14usb_bulk_writeEiRN5Proto6PacketE
	.type	_ZN10UsbService14usb_bulk_writeEiRN5Proto6PacketE, @function
_ZN10UsbService14usb_bulk_writeEiRN5Proto6PacketE:
.LFB1172:
	.loc 2 597 0
	.cfi_startproc
	.cfi_personality 0x9b,DW.ref.__gxx_personality_v0
	.cfi_lsda 0x1b,.LLSDA1172
.LVL1434:
	pushq	%r15
	.cfi_def_cfa_offset 16
	.cfi_offset 15, -16
	pushq	%r14
	.cfi_def_cfa_offset 24
	.cfi_offset 14, -24
	pushq	%r13
	.cfi_def_cfa_offset 32
	.cfi_offset 13, -32
	pushq	%r12
	.cfi_def_cfa_offset 40
	.cfi_offset 12, -40
	pushq	%rbp
	.cfi_def_cfa_offset 48
	.cfi_offset 6, -48
	pushq	%rbx
	.cfi_def_cfa_offset 56
	.cfi_offset 3, -56
	subq	$136, %rsp
	.cfi_def_cfa_offset 192
	movq	%rdi, %rbx
	movl	%esi, 12(%rsp)
	.loc 2 597 0
	movq	%fs:40, %rax
	movq	%rax, 120(%rsp)
	xorl	%eax, %eax
.LVL1435:
.LBB5978:
.LBB5979:
	.loc 1 178 0
	movb	$0, 16(%rsp)
	movl	$0, 20(%rsp)
	movq	$0, 24(%rsp)
	movq	%rdx, 32(%rsp)
	movl	$0, 40(%rsp)
	.loc 1 180 0
	leaq	16(%rsp), %rdi
.LVL1436:
.LEHB89:
	call	_ZN5Proto8Iterator5enterEv@PLT
.LVL1437:
.LBE5979:
.LBE5978:
.LBB5980:
.LBB5981:
	.loc 1 213 0
	movl	20(%rsp), %eax
	cmpl	$1, %eax
	je	.L488
	cmpl	$2, %eax
	je	.L489
	jmp	.L515
.L488:
.LVL1438:
.LBB5982:
.LBB5983:
.LBB5984:
.LBB5985:
	.loc 1 257 0
	movq	24(%rsp), %rbp
.LVL1439:
	.loc 1 258 0
	leaq	16(%rsp), %rdi
.LVL1440:
	call	_ZN5Proto8Iterator4nextEv@PLT
.LVL1441:
.LBE5985:
.LBE5984:
.LBE5983:
.LBE5982:
	.loc 1 214 0
	movsbl	0(%rbp), %ebp
	jmp	.L490
.L489:
.LVL1442:
.LBB5986:
.LBB5987:
.LBB5988:
.LBB5989:
.LBB5990:
	.loc 1 257 0
	movq	24(%rsp), %rbp
.LVL1443:
	.loc 1 258 0
	leaq	16(%rsp), %rdi
.LVL1444:
	call	_ZN5Proto8Iterator4nextEv@PLT
.LVL1445:
.LBE5990:
.LBE5989:
	.loc 1 239 0
	movzwl	0(%rbp), %ebp
.LVL1446:
#APP
# 239 "./src/proto/protocol.hpp" 1
	rorw $8, %bp
# 0 "" 2
.LVL1447:
#NO_APP
.LBE5988:
.LBE5987:
.LBE5986:
	.loc 1 215 0
	movswl	%bp, %ebp
	jmp	.L490
.L515:
.LVL1448:
.LBB5991:
.LBB5992:
.LBB5993:
.LBB5994:
	.loc 1 257 0
	movq	24(%rsp), %rbp
.LVL1449:
	.loc 1 258 0
	leaq	16(%rsp), %rdi
.LVL1450:
	call	_ZN5Proto8Iterator4nextEv@PLT
.LVL1451:
.LBE5994:
.LBE5993:
.LBB5995:
.LBB5996:
	.loc 8 47 0
	movl	0(%rbp), %ebp
.LVL1452:
	bswap	%ebp
.LVL1453:
.L490:
.LBE5996:
.LBE5995:
.LBE5992:
.LBE5991:
.LBE5981:
.LBE5980:
.LBB5997:
.LBB5998:
	.loc 9 832 0
	movq	80(%rbx), %rax
.LVL1454:
.LBE5998:
.LBE5997:
.LBB5999:
.LBB6000:
	.loc 9 850 0
	leaq	80(%rbx), %rdi
.LVL1455:
.LBE6000:
.LBE5999:
	.loc 2 604 0
	cmpq	%rdi, %rax
	je	.L511
	.loc 2 605 0
	movq	16(%rax), %rbx
.LVL1456:
	cmpl	%ebp, (%rbx)
	jne	.L492
	jmp	.L491
.LVL1457:
.L493:
	movq	16(%rax), %rbx
	cmpl	%ebp, (%rbx)
	je	.L491
.LVL1458:
.L492:
.LBB6001:
.LBB6002:
	.loc 9 159 0
	movq	(%rax), %rax
.LVL1459:
.LBE6002:
.LBE6001:
	.loc 2 604 0
	cmpq	%rax, %rdi
	jne	.L493
	.loc 2 602 0
	movl	$0, %ebx
	jmp	.L491
.LVL1460:
.L511:
	movl	$0, %ebx
.LVL1461:
.L491:
.LBB6003:
.LBB6004:
	.loc 1 213 0
	movl	20(%rsp), %eax
.LVL1462:
	cmpl	$1, %eax
	je	.L495
	cmpl	$2, %eax
	je	.L496
	jmp	.L516
.L495:
.LVL1463:
.LBB6005:
.LBB6006:
.LBB6007:
.LBB6008:
	.loc 1 257 0
	movq	24(%rsp), %r12
.LVL1464:
	.loc 1 258 0
	leaq	16(%rsp), %rdi
.LVL1465:
	call	_ZN5Proto8Iterator4nextEv@PLT
.LVL1466:
.LBE6008:
.LBE6007:
.LBE6006:
.LBE6005:
	.loc 1 214 0
	movsbl	(%r12), %r12d
	jmp	.L497
.L496:
.LVL1467:
.LBB6009:
.LBB6010:
.LBB6011:
.LBB6012:
.LBB6013:
	.loc 1 257 0
	movq	24(%rsp), %r12
.LVL1468:
	.loc 1 258 0
	leaq	16(%rsp), %rdi
.LVL1469:
	call	_ZN5Proto8Iterator4nextEv@PLT
.LVL1470:
.LBE6013:
.LBE6012:
	.loc 1 239 0
	movzwl	(%r12), %r12d
.LVL1471:
#APP
# 239 "./src/proto/protocol.hpp" 1
	rorw $8, %r12w
# 0 "" 2
.LVL1472:
#NO_APP
.LBE6011:
.LBE6010:
.LBE6009:
	.loc 1 215 0
	movswl	%r12w, %r12d
	jmp	.L497
.L516:
.LVL1473:
.LBB6014:
.LBB6015:
.LBB6016:
.LBB6017:
	.loc 1 257 0
	movq	24(%rsp), %r12
.LVL1474:
	.loc 1 258 0
	leaq	16(%rsp), %rdi
.LVL1475:
	call	_ZN5Proto8Iterator4nextEv@PLT
.LVL1476:
.LBE6017:
.LBE6016:
.LBB6018:
.LBB6019:
	.loc 8 47 0
	movl	(%r12), %r12d
.LVL1477:
	bswap	%r12d
.LVL1478:
.L497:
.LBE6019:
.LBE6018:
.LBE6015:
.LBE6014:
.LBE6004:
.LBE6003:
	.loc 2 614 0
	movl	20(%rsp), %r13d
.LVL1479:
.LBB6020:
.LBB6021:
.LBB6022:
	.loc 1 257 0
	movq	24(%rsp), %r14
.LVL1480:
	.loc 1 258 0
	leaq	16(%rsp), %rdi
.LVL1481:
	call	_ZN5Proto8Iterator4nextEv@PLT
.LVL1482:
.LBE6022:
.LBE6021:
.LBE6020:
.LBB6023:
.LBB6024:
	.loc 1 213 0
	movl	20(%rsp), %eax
	cmpl	$1, %eax
	je	.L499
	cmpl	$2, %eax
	je	.L500
	jmp	.L517
.L499:
.LVL1483:
.LBB6025:
.LBB6026:
.LBB6027:
.LBB6028:
	.loc 1 257 0
	movq	24(%rsp), %r15
.LVL1484:
	.loc 1 258 0
	leaq	16(%rsp), %rdi
.LVL1485:
	call	_ZN5Proto8Iterator4nextEv@PLT
.LVL1486:
.LBE6028:
.LBE6027:
.LBE6026:
.LBE6025:
	.loc 1 214 0
	movsbl	(%r15), %r8d
	jmp	.L501
.L500:
.LVL1487:
.LBB6029:
.LBB6030:
.LBB6031:
.LBB6032:
.LBB6033:
	.loc 1 257 0
	movq	24(%rsp), %r15
.LVL1488:
	.loc 1 258 0
	leaq	16(%rsp), %rdi
.LVL1489:
	call	_ZN5Proto8Iterator4nextEv@PLT
.LVL1490:
.LBE6033:
.LBE6032:
	.loc 1 239 0
	movzwl	(%r15), %r8d
#APP
# 239 "./src/proto/protocol.hpp" 1
	rorw $8, %r8w
# 0 "" 2
.LVL1491:
#NO_APP
.LBE6031:
.LBE6030:
.LBE6029:
	.loc 1 215 0
	movswl	%r8w, %r8d
	jmp	.L501
.L517:
.LVL1492:
.LBB6034:
.LBB6035:
.LBB6036:
.LBB6037:
	.loc 1 257 0
	movq	24(%rsp), %r15
.LVL1493:
	.loc 1 258 0
	leaq	16(%rsp), %rdi
.LVL1494:
	call	_ZN5Proto8Iterator4nextEv@PLT
.LVL1495:
.LBE6037:
.LBE6036:
.LBB6038:
.LBB6039:
	.loc 8 47 0
	movl	(%r15), %r8d
	bswap	%r8d
.LVL1496:
.L501:
.LBE6039:
.LBE6038:
.LBE6035:
.LBE6034:
.LBE6024:
.LBE6023:
	.loc 2 617 0
	testq	%rbx, %rbx
	je	.L512
	testl	%r13d, %r13d
	jle	.L512
	.loc 2 620 0
	movl	%r13d, %ecx
	movq	%r14, %rdx
	movl	%r12d, %esi
	movq	%rbx, %rdi
	call	usb_bulk_write@PLT
.LVL1497:
	movl	%eax, %r12d
.LVL1498:
	.loc 2 621 0
	call	log_level@PLT
.LVL1499:
	testb	$4, %al
	je	.L502
.LVL1500:
	.loc 2 621 0 discriminator 2
	movq	stderr@GOTPCREL(%rip), %rbx
.LVL1501:
.LBB6040:
.LBB6041:
	.loc 3 98 0 discriminator 2
	leaq	_ZZN10UsbService14usb_bulk_writeEiRN5Proto6PacketEE8__func__(%rip), %rcx
	leaq	.LC0(%rip), %rdx
	movl	$1, %esi
	movq	(%rbx), %rdi
	movl	$0, %eax
	call	__fprintf_chk@PLT
.LVL1502:
.LBE6041:
.LBE6040:
.LBB6042:
.LBB6043:
	movl	%r12d, %r8d
	movl	%ebp, %ecx
	leaq	.LC6(%rip), %rdx
	movl	$1, %esi
	movq	(%rbx), %rdi
	movl	$0, %eax
	call	__fprintf_chk@PLT
.LVL1503:
.LBE6043:
.LBE6042:
.LBB6044:
.LBB6045:
	movq	(%rbx), %rsi
	movl	$10, %edi
	call	fputc@PLT
.LVL1504:
	jmp	.L502
.LVL1505:
.L512:
.LBE6045:
.LBE6044:
	.loc 2 612 0
	movl	$-1, %r12d
.LVL1506:
.L502:
.LBB6046:
.LBB6047:
	.loc 1 279 0
	leaq	48(%rsp), %rbx
.LVL1507:
	leaq	80(%rsp), %rsi
	movl	$0, %edx
	movq	%rbx, %rdi
	call	_ZN5Proto6StructC2ERNSt7__cxx1112basic_stringIcSt11char_traitsIcESaIcEEEi@PLT
.LVL1508:
.LEHE89:
	movq	_ZTVN5Proto6PacketE@GOTPCREL(%rip), %rax
	leaq	16(%rax), %rax
	movq	%rax, 48(%rsp)
.LVL1509:
.LBB6048:
.LBB6049:
.LBB6050:
	.loc 4 109 0
	addq	$48, %rbx
.LVL1510:
	movq	%rbx, 80(%rsp)
.LVL1511:
.LBE6050:
.LBE6049:
.LBB6051:
.LBB6052:
.LBB6053:
	.loc 4 131 0
	movq	$0, 88(%rsp)
.LVL1512:
.LBE6053:
.LBE6052:
.LBB6054:
.LBB6055:
	.loc 5 243 0
	movb	$0, 96(%rsp)
.LVL1513:
.LBE6055:
.LBE6054:
.LBE6051:
.LBE6048:
.LBB6056:
.LBB6057:
	.loc 1 91 0
	movslq	68(%rsp), %rsi
	movq	56(%rsp), %rdi
.LVL1514:
.LBB6058:
.LBB6059:
.LBB6060:
.LBB6061:
.LBB6062:
.LBB6063:
	.loc 4 716 0
	movq	8(%rdi), %rcx
.LVL1515:
.LBE6063:
.LBE6062:
	.loc 4 260 0
	cmpq	%rcx, %rsi
	jbe	.L503
	.loc 4 261 0
	movq	%rsi, %rdx
	leaq	.LC3(%rip), %rsi
.LVL1516:
	leaq	.LC4(%rip), %rdi
.LVL1517:
	movl	$0, %eax
.LEHB90:
	call	_ZSt24__throw_out_of_range_fmtPKcz@PLT
.LVL1518:
.L503:
.LBE6061:
.LBE6060:
	.loc 4 1418 0
	movl	$61, %r8d
	movl	$1, %ecx
	movl	$0, %edx
	call	_ZNSt7__cxx1112basic_stringIcSt11char_traitsIcESaIcEE14_M_replace_auxEmmmc@PLT
.LVL1519:
.LEHE90:
.LBE6059:
.LBE6058:
	.loc 1 92 0
	addl	$1, 72(%rsp)
	addl	$1, 68(%rsp)
.LVL1520:
.LBE6057:
.LBE6056:
.LBE6047:
.LBE6046:
.LBB6075:
.LBB6076:
	.loc 1 156 0
	leaq	48(%rsp), %rdi
.LVL1521:
	movl	%r12d, %ecx
	movl	$4, %edx
	movl	$2, %esi
.LEHB91:
	call	_ZN5Proto6Struct10addNumericEhhj@PLT
.LVL1522:
.LEHE91:
	jmp	.L518
.LVL1523:
.L514:
	movq	%rax, %rbx
.LVL1524:
.LBE6076:
.LBE6075:
.LBB6077:
.LBB6074:
.LBB6064:
.LBB6065:
.LBB6066:
.LBB6067:
.LBB6068:
.LBB6069:
	.loc 4 135 0
	movq	80(%rsp), %rdi
.LVL1525:
.LBE6069:
.LBE6068:
.LBE6067:
	.loc 4 179 0
	leaq	96(%rsp), %rax
	cmpq	%rax, %rdi
	je	.L506
.LVL1526:
.LBB6070:
.LBB6071:
.LBB6072:
.LBB6073:
	.loc 6 110 0
	call	_ZdlPv@PLT
.LVL1527:
.L506:
	movq	%rbx, %rdi
.LEHB92:
	call	_Unwind_Resume@PLT
.LVL1528:
.LEHE92:
.L518:
.LBE6073:
.LBE6072:
.LBE6071:
.LBE6070:
.LBE6066:
.LBE6065:
.LBE6064:
.LBE6074:
.LBE6077:
	.loc 2 627 0
	leaq	48(%rsp), %rdi
.LVL1529:
	movl	12(%rsp), %esi
.LEHB93:
	call	_ZN5Proto6Packet4sendEi@PLT
.LVL1530:
.LEHE93:
.LBB6078:
.LBB6079:
	.loc 1 273 0
	movq	_ZTVN5Proto6PacketE@GOTPCREL(%rip), %rax
	leaq	16(%rax), %rax
	movq	%rax, 48(%rsp)
.LVL1531:
.LBB6080:
.LBB6081:
.LBB6082:
.LBB6083:
.LBB6084:
.LBB6085:
	.loc 4 135 0
	movq	80(%rsp), %rdi
.LVL1532:
.LBE6085:
.LBE6084:
.LBE6083:
	.loc 4 179 0
	leaq	96(%rsp), %rax
	cmpq	%rax, %rdi
	je	.L486
.LVL1533:
.LBB6086:
.LBB6087:
.LBB6088:
.LBB6089:
	.loc 6 110 0
	call	_ZdlPv@PLT
.LVL1534:
.LBE6089:
.LBE6088:
.LBE6087:
.LBE6086:
.LBE6082:
.LBE6081:
.LBE6080:
.LBE6079:
.LBE6078:
	.loc 2 628 0
	jmp	.L486
.LVL1535:
.L513:
	movq	%rax, %rbx
.LVL1536:
.LBB6090:
.LBB6091:
	.loc 1 273 0
	movq	_ZTVN5Proto6PacketE@GOTPCREL(%rip), %rax
	leaq	16(%rax), %rax
	movq	%rax, 48(%rsp)
.LVL1537:
.LBB6092:
.LBB6093:
.LBB6094:
.LBB6095:
.LBB6096:
.LBB6097:
	.loc 4 135 0
	movq	80(%rsp), %rdi
.LVL1538:
.LBE6097:
.LBE6096:
.LBE6095:
	.loc 4 179 0
	leaq	96(%rsp), %rax
	cmpq	%rax, %rdi
	je	.L509
.LVL1539:
.LBB6098:
.LBB6099:
.LBB6100:
.LBB6101:
	.loc 6 110 0
	call	_ZdlPv@PLT
.LVL1540:
.L509:
	movq	%rbx, %rdi
.LEHB94:
	call	_Unwind_Resume@PLT
.LVL1541:
.LEHE94:
.L486:
.LBE6101:
.LBE6100:
.LBE6099:
.LBE6098:
.LBE6094:
.LBE6093:
.LBE6092:
.LBE6091:
.LBE6090:
	.loc 2 628 0
	movq	120(%rsp), %rax
	xorq	%fs:40, %rax
	je	.L510
	call	__stack_chk_fail@PLT
.LVL1542:
.L510:
	addq	$136, %rsp
	.cfi_def_cfa_offset 56
	popq	%rbx
	.cfi_def_cfa_offset 48
	popq	%rbp
	.cfi_def_cfa_offset 40
	popq	%r12
	.cfi_def_cfa_offset 32
.LVL1543:
	popq	%r13
	.cfi_def_cfa_offset 24
.LVL1544:
	popq	%r14
	.cfi_def_cfa_offset 16
.LVL1545:
	popq	%r15
	.cfi_def_cfa_offset 8
	ret
	.cfi_endproc
.LFE1172:
	.section	.gcc_except_table
.LLSDA1172:
	.byte	0xff
	.byte	0xff
	.byte	0x1
	.uleb128 .LLSDACSE1172-.LLSDACSB1172
.LLSDACSB1172:
	.uleb128 .LEHB89-.LFB1172
	.uleb128 .LEHE89-.LEHB89
	.uleb128 0
	.uleb128 0
	.uleb128 .LEHB90-.LFB1172
	.uleb128 .LEHE90-.LEHB90
	.uleb128 .L514-.LFB1172
	.uleb128 0
	.uleb128 .LEHB91-.LFB1172
	.uleb128 .LEHE91-.LEHB91
	.uleb128 .L513-.LFB1172
	.uleb128 0
	.uleb128 .LEHB92-.LFB1172
	.uleb128 .LEHE92-.LEHB92
	.uleb128 0
	.uleb128 0
	.uleb128 .LEHB93-.LFB1172
	.uleb128 .LEHE93-.LEHB93
	.uleb128 .L513-.LFB1172
	.uleb128 0
	.uleb128 .LEHB94-.LFB1172
	.uleb128 .LEHE94-.LEHB94
	.uleb128 0
	.uleb128 0
.LLSDACSE1172:
	.text
	.size	_ZN10UsbService14usb_bulk_writeEiRN5Proto6PacketE, .-_ZN10UsbService14usb_bulk_writeEiRN5Proto6PacketE
	.align 2
	.globl	_ZN10UsbService19usb_interrupt_writeEiRN5Proto6PacketE
	.type	_ZN10UsbService19usb_interrupt_writeEiRN5Proto6PacketE, @function
_ZN10UsbService19usb_interrupt_writeEiRN5Proto6PacketE:
.LFB1173:
	.loc 2 631 0
	.cfi_startproc
	.cfi_personality 0x9b,DW.ref.__gxx_personality_v0
	.cfi_lsda 0x1b,.LLSDA1173
.LVL1546:
	pushq	%r15
	.cfi_def_cfa_offset 16
	.cfi_offset 15, -16
	pushq	%r14
	.cfi_def_cfa_offset 24
	.cfi_offset 14, -24
	pushq	%r13
	.cfi_def_cfa_offset 32
	.cfi_offset 13, -32
	pushq	%r12
	.cfi_def_cfa_offset 40
	.cfi_offset 12, -40
	pushq	%rbp
	.cfi_def_cfa_offset 48
	.cfi_offset 6, -48
	pushq	%rbx
	.cfi_def_cfa_offset 56
	.cfi_offset 3, -56
	subq	$136, %rsp
	.cfi_def_cfa_offset 192
	movq	%rdi, %rbx
	movl	%esi, 12(%rsp)
	.loc 2 631 0
	movq	%fs:40, %rax
	movq	%rax, 120(%rsp)
	xorl	%eax, %eax
.LVL1547:
.LBB6255:
.LBB6256:
	.loc 1 178 0
	movb	$0, 16(%rsp)
	movl	$0, 20(%rsp)
	movq	$0, 24(%rsp)
	movq	%rdx, 32(%rsp)
	movl	$0, 40(%rsp)
	.loc 1 180 0
	leaq	16(%rsp), %rdi
.LVL1548:
.LEHB95:
	call	_ZN5Proto8Iterator5enterEv@PLT
.LVL1549:
.LBE6256:
.LBE6255:
.LBB6257:
.LBB6258:
	.loc 1 213 0
	movl	20(%rsp), %eax
	cmpl	$1, %eax
	je	.L522
	cmpl	$2, %eax
	je	.L523
	jmp	.L549
.L522:
.LVL1550:
.LBB6259:
.LBB6260:
.LBB6261:
.LBB6262:
	.loc 1 257 0
	movq	24(%rsp), %rbp
.LVL1551:
	.loc 1 258 0
	leaq	16(%rsp), %rdi
.LVL1552:
	call	_ZN5Proto8Iterator4nextEv@PLT
.LVL1553:
.LBE6262:
.LBE6261:
.LBE6260:
.LBE6259:
	.loc 1 214 0
	movsbl	0(%rbp), %ebp
	jmp	.L524
.L523:
.LVL1554:
.LBB6263:
.LBB6264:
.LBB6265:
.LBB6266:
.LBB6267:
	.loc 1 257 0
	movq	24(%rsp), %rbp
.LVL1555:
	.loc 1 258 0
	leaq	16(%rsp), %rdi
.LVL1556:
	call	_ZN5Proto8Iterator4nextEv@PLT
.LVL1557:
.LBE6267:
.LBE6266:
	.loc 1 239 0
	movzwl	0(%rbp), %ebp
.LVL1558:
#APP
# 239 "./src/proto/protocol.hpp" 1
	rorw $8, %bp
# 0 "" 2
.LVL1559:
#NO_APP
.LBE6265:
.LBE6264:
.LBE6263:
	.loc 1 215 0
	movswl	%bp, %ebp
	jmp	.L524
.L549:
.LVL1560:
.LBB6268:
.LBB6269:
.LBB6270:
.LBB6271:
	.loc 1 257 0
	movq	24(%rsp), %rbp
.LVL1561:
	.loc 1 258 0
	leaq	16(%rsp), %rdi
.LVL1562:
	call	_ZN5Proto8Iterator4nextEv@PLT
.LVL1563:
.LBE6271:
.LBE6270:
.LBB6272:
.LBB6273:
	.loc 8 47 0
	movl	0(%rbp), %ebp
.LVL1564:
	bswap	%ebp
.LVL1565:
.L524:
.LBE6273:
.LBE6272:
.LBE6269:
.LBE6268:
.LBE6258:
.LBE6257:
.LBB6274:
.LBB6275:
	.loc 9 832 0
	movq	80(%rbx), %rax
.LVL1566:
.LBE6275:
.LBE6274:
.LBB6276:
.LBB6277:
	.loc 9 850 0
	leaq	80(%rbx), %rdi
.LVL1567:
.LBE6277:
.LBE6276:
	.loc 2 638 0
	cmpq	%rdi, %rax
	je	.L545
	.loc 2 639 0
	movq	16(%rax), %rbx
.LVL1568:
	cmpl	%ebp, (%rbx)
	jne	.L526
	jmp	.L525
.LVL1569:
.L527:
	movq	16(%rax), %rbx
	cmpl	%ebp, (%rbx)
	je	.L525
.LVL1570:
.L526:
.LBB6278:
.LBB6279:
	.loc 9 159 0
	movq	(%rax), %rax
.LVL1571:
.LBE6279:
.LBE6278:
	.loc 2 638 0
	cmpq	%rax, %rdi
	jne	.L527
	.loc 2 636 0
	movl	$0, %ebx
	jmp	.L525
.LVL1572:
.L545:
	movl	$0, %ebx
.LVL1573:
.L525:
.LBB6280:
.LBB6281:
	.loc 1 213 0
	movl	20(%rsp), %eax
.LVL1574:
	cmpl	$1, %eax
	je	.L529
	cmpl	$2, %eax
	je	.L530
	jmp	.L550
.L529:
.LVL1575:
.LBB6282:
.LBB6283:
.LBB6284:
.LBB6285:
	.loc 1 257 0
	movq	24(%rsp), %r12
.LVL1576:
	.loc 1 258 0
	leaq	16(%rsp), %rdi
.LVL1577:
	call	_ZN5Proto8Iterator4nextEv@PLT
.LVL1578:
.LBE6285:
.LBE6284:
.LBE6283:
.LBE6282:
	.loc 1 214 0
	movsbl	(%r12), %r12d
	jmp	.L531
.L530:
.LVL1579:
.LBB6286:
.LBB6287:
.LBB6288:
.LBB6289:
.LBB6290:
	.loc 1 257 0
	movq	24(%rsp), %r12
.LVL1580:
	.loc 1 258 0
	leaq	16(%rsp), %rdi
.LVL1581:
	call	_ZN5Proto8Iterator4nextEv@PLT
.LVL1582:
.LBE6290:
.LBE6289:
	.loc 1 239 0
	movzwl	(%r12), %r12d
.LVL1583:
#APP
# 239 "./src/proto/protocol.hpp" 1
	rorw $8, %r12w
# 0 "" 2
.LVL1584:
#NO_APP
.LBE6288:
.LBE6287:
.LBE6286:
	.loc 1 215 0
	movswl	%r12w, %r12d
	jmp	.L531
.L550:
.LVL1585:
.LBB6291:
.LBB6292:
.LBB6293:
.LBB6294:
	.loc 1 257 0
	movq	24(%rsp), %r12
.LVL1586:
	.loc 1 258 0
	leaq	16(%rsp), %rdi
.LVL1587:
	call	_ZN5Proto8Iterator4nextEv@PLT
.LVL1588:
.LBE6294:
.LBE6293:
.LBB6295:
.LBB6296:
	.loc 8 47 0
	movl	(%r12), %r12d
.LVL1589:
	bswap	%r12d
.LVL1590:
.L531:
.LBE6296:
.LBE6295:
.LBE6292:
.LBE6291:
.LBE6281:
.LBE6280:
	.loc 2 648 0
	movl	20(%rsp), %r13d
.LVL1591:
.LBB6297:
.LBB6298:
.LBB6299:
	.loc 1 257 0
	movq	24(%rsp), %r14
.LVL1592:
	.loc 1 258 0
	leaq	16(%rsp), %rdi
.LVL1593:
	call	_ZN5Proto8Iterator4nextEv@PLT
.LVL1594:
.LBE6299:
.LBE6298:
.LBE6297:
.LBB6300:
.LBB6301:
	.loc 1 213 0
	movl	20(%rsp), %eax
	cmpl	$1, %eax
	je	.L533
	cmpl	$2, %eax
	je	.L534
	jmp	.L551
.L533:
.LVL1595:
.LBB6302:
.LBB6303:
.LBB6304:
.LBB6305:
	.loc 1 257 0
	movq	24(%rsp), %r15
.LVL1596:
	.loc 1 258 0
	leaq	16(%rsp), %rdi
.LVL1597:
	call	_ZN5Proto8Iterator4nextEv@PLT
.LVL1598:
.LBE6305:
.LBE6304:
.LBE6303:
.LBE6302:
	.loc 1 214 0
	movsbl	(%r15), %r8d
	jmp	.L535
.L534:
.LVL1599:
.LBB6306:
.LBB6307:
.LBB6308:
.LBB6309:
.LBB6310:
	.loc 1 257 0
	movq	24(%rsp), %r15
.LVL1600:
	.loc 1 258 0
	leaq	16(%rsp), %rdi
.LVL1601:
	call	_ZN5Proto8Iterator4nextEv@PLT
.LVL1602:
.LBE6310:
.LBE6309:
	.loc 1 239 0
	movzwl	(%r15), %r8d
#APP
# 239 "./src/proto/protocol.hpp" 1
	rorw $8, %r8w
# 0 "" 2
.LVL1603:
#NO_APP
.LBE6308:
.LBE6307:
.LBE6306:
	.loc 1 215 0
	movswl	%r8w, %r8d
	jmp	.L535
.L551:
.LVL1604:
.LBB6311:
.LBB6312:
.LBB6313:
.LBB6314:
	.loc 1 257 0
	movq	24(%rsp), %r15
.LVL1605:
	.loc 1 258 0
	leaq	16(%rsp), %rdi
.LVL1606:
	call	_ZN5Proto8Iterator4nextEv@PLT
.LVL1607:
.LBE6314:
.LBE6313:
.LBB6315:
.LBB6316:
	.loc 8 47 0
	movl	(%r15), %r8d
	bswap	%r8d
.LVL1608:
.L535:
.LBE6316:
.LBE6315:
.LBE6312:
.LBE6311:
.LBE6301:
.LBE6300:
	.loc 2 651 0
	testq	%rbx, %rbx
	je	.L546
	testl	%r13d, %r13d
	jle	.L546
	.loc 2 654 0
	movl	%r13d, %ecx
	movq	%r14, %rdx
	movl	%r12d, %esi
	movq	%rbx, %rdi
	call	usb_interrupt_write@PLT
.LVL1609:
	movl	%eax, %r12d
.LVL1610:
	.loc 2 655 0
	call	log_level@PLT
.LVL1611:
	testb	$4, %al
	je	.L536
.LVL1612:
	.loc 2 655 0 discriminator 2
	movq	stderr@GOTPCREL(%rip), %rbx
.LVL1613:
.LBB6317:
.LBB6318:
	.loc 3 98 0 discriminator 2
	leaq	_ZZN10UsbService19usb_interrupt_writeEiRN5Proto6PacketEE8__func__(%rip), %rcx
	leaq	.LC0(%rip), %rdx
	movl	$1, %esi
	movq	(%rbx), %rdi
	movl	$0, %eax
	call	__fprintf_chk@PLT
.LVL1614:
.LBE6318:
.LBE6317:
.LBB6319:
.LBB6320:
	movl	%r12d, %r8d
	movl	%ebp, %ecx
	leaq	.LC6(%rip), %rdx
	movl	$1, %esi
	movq	(%rbx), %rdi
	movl	$0, %eax
	call	__fprintf_chk@PLT
.LVL1615:
.LBE6320:
.LBE6319:
.LBB6321:
.LBB6322:
	movq	(%rbx), %rsi
	movl	$10, %edi
	call	fputc@PLT
.LVL1616:
	jmp	.L536
.LVL1617:
.L546:
.LBE6322:
.LBE6321:
	.loc 2 646 0
	movl	$-1, %r12d
.LVL1618:
.L536:
.LBB6323:
.LBB6324:
	.loc 1 279 0
	leaq	48(%rsp), %rbx
.LVL1619:
	leaq	80(%rsp), %rsi
	movl	$0, %edx
	movq	%rbx, %rdi
	call	_ZN5Proto6StructC2ERNSt7__cxx1112basic_stringIcSt11char_traitsIcESaIcEEEi@PLT
.LVL1620:
.LEHE95:
	movq	_ZTVN5Proto6PacketE@GOTPCREL(%rip), %rax
	leaq	16(%rax), %rax
	movq	%rax, 48(%rsp)
.LVL1621:
.LBB6325:
.LBB6326:
.LBB6327:
	.loc 4 109 0
	addq	$48, %rbx
.LVL1622:
	movq	%rbx, 80(%rsp)
.LVL1623:
.LBE6327:
.LBE6326:
.LBB6328:
.LBB6329:
.LBB6330:
	.loc 4 131 0
	movq	$0, 88(%rsp)
.LVL1624:
.LBE6330:
.LBE6329:
.LBB6331:
.LBB6332:
	.loc 5 243 0
	movb	$0, 96(%rsp)
.LVL1625:
.LBE6332:
.LBE6331:
.LBE6328:
.LBE6325:
.LBB6333:
.LBB6334:
	.loc 1 91 0
	movslq	68(%rsp), %rsi
	movq	56(%rsp), %rdi
.LVL1626:
.LBB6335:
.LBB6336:
.LBB6337:
.LBB6338:
.LBB6339:
.LBB6340:
	.loc 4 716 0
	movq	8(%rdi), %rcx
.LVL1627:
.LBE6340:
.LBE6339:
	.loc 4 260 0
	cmpq	%rcx, %rsi
	jbe	.L537
	.loc 4 261 0
	movq	%rsi, %rdx
	leaq	.LC3(%rip), %rsi
.LVL1628:
	leaq	.LC4(%rip), %rdi
.LVL1629:
	movl	$0, %eax
.LEHB96:
	call	_ZSt24__throw_out_of_range_fmtPKcz@PLT
.LVL1630:
.L537:
.LBE6338:
.LBE6337:
	.loc 4 1418 0
	movl	$68, %r8d
	movl	$1, %ecx
	movl	$0, %edx
	call	_ZNSt7__cxx1112basic_stringIcSt11char_traitsIcESaIcEE14_M_replace_auxEmmmc@PLT
.LVL1631:
.LEHE96:
.LBE6336:
.LBE6335:
	.loc 1 92 0
	addl	$1, 72(%rsp)
	addl	$1, 68(%rsp)
.LVL1632:
.LBE6334:
.LBE6333:
.LBE6324:
.LBE6323:
.LBB6352:
.LBB6353:
	.loc 1 156 0
	leaq	48(%rsp), %rdi
.LVL1633:
	movl	%r12d, %ecx
	movl	$4, %edx
	movl	$2, %esi
.LEHB97:
	call	_ZN5Proto6Struct10addNumericEhhj@PLT
.LVL1634:
.LEHE97:
	jmp	.L552
.LVL1635:
.L548:
	movq	%rax, %rbx
.LVL1636:
.LBE6353:
.LBE6352:
.LBB6354:
.LBB6351:
.LBB6341:
.LBB6342:
.LBB6343:
.LBB6344:
.LBB6345:
.LBB6346:
	.loc 4 135 0
	movq	80(%rsp), %rdi
.LVL1637:
.LBE6346:
.LBE6345:
.LBE6344:
	.loc 4 179 0
	leaq	96(%rsp), %rax
	cmpq	%rax, %rdi
	je	.L540
.LVL1638:
.LBB6347:
.LBB6348:
.LBB6349:
.LBB6350:
	.loc 6 110 0
	call	_ZdlPv@PLT
.LVL1639:
.L540:
	movq	%rbx, %rdi
.LEHB98:
	call	_Unwind_Resume@PLT
.LVL1640:
.LEHE98:
.L552:
.LBE6350:
.LBE6349:
.LBE6348:
.LBE6347:
.LBE6343:
.LBE6342:
.LBE6341:
.LBE6351:
.LBE6354:
	.loc 2 661 0
	leaq	48(%rsp), %rdi
.LVL1641:
	movl	12(%rsp), %esi
.LEHB99:
	call	_ZN5Proto6Packet4sendEi@PLT
.LVL1642:
.LEHE99:
.LBB6355:
.LBB6356:
	.loc 1 273 0
	movq	_ZTVN5Proto6PacketE@GOTPCREL(%rip), %rax
	leaq	16(%rax), %rax
	movq	%rax, 48(%rsp)
.LVL1643:
.LBB6357:
.LBB6358:
.LBB6359:
.LBB6360:
.LBB6361:
.LBB6362:
	.loc 4 135 0
	movq	80(%rsp), %rdi
.LVL1644:
.LBE6362:
.LBE6361:
.LBE6360:
	.loc 4 179 0
	leaq	96(%rsp), %rax
	cmpq	%rax, %rdi
	je	.L520
.LVL1645:
.LBB6363:
.LBB6364:
.LBB6365:
.LBB6366:
	.loc 6 110 0
	call	_ZdlPv@PLT
.LVL1646:
.LBE6366:
.LBE6365:
.LBE6364:
.LBE6363:
.LBE6359:
.LBE6358:
.LBE6357:
.LBE6356:
.LBE6355:
	.loc 2 662 0
	jmp	.L520
.LVL1647:
.L547:
	movq	%rax, %rbx
.LVL1648:
.LBB6367:
.LBB6368:
	.loc 1 273 0
	movq	_ZTVN5Proto6PacketE@GOTPCREL(%rip), %rax
	leaq	16(%rax), %rax
	movq	%rax, 48(%rsp)
.LVL1649:
.LBB6369:
.LBB6370:
.LBB6371:
.LBB6372:
.LBB6373:
.LBB6374:
	.loc 4 135 0
	movq	80(%rsp), %rdi
.LVL1650:
.LBE6374:
.LBE6373:
.LBE6372:
	.loc 4 179 0
	leaq	96(%rsp), %rax
	cmpq	%rax, %rdi
	je	.L543
.LVL1651:
.LBB6375:
.LBB6376:
.LBB6377:
.LBB6378:
	.loc 6 110 0
	call	_ZdlPv@PLT
.LVL1652:
.L543:
	movq	%rbx, %rdi
.LEHB100:
	call	_Unwind_Resume@PLT
.LVL1653:
.LEHE100:
.L520:
.LBE6378:
.LBE6377:
.LBE6376:
.LBE6375:
.LBE6371:
.LBE6370:
.LBE6369:
.LBE6368:
.LBE6367:
	.loc 2 662 0
	movq	120(%rsp), %rax
	xorq	%fs:40, %rax
	je	.L544
	call	__stack_chk_fail@PLT
.LVL1654:
.L544:
	addq	$136, %rsp
	.cfi_def_cfa_offset 56
	popq	%rbx
	.cfi_def_cfa_offset 48
	popq	%rbp
	.cfi_def_cfa_offset 40
	popq	%r12
	.cfi_def_cfa_offset 32
.LVL1655:
	popq	%r13
	.cfi_def_cfa_offset 24
.LVL1656:
	popq	%r14
	.cfi_def_cfa_offset 16
.LVL1657:
	popq	%r15
	.cfi_def_cfa_offset 8
	ret
	.cfi_endproc
.LFE1173:
	.section	.gcc_except_table
.LLSDA1173:
	.byte	0xff
	.byte	0xff
	.byte	0x1
	.uleb128 .LLSDACSE1173-.LLSDACSB1173
.LLSDACSB1173:
	.uleb128 .LEHB95-.LFB1173
	.uleb128 .LEHE95-.LEHB95
	.uleb128 0
	.uleb128 0
	.uleb128 .LEHB96-.LFB1173
	.uleb128 .LEHE96-.LEHB96
	.uleb128 .L548-.LFB1173
	.uleb128 0
	.uleb128 .LEHB97-.LFB1173
	.uleb128 .LEHE97-.LEHB97
	.uleb128 .L547-.LFB1173
	.uleb128 0
	.uleb128 .LEHB98-.LFB1173
	.uleb128 .LEHE98-.LEHB98
	.uleb128 0
	.uleb128 0
	.uleb128 .LEHB99-.LFB1173
	.uleb128 .LEHE99-.LEHB99
	.uleb128 .L547-.LFB1173
	.uleb128 0
	.uleb128 .LEHB100-.LFB1173
	.uleb128 .LEHE100-.LEHB100
	.uleb128 0
	.uleb128 0
.LLSDACSE1173:
	.text
	.size	_ZN10UsbService19usb_interrupt_writeEiRN5Proto6PacketE, .-_ZN10UsbService19usb_interrupt_writeEiRN5Proto6PacketE
	.align 2
	.globl	_ZN10UsbService18usb_interrupt_readEiRN5Proto6PacketE
	.type	_ZN10UsbService18usb_interrupt_readEiRN5Proto6PacketE, @function
_ZN10UsbService18usb_interrupt_readEiRN5Proto6PacketE:
.LFB1174:
	.loc 2 665 0
	.cfi_startproc
	.cfi_personality 0x9b,DW.ref.__gxx_personality_v0
	.cfi_lsda 0x1b,.LLSDA1174
.LVL1658:
	pushq	%r15
	.cfi_def_cfa_offset 16
	.cfi_offset 15, -16
	pushq	%r14
	.cfi_def_cfa_offset 24
	.cfi_offset 14, -24
	pushq	%r13
	.cfi_def_cfa_offset 32
	.cfi_offset 13, -32
	pushq	%r12
	.cfi_def_cfa_offset 40
	.cfi_offset 12, -40
	pushq	%rbp
	.cfi_def_cfa_offset 48
	.cfi_offset 6, -48
	pushq	%rbx
	.cfi_def_cfa_offset 56
	.cfi_offset 3, -56
	subq	$136, %rsp
	.cfi_def_cfa_offset 192
	movq	%rdi, %rbx
	movl	%esi, 12(%rsp)
	.loc 2 665 0
	movq	%fs:40, %rax
	movq	%rax, 120(%rsp)
	xorl	%eax, %eax
.LVL1659:
.LBB6544:
.LBB6545:
	.loc 1 178 0
	movb	$0, 16(%rsp)
	movl	$0, 20(%rsp)
	movq	$0, 24(%rsp)
	movq	%rdx, 32(%rsp)
	movl	$0, 40(%rsp)
	.loc 1 180 0
	leaq	16(%rsp), %rdi
.LVL1660:
.LEHB101:
	call	_ZN5Proto8Iterator5enterEv@PLT
.LVL1661:
.LBE6545:
.LBE6544:
.LBB6546:
.LBB6547:
	.loc 1 213 0
	movl	20(%rsp), %eax
	cmpl	$1, %eax
	je	.L556
	cmpl	$2, %eax
	je	.L557
	jmp	.L588
.L556:
.LVL1662:
.LBB6548:
.LBB6549:
.LBB6550:
.LBB6551:
	.loc 1 257 0
	movq	24(%rsp), %rbp
.LVL1663:
	.loc 1 258 0
	leaq	16(%rsp), %rdi
.LVL1664:
	call	_ZN5Proto8Iterator4nextEv@PLT
.LVL1665:
.LBE6551:
.LBE6550:
.LBE6549:
.LBE6548:
	.loc 1 214 0
	movsbl	0(%rbp), %ebp
	jmp	.L558
.L557:
.LVL1666:
.LBB6552:
.LBB6553:
.LBB6554:
.LBB6555:
.LBB6556:
	.loc 1 257 0
	movq	24(%rsp), %rbp
.LVL1667:
	.loc 1 258 0
	leaq	16(%rsp), %rdi
.LVL1668:
	call	_ZN5Proto8Iterator4nextEv@PLT
.LVL1669:
.LBE6556:
.LBE6555:
	.loc 1 239 0
	movzwl	0(%rbp), %ebp
.LVL1670:
#APP
# 239 "./src/proto/protocol.hpp" 1
	rorw $8, %bp
# 0 "" 2
.LVL1671:
#NO_APP
.LBE6554:
.LBE6553:
.LBE6552:
	.loc 1 215 0
	movswl	%bp, %ebp
	jmp	.L558
.L588:
.LVL1672:
.LBB6557:
.LBB6558:
.LBB6559:
.LBB6560:
	.loc 1 257 0
	movq	24(%rsp), %rbp
.LVL1673:
	.loc 1 258 0
	leaq	16(%rsp), %rdi
.LVL1674:
	call	_ZN5Proto8Iterator4nextEv@PLT
.LVL1675:
.LBE6560:
.LBE6559:
.LBB6561:
.LBB6562:
	.loc 8 47 0
	movl	0(%rbp), %ebp
.LVL1676:
	bswap	%ebp
.LVL1677:
.L558:
.LBE6562:
.LBE6561:
.LBE6558:
.LBE6557:
.LBE6547:
.LBE6546:
.LBB6563:
.LBB6564:
	.loc 9 832 0
	movq	80(%rbx), %rax
.LVL1678:
.LBE6564:
.LBE6563:
.LBB6565:
.LBB6566:
	.loc 9 850 0
	leaq	80(%rbx), %rdi
.LVL1679:
.LBE6566:
.LBE6565:
	.loc 2 672 0
	cmpq	%rdi, %rax
	je	.L584
	.loc 2 673 0
	movq	16(%rax), %rbx
.LVL1680:
	cmpl	%ebp, (%rbx)
	jne	.L560
	jmp	.L559
.LVL1681:
.L561:
	movq	16(%rax), %rbx
	cmpl	%ebp, (%rbx)
	je	.L559
.LVL1682:
.L560:
.LBB6567:
.LBB6568:
	.loc 9 159 0
	movq	(%rax), %rax
.LVL1683:
.LBE6568:
.LBE6567:
	.loc 2 672 0
	cmpq	%rax, %rdi
	jne	.L561
	.loc 2 670 0
	movl	$0, %ebx
	jmp	.L559
.LVL1684:
.L584:
	movl	$0, %ebx
.LVL1685:
.L559:
.LBB6569:
.LBB6570:
	.loc 1 213 0
	movl	20(%rsp), %eax
.LVL1686:
	cmpl	$1, %eax
	je	.L563
	cmpl	$2, %eax
	je	.L564
	jmp	.L589
.L563:
.LVL1687:
.LBB6571:
.LBB6572:
.LBB6573:
.LBB6574:
	.loc 1 257 0
	movq	24(%rsp), %r12
.LVL1688:
	.loc 1 258 0
	leaq	16(%rsp), %rdi
.LVL1689:
	call	_ZN5Proto8Iterator4nextEv@PLT
.LVL1690:
.LBE6574:
.LBE6573:
.LBE6572:
.LBE6571:
	.loc 1 214 0
	movsbl	(%r12), %r14d
	jmp	.L565
.L564:
.LVL1691:
.LBB6575:
.LBB6576:
.LBB6577:
.LBB6578:
.LBB6579:
	.loc 1 257 0
	movq	24(%rsp), %r12
.LVL1692:
	.loc 1 258 0
	leaq	16(%rsp), %rdi
.LVL1693:
	call	_ZN5Proto8Iterator4nextEv@PLT
.LVL1694:
.LBE6579:
.LBE6578:
	.loc 1 239 0
	movzwl	(%r12), %r14d
#APP
# 239 "./src/proto/protocol.hpp" 1
	rorw $8, %r14w
# 0 "" 2
.LVL1695:
#NO_APP
.LBE6577:
.LBE6576:
.LBE6575:
	.loc 1 215 0
	movswl	%r14w, %r14d
	jmp	.L565
.L589:
.LVL1696:
.LBB6580:
.LBB6581:
.LBB6582:
.LBB6583:
	.loc 1 257 0
	movq	24(%rsp), %r12
.LVL1697:
	.loc 1 258 0
	leaq	16(%rsp), %rdi
.LVL1698:
	call	_ZN5Proto8Iterator4nextEv@PLT
.LVL1699:
.LBE6583:
.LBE6582:
.LBB6584:
.LBB6585:
	.loc 8 47 0
	movl	(%r12), %r14d
	bswap	%r14d
.LVL1700:
.L565:
.LBE6585:
.LBE6584:
.LBE6581:
.LBE6580:
.LBE6570:
.LBE6569:
.LBB6586:
.LBB6587:
	.loc 1 213 0
	movl	20(%rsp), %eax
	cmpl	$1, %eax
	je	.L567
	cmpl	$2, %eax
	je	.L568
	jmp	.L590
.L567:
.LVL1701:
.LBB6588:
.LBB6589:
.LBB6590:
.LBB6591:
	.loc 1 257 0
	movq	24(%rsp), %r12
.LVL1702:
	.loc 1 258 0
	leaq	16(%rsp), %rdi
.LVL1703:
	call	_ZN5Proto8Iterator4nextEv@PLT
.LVL1704:
.LBE6591:
.LBE6590:
.LBE6589:
.LBE6588:
	.loc 1 214 0
	movsbl	(%r12), %r12d
	jmp	.L569
.L568:
.LVL1705:
.LBB6592:
.LBB6593:
.LBB6594:
.LBB6595:
.LBB6596:
	.loc 1 257 0
	movq	24(%rsp), %r12
.LVL1706:
	.loc 1 258 0
	leaq	16(%rsp), %rdi
.LVL1707:
	call	_ZN5Proto8Iterator4nextEv@PLT
.LVL1708:
.LBE6596:
.LBE6595:
	.loc 1 239 0
	movzwl	(%r12), %r12d
.LVL1709:
#APP
# 239 "./src/proto/protocol.hpp" 1
	rorw $8, %r12w
# 0 "" 2
.LVL1710:
#NO_APP
.LBE6594:
.LBE6593:
.LBE6592:
	.loc 1 215 0
	movswl	%r12w, %r12d
	jmp	.L569
.L590:
.LVL1711:
.LBB6597:
.LBB6598:
.LBB6599:
.LBB6600:
	.loc 1 257 0
	movq	24(%rsp), %r12
.LVL1712:
	.loc 1 258 0
	leaq	16(%rsp), %rdi
.LVL1713:
	call	_ZN5Proto8Iterator4nextEv@PLT
.LVL1714:
.LBE6600:
.LBE6599:
.LBB6601:
.LBB6602:
	.loc 8 47 0
	movl	(%r12), %r12d
.LVL1715:
	bswap	%r12d
.LVL1716:
.L569:
.LBE6602:
.LBE6601:
.LBE6598:
.LBE6597:
.LBE6587:
.LBE6586:
.LBB6603:
.LBB6604:
	.loc 1 213 0
	movl	20(%rsp), %eax
	cmpl	$1, %eax
	je	.L571
	cmpl	$2, %eax
	je	.L572
	jmp	.L591
.L571:
.LVL1717:
.LBB6605:
.LBB6606:
.LBB6607:
.LBB6608:
	.loc 1 257 0
	movq	24(%rsp), %r13
.LVL1718:
	.loc 1 258 0
	leaq	16(%rsp), %rdi
.LVL1719:
	call	_ZN5Proto8Iterator4nextEv@PLT
.LVL1720:
.LBE6608:
.LBE6607:
.LBE6606:
.LBE6605:
	.loc 1 214 0
	movsbl	0(%r13), %r15d
	jmp	.L573
.L572:
.LVL1721:
.LBB6609:
.LBB6610:
.LBB6611:
.LBB6612:
.LBB6613:
	.loc 1 257 0
	movq	24(%rsp), %r13
.LVL1722:
	.loc 1 258 0
	leaq	16(%rsp), %rdi
.LVL1723:
	call	_ZN5Proto8Iterator4nextEv@PLT
.LVL1724:
.LBE6613:
.LBE6612:
	.loc 1 239 0
	movzwl	0(%r13), %r15d
#APP
# 239 "./src/proto/protocol.hpp" 1
	rorw $8, %r15w
# 0 "" 2
.LVL1725:
#NO_APP
.LBE6611:
.LBE6610:
.LBE6609:
	.loc 1 215 0
	movswl	%r15w, %r15d
	jmp	.L573
.L591:
.LVL1726:
.LBB6614:
.LBB6615:
.LBB6616:
.LBB6617:
	.loc 1 257 0
	movq	24(%rsp), %r13
.LVL1727:
	.loc 1 258 0
	leaq	16(%rsp), %rdi
.LVL1728:
	call	_ZN5Proto8Iterator4nextEv@PLT
.LVL1729:
.LBE6617:
.LBE6616:
.LBB6618:
.LBB6619:
	.loc 8 47 0
	movl	0(%r13), %r15d
	bswap	%r15d
.LVL1730:
.L573:
.LBE6619:
.LBE6618:
.LBE6615:
.LBE6614:
.LBE6604:
.LBE6603:
	.loc 2 685 0
	testq	%rbx, %rbx
	je	.L585
	testl	%r12d, %r12d
	jle	.L585
	.loc 2 688 0
	movslq	%r12d, %rdi
	call	_Znam@PLT
.LVL1731:
	movq	%rax, %r13
.LVL1732:
	.loc 2 689 0
	movl	%r15d, %r8d
	movl	%r12d, %ecx
	movq	%rax, %rdx
	movl	%r14d, %esi
	movq	%rbx, %rdi
	call	usb_interrupt_read@PLT
.LVL1733:
	movl	%eax, %ebx
.LVL1734:
	.loc 2 690 0
	call	log_level@PLT
.LVL1735:
	testb	$4, %al
	je	.L574
.LVL1736:
	.loc 2 690 0 discriminator 2
	movq	stderr@GOTPCREL(%rip), %r12
.LVL1737:
.LBB6620:
.LBB6621:
	.loc 3 98 0 discriminator 2
	leaq	_ZZN10UsbService18usb_interrupt_readEiRN5Proto6PacketEE8__func__(%rip), %rcx
	leaq	.LC0(%rip), %rdx
	movl	$1, %esi
	movq	(%r12), %rdi
	movl	$0, %eax
	call	__fprintf_chk@PLT
.LVL1738:
.LBE6621:
.LBE6620:
.LBB6622:
.LBB6623:
	movl	%ebx, %r8d
	movl	%ebp, %ecx
	leaq	.LC6(%rip), %rdx
	movl	$1, %esi
	movq	(%r12), %rdi
	movl	$0, %eax
	call	__fprintf_chk@PLT
.LVL1739:
.LBE6623:
.LBE6622:
.LBB6624:
.LBB6625:
	movq	(%r12), %rsi
	movl	$10, %edi
	call	fputc@PLT
.LVL1740:
	jmp	.L574
.LVL1741:
.L585:
.LBE6625:
.LBE6624:
	.loc 2 681 0
	movl	$0, %r13d
	.loc 2 680 0
	movl	$-1, %ebx
.LVL1742:
.L574:
.LBB6626:
.LBB6627:
	.loc 1 279 0
	leaq	48(%rsp), %rbp
.LVL1743:
	leaq	80(%rsp), %rsi
	movl	$0, %edx
	movq	%rbp, %rdi
	call	_ZN5Proto6StructC2ERNSt7__cxx1112basic_stringIcSt11char_traitsIcESaIcEEEi@PLT
.LVL1744:
.LEHE101:
	movq	_ZTVN5Proto6PacketE@GOTPCREL(%rip), %rax
	leaq	16(%rax), %rax
	movq	%rax, 48(%rsp)
.LVL1745:
.LBB6628:
.LBB6629:
.LBB6630:
	.loc 4 109 0
	addq	$48, %rbp
.LVL1746:
	movq	%rbp, 80(%rsp)
.LVL1747:
.LBE6630:
.LBE6629:
.LBB6631:
.LBB6632:
.LBB6633:
	.loc 4 131 0
	movq	$0, 88(%rsp)
.LVL1748:
.LBE6633:
.LBE6632:
.LBB6634:
.LBB6635:
	.loc 5 243 0
	movb	$0, 96(%rsp)
.LVL1749:
.LBE6635:
.LBE6634:
.LBE6631:
.LBE6628:
.LBB6636:
.LBB6637:
	.loc 1 91 0
	movslq	68(%rsp), %rsi
	movq	56(%rsp), %rdi
.LVL1750:
.LBB6638:
.LBB6639:
.LBB6640:
.LBB6641:
.LBB6642:
.LBB6643:
	.loc 4 716 0
	movq	8(%rdi), %rcx
.LVL1751:
.LBE6643:
.LBE6642:
	.loc 4 260 0
	cmpq	%rcx, %rsi
	jbe	.L575
	.loc 4 261 0
	movq	%rsi, %rdx
	leaq	.LC3(%rip), %rsi
.LVL1752:
	leaq	.LC4(%rip), %rdi
.LVL1753:
	movl	$0, %eax
.LEHB102:
	call	_ZSt24__throw_out_of_range_fmtPKcz@PLT
.LVL1754:
.L575:
.LBE6641:
.LBE6640:
	.loc 4 1418 0
	movl	$67, %r8d
	movl	$1, %ecx
	movl	$0, %edx
	call	_ZNSt7__cxx1112basic_stringIcSt11char_traitsIcESaIcEE14_M_replace_auxEmmmc@PLT
.LVL1755:
.LEHE102:
.LBE6639:
.LBE6638:
	.loc 1 92 0
	addl	$1, 72(%rsp)
	addl	$1, 68(%rsp)
.LVL1756:
.LBE6637:
.LBE6636:
.LBE6627:
.LBE6626:
.LBB6655:
.LBB6656:
	.loc 1 156 0
	leaq	48(%rsp), %rdi
.LVL1757:
	movl	%ebx, %ecx
	movl	$4, %edx
	movl	$2, %esi
.LEHB103:
	call	_ZN5Proto6Struct10addNumericEhhj@PLT
.LVL1758:
.LEHE103:
	jmp	.L592
.LVL1759:
.L587:
	movq	%rax, %rbx
.LVL1760:
.LBE6656:
.LBE6655:
.LBB6657:
.LBB6654:
.LBB6644:
.LBB6645:
.LBB6646:
.LBB6647:
.LBB6648:
.LBB6649:
	.loc 4 135 0
	movq	80(%rsp), %rdi
.LVL1761:
.LBE6649:
.LBE6648:
.LBE6647:
	.loc 4 179 0
	leaq	96(%rsp), %rax
	cmpq	%rax, %rdi
	je	.L578
.LVL1762:
.LBB6650:
.LBB6651:
.LBB6652:
.LBB6653:
	.loc 6 110 0
	call	_ZdlPv@PLT
.LVL1763:
.L578:
	movq	%rbx, %rdi
.LEHB104:
	call	_Unwind_Resume@PLT
.LVL1764:
.LEHE104:
.L592:
.LBE6653:
.LBE6652:
.LBE6651:
.LBE6650:
.LBE6646:
.LBE6645:
.LBE6644:
.LBE6654:
.LBE6657:
	.loc 2 696 0
	testl	%ebx, %ebx
	movl	$0, %edx
	cmovns	%ebx, %edx
	movslq	%edx, %rdx
	leaq	48(%rsp), %rdi
.LVL1765:
	movl	$4, %ecx
	movq	%r13, %rsi
.LEHB105:
	call	_ZN5Proto6Struct7addDataEPKcmh@PLT
.LVL1766:
	.loc 2 697 0
	leaq	48(%rsp), %rdi
.LVL1767:
	movl	12(%rsp), %esi
	call	_ZN5Proto6Packet4sendEi@PLT
.LVL1768:
.LEHE105:
	.loc 2 700 0
	testq	%r13, %r13
	je	.L579
	.loc 2 701 0
	movq	%r13, %rdi
	call	_ZdlPv@PLT
.LVL1769:
.L579:
.LBB6658:
.LBB6659:
	.loc 1 273 0
	movq	_ZTVN5Proto6PacketE@GOTPCREL(%rip), %rax
	leaq	16(%rax), %rax
	movq	%rax, 48(%rsp)
.LVL1770:
.LBB6660:
.LBB6661:
.LBB6662:
.LBB6663:
.LBB6664:
.LBB6665:
	.loc 4 135 0
	movq	80(%rsp), %rdi
.LVL1771:
.LBE6665:
.LBE6664:
.LBE6663:
	.loc 4 179 0
	leaq	96(%rsp), %rax
	cmpq	%rax, %rdi
	je	.L554
.LVL1772:
.LBB6666:
.LBB6667:
.LBB6668:
.LBB6669:
	.loc 6 110 0
	call	_ZdlPv@PLT
.LVL1773:
.LBE6669:
.LBE6668:
.LBE6667:
.LBE6666:
.LBE6662:
.LBE6661:
.LBE6660:
.LBE6659:
.LBE6658:
	.loc 2 702 0
	jmp	.L554
.LVL1774:
.L586:
	movq	%rax, %rbx
.LVL1775:
.LBB6670:
.LBB6671:
	.loc 1 273 0
	movq	_ZTVN5Proto6PacketE@GOTPCREL(%rip), %rax
	leaq	16(%rax), %rax
	movq	%rax, 48(%rsp)
.LVL1776:
.LBB6672:
.LBB6673:
.LBB6674:
.LBB6675:
.LBB6676:
.LBB6677:
	.loc 4 135 0
	movq	80(%rsp), %rdi
.LVL1777:
.LBE6677:
.LBE6676:
.LBE6675:
	.loc 4 179 0
	leaq	96(%rsp), %rax
	cmpq	%rax, %rdi
	je	.L582
.LVL1778:
.LBB6678:
.LBB6679:
.LBB6680:
.LBB6681:
	.loc 6 110 0
	call	_ZdlPv@PLT
.LVL1779:
.L582:
	movq	%rbx, %rdi
.LEHB106:
	call	_Unwind_Resume@PLT
.LVL1780:
.LEHE106:
.L554:
.LBE6681:
.LBE6680:
.LBE6679:
.LBE6678:
.LBE6674:
.LBE6673:
.LBE6672:
.LBE6671:
.LBE6670:
	.loc 2 702 0
	movq	120(%rsp), %rax
	xorq	%fs:40, %rax
	je	.L583
	call	__stack_chk_fail@PLT
.LVL1781:
.L583:
	addq	$136, %rsp
	.cfi_def_cfa_offset 56
	popq	%rbx
	.cfi_def_cfa_offset 48
.LVL1782:
	popq	%rbp
	.cfi_def_cfa_offset 40
.LVL1783:
	popq	%r12
	.cfi_def_cfa_offset 32
	popq	%r13
	.cfi_def_cfa_offset 24
.LVL1784:
	popq	%r14
	.cfi_def_cfa_offset 16
	popq	%r15
	.cfi_def_cfa_offset 8
	ret
	.cfi_endproc
.LFE1174:
	.section	.gcc_except_table
.LLSDA1174:
	.byte	0xff
	.byte	0xff
	.byte	0x1
	.uleb128 .LLSDACSE1174-.LLSDACSB1174
.LLSDACSB1174:
	.uleb128 .LEHB101-.LFB1174
	.uleb128 .LEHE101-.LEHB101
	.uleb128 0
	.uleb128 0
	.uleb128 .LEHB102-.LFB1174
	.uleb128 .LEHE102-.LEHB102
	.uleb128 .L587-.LFB1174
	.uleb128 0
	.uleb128 .LEHB103-.LFB1174
	.uleb128 .LEHE103-.LEHB103
	.uleb128 .L586-.LFB1174
	.uleb128 0
	.uleb128 .LEHB104-.LFB1174
	.uleb128 .LEHE104-.LEHB104
	.uleb128 0
	.uleb128 0
	.uleb128 .LEHB105-.LFB1174
	.uleb128 .LEHE105-.LEHB105
	.uleb128 .L586-.LFB1174
	.uleb128 0
	.uleb128 .LEHB106-.LFB1174
	.uleb128 .LEHE106-.LEHB106
	.uleb128 0
	.uleb128 0
.LLSDACSE1174:
	.text
	.size	_ZN10UsbService18usb_interrupt_readEiRN5Proto6PacketE, .-_ZN10UsbService18usb_interrupt_readEiRN5Proto6PacketE
	.section	.rodata.str1.8
	.align 8
.LC13:
	.string	"%s: unhandled call type: 0x%02x (socket fd %d)"
	.text
	.align 2
	.globl	_ZN10UsbService6handleEiRN5Proto6PacketE
	.type	_ZN10UsbService6handleEiRN5Proto6PacketE, @function
_ZN10UsbService6handleEiRN5Proto6PacketE:
.LFB1152:
	.loc 2 50 0
	.cfi_startproc
.LVL1785:
	pushq	%r12
	.cfi_def_cfa_offset 16
	.cfi_offset 12, -16
	pushq	%rbp
	.cfi_def_cfa_offset 24
	.cfi_offset 6, -24
	pushq	%rbx
	.cfi_def_cfa_offset 32
	.cfi_offset 3, -32
	movq	%rdi, %r12
	movl	%esi, %ebp
	movq	%rdx, %rbx
	.loc 2 52 0
	movq	(%rdx), %rax
	movq	%rdx, %rdi
.LVL1786:
	call	*(%rax)
.LVL1787:
	testq	%rax, %rax
	je	.L619
.LVL1788:
.LBB6682:
.LBB6683:
.LBB6684:
.LBB6685:
	.loc 4 892 0
	cmpq	$0, 40(%rbx)
	jne	.L596
	.loc 4 893 0
	movl	$0, %edx
	movl	$0, %esi
	leaq	.LC10(%rip), %rdi
	movl	$0, %eax
	call	_ZSt24__throw_out_of_range_fmtPKcz@PLT
.LVL1789:
.L596:
.LBE6685:
.LBE6684:
	.loc 1 287 0
	movq	32(%rbx), %rax
.LBE6683:
.LBE6682:
	.loc 2 56 0
	movzbl	(%rax), %eax
	subl	$49, %eax
	cmpb	$19, %al
	ja	.L597
	movzbl	%al, %eax
	leaq	.L599(%rip), %rdx
	movslq	(%rdx,%rax,4), %rax
	addq	%rax, %rdx
	jmp	*%rdx
	.section	.rodata
	.align 4
	.align 4
.L599:
	.long	.L598-.L599
	.long	.L600-.L599
	.long	.L601-.L599
	.long	.L597-.L599
	.long	.L602-.L599
	.long	.L603-.L599
	.long	.L604-.L599
	.long	.L605-.L599
	.long	.L606-.L599
	.long	.L607-.L599
	.long	.L608-.L599
	.long	.L609-.L599
	.long	.L610-.L599
	.long	.L611-.L599
	.long	.L612-.L599
	.long	.L613-.L599
	.long	.L614-.L599
	.long	.L615-.L599
	.long	.L616-.L599
	.long	.L617-.L599
	.text
.L598:
	.loc 2 58 0
	movq	%rbx, %rdx
	movl	%ebp, %esi
	movq	%r12, %rdi
	call	_ZN10UsbService8usb_initEiRN5Proto6PacketE@PLT
.LVL1790:
	.loc 2 83 0
	movl	$1, %eax
	.loc 2 58 0
	jmp	.L595
.L600:
	.loc 2 59 0
	movq	%rbx, %rdx
	movl	%ebp, %esi
	movq	%r12, %rdi
	call	_ZN10UsbService15usb_find_bussesEiRN5Proto6PacketE@PLT
.LVL1791:
	.loc 2 83 0
	movl	$1, %eax
	.loc 2 59 0
	jmp	.L595
.L601:
	.loc 2 60 0
	movq	%rbx, %rdx
	movl	%ebp, %esi
	movq	%r12, %rdi
	call	_ZN10UsbService16usb_find_devicesEiRN5Proto6PacketE@PLT
.LVL1792:
	.loc 2 83 0
	movl	$1, %eax
	.loc 2 60 0
	jmp	.L595
.L602:
	.loc 2 61 0
	movq	%rbx, %rdx
	movl	%ebp, %esi
	movq	%r12, %rdi
	call	_ZN10UsbService8usb_openEiRN5Proto6PacketE@PLT
.LVL1793:
	.loc 2 83 0
	movl	$1, %eax
	.loc 2 61 0
	jmp	.L595
.L603:
	.loc 2 62 0
	movq	%rbx, %rdx
	movl	%ebp, %esi
	movq	%r12, %rdi
	call	_ZN10UsbService9usb_closeEiRN5Proto6PacketE@PLT
.LVL1794:
	.loc 2 83 0
	movl	$1, %eax
	.loc 2 62 0
	jmp	.L595
.L604:
	.loc 2 63 0
	movq	%rbx, %rdx
	movl	%ebp, %esi
	movq	%r12, %rdi
	call	_ZN10UsbService15usb_control_msgEiRN5Proto6PacketE@PLT
.LVL1795:
	.loc 2 83 0
	movl	$1, %eax
	.loc 2 63 0
	jmp	.L595
.L605:
	.loc 2 64 0
	movq	%rbx, %rdx
	movl	%ebp, %esi
	movq	%r12, %rdi
	call	_ZN10UsbService19usb_claim_interfaceEiRN5Proto6PacketE@PLT
.LVL1796:
	.loc 2 83 0
	movl	$1, %eax
	.loc 2 64 0
	jmp	.L595
.L606:
	.loc 2 65 0
	movq	%rbx, %rdx
	movl	%ebp, %esi
	movq	%r12, %rdi
	call	_ZN10UsbService21usb_release_interfaceEiRN5Proto6PacketE@PLT
.LVL1797:
	.loc 2 83 0
	movl	$1, %eax
	.loc 2 65 0
	jmp	.L595
.L607:
	.loc 2 66 0
	movq	%rbx, %rdx
	movl	%ebp, %esi
	movq	%r12, %rdi
	call	_ZN10UsbService21usb_get_kernel_driverEiRN5Proto6PacketE@PLT
.LVL1798:
	.loc 2 83 0
	movl	$1, %eax
	.loc 2 66 0
	jmp	.L595
.L608:
	.loc 2 67 0
	movq	%rbx, %rdx
	movl	%ebp, %esi
	movq	%r12, %rdi
	call	_ZN10UsbService24usb_detach_kernel_driverEiRN5Proto6PacketE@PLT
.LVL1799:
	.loc 2 83 0
	movl	$1, %eax
	.loc 2 67 0
	jmp	.L595
.L609:
	.loc 2 68 0
	movq	%rbx, %rdx
	movl	%ebp, %esi
	movq	%r12, %rdi
	call	_ZN10UsbService13usb_bulk_readEiRN5Proto6PacketE@PLT
.LVL1800:
	.loc 2 83 0
	movl	$1, %eax
	.loc 2 68 0
	jmp	.L595
.L610:
	.loc 2 69 0
	movq	%rbx, %rdx
	movl	%ebp, %esi
	movq	%r12, %rdi
	call	_ZN10UsbService14usb_bulk_writeEiRN5Proto6PacketE@PLT
.LVL1801:
	.loc 2 83 0
	movl	$1, %eax
	.loc 2 69 0
	jmp	.L595
.L611:
	.loc 2 70 0
	movq	%rbx, %rdx
	movl	%ebp, %esi
	movq	%r12, %rdi
	call	_ZN10UsbService21usb_set_configurationEiRN5Proto6PacketE@PLT
.LVL1802:
	.loc 2 83 0
	movl	$1, %eax
	.loc 2 70 0
	jmp	.L595
.L612:
	.loc 2 71 0
	movq	%rbx, %rdx
	movl	%ebp, %esi
	movq	%r12, %rdi
	call	_ZN10UsbService20usb_set_altinterfaceEiRN5Proto6PacketE@PLT
.LVL1803:
	.loc 2 83 0
	movl	$1, %eax
	.loc 2 71 0
	jmp	.L595
.L613:
	.loc 2 72 0
	movq	%rbx, %rdx
	movl	%ebp, %esi
	movq	%r12, %rdi
	call	_ZN10UsbService11usb_resetepEiRN5Proto6PacketE@PLT
.LVL1804:
	.loc 2 83 0
	movl	$1, %eax
	.loc 2 72 0
	jmp	.L595
.L614:
	.loc 2 73 0
	movq	%rbx, %rdx
	movl	%ebp, %esi
	movq	%r12, %rdi
	call	_ZN10UsbService14usb_clear_haltEiRN5Proto6PacketE@PLT
.LVL1805:
	.loc 2 83 0
	movl	$1, %eax
	.loc 2 73 0
	jmp	.L595
.L615:
	.loc 2 74 0
	movq	%rbx, %rdx
	movl	%ebp, %esi
	movq	%r12, %rdi
	call	_ZN10UsbService9usb_resetEiRN5Proto6PacketE@PLT
.LVL1806:
	.loc 2 83 0
	movl	$1, %eax
	.loc 2 74 0
	jmp	.L595
.L617:
	.loc 2 75 0
	movq	%rbx, %rdx
	movl	%ebp, %esi
	movq	%r12, %rdi
	call	_ZN10UsbService19usb_interrupt_writeEiRN5Proto6PacketE@PLT
.LVL1807:
	.loc 2 83 0
	movl	$1, %eax
	.loc 2 75 0
	jmp	.L595
.L616:
	.loc 2 76 0
	movq	%rbx, %rdx
	movl	%ebp, %esi
	movq	%r12, %rdi
	call	_ZN10UsbService18usb_interrupt_readEiRN5Proto6PacketE@PLT
.LVL1808:
	.loc 2 83 0
	movl	$1, %eax
	.loc 2 76 0
	jmp	.L595
.L597:
	.loc 2 78 0
	call	log_level@PLT
.LVL1809:
	testb	$2, %al
	je	.L620
.LVL1810:
.LBB6686:
.LBB6687:
.LBB6688:
.LBB6689:
	.loc 4 892 0
	cmpq	$0, 40(%rbx)
	jne	.L618
	.loc 4 893 0
	movl	$0, %edx
	movl	$0, %esi
	leaq	.LC10(%rip), %rdi
	movl	$0, %eax
	call	_ZSt24__throw_out_of_range_fmtPKcz@PLT
.LVL1811:
.L618:
.LBE6689:
.LBE6688:
	.loc 1 287 0
	movq	32(%rbx), %rax
.LBE6687:
.LBE6686:
.LBB6690:
.LBB6691:
	.loc 3 104 0
	movzbl	(%rax), %ecx
	movl	%ebp, %r8d
	leaq	_ZZN10UsbService6handleEiRN5Proto6PacketEE8__func__(%rip), %rdx
	leaq	.LC13(%rip), %rsi
	movl	$1, %edi
	movl	$0, %eax
	call	__printf_chk@PLT
.LVL1812:
.LBE6691:
.LBE6690:
.LBB6692:
.LBB6693:
	movl	$10, %edi
	call	putchar@PLT
.LVL1813:
.LBE6693:
.LBE6692:
	.loc 2 79 0
	movl	$0, %eax
	jmp	.L595
.LVL1814:
.L619:
	.loc 2 53 0
	movl	$0, %eax
	jmp	.L595
.L620:
	.loc 2 79 0
	movl	$0, %eax
.L595:
	.loc 2 84 0
	popq	%rbx
	.cfi_def_cfa_offset 24
.LVL1815:
	popq	%rbp
	.cfi_def_cfa_offset 16
.LVL1816:
	popq	%r12
	.cfi_def_cfa_offset 8
.LVL1817:
	ret
	.cfi_endproc
.LFE1152:
	.size	_ZN10UsbService6handleEiRN5Proto6PacketE, .-_ZN10UsbService6handleEiRN5Proto6PacketE
	.section	.text._ZNSt7__cxx1110_List_baseIP14usb_dev_handleSaIS2_EE8_M_clearEv,"axG",@progbits,_ZNSt7__cxx1110_List_baseIP14usb_dev_handleSaIS2_EE8_M_clearEv,comdat
	.align 2
	.weak	_ZNSt7__cxx1110_List_baseIP14usb_dev_handleSaIS2_EE8_M_clearEv
	.type	_ZNSt7__cxx1110_List_baseIP14usb_dev_handleSaIS2_EE8_M_clearEv, @function
_ZNSt7__cxx1110_List_baseIP14usb_dev_handleSaIS2_EE8_M_clearEv:
.LFB1235:
	.file 10 "/usr/include/c++/5/bits/list.tcc"
	.loc 10 65 0
	.cfi_startproc
.LVL1818:
	pushq	%rbp
	.cfi_def_cfa_offset 16
	.cfi_offset 6, -16
	pushq	%rbx
	.cfi_def_cfa_offset 24
	.cfi_offset 3, -24
	subq	$8, %rsp
	.cfi_def_cfa_offset 32
	movq	%rdi, %rax
	.loc 10 69 0
	movq	(%rdi), %rdi
.LVL1819:
	.loc 10 70 0
	movq	%rax, %rbp
	cmpq	%rax, %rdi
	je	.L622
.LVL1820:
.L625:
.LBB6694:
	.loc 10 73 0
	movq	(%rdi), %rbx
.LVL1821:
.LBB6695:
.LBB6696:
.LBB6697:
	.loc 6 110 0
	call	_ZdlPv@PLT
.LVL1822:
.LBE6697:
.LBE6696:
.LBE6695:
	.loc 10 73 0
	movq	%rbx, %rdi
.LBE6694:
	.loc 10 70 0
	cmpq	%rbp, %rbx
	jne	.L625
.LVL1823:
.L622:
	.loc 10 81 0
	addq	$8, %rsp
	.cfi_def_cfa_offset 24
	popq	%rbx
	.cfi_def_cfa_offset 16
	popq	%rbp
	.cfi_def_cfa_offset 8
.LVL1824:
	ret
	.cfi_endproc
.LFE1235:
	.size	_ZNSt7__cxx1110_List_baseIP14usb_dev_handleSaIS2_EE8_M_clearEv, .-_ZNSt7__cxx1110_List_baseIP14usb_dev_handleSaIS2_EE8_M_clearEv
	.section	.rodata.str1.1
.LC14:
	.string	"UsbService: open device "
	.text
	.align 2
	.globl	_ZN10UsbServiceC2Ei
	.type	_ZN10UsbServiceC2Ei, @function
_ZN10UsbServiceC2Ei:
.LFB1146:
	.loc 2 29 0
	.cfi_startproc
	.cfi_personality 0x9b,DW.ref.__gxx_personality_v0
	.cfi_lsda 0x1b,.LLSDA1146
.LVL1825:
	pushq	%r12
	.cfi_def_cfa_offset 16
	.cfi_offset 12, -16
	pushq	%rbp
	.cfi_def_cfa_offset 24
	.cfi_offset 6, -24
	pushq	%rbx
	.cfi_def_cfa_offset 32
	.cfi_offset 3, -32
	subq	$16, %rsp
	.cfi_def_cfa_offset 48
	movq	%rdi, %rbx
	movl	%esi, %r12d
	.loc 2 29 0
	movq	%fs:40, %rax
	movq	%rax, 8(%rsp)
	xorl	%eax, %eax
.LEHB107:
.LBB6698:
	.loc 2 30 0
	call	_ZN12ServerSocketC2Ei@PLT
.LVL1826:
.LEHE107:
	movq	_ZTV10UsbService@GOTPCREL(%rip), %rax
	leaq	16(%rax), %rax
	movq	%rax, (%rbx)
.LVL1827:
.LBB6699:
.LBB6700:
.LBB6701:
.LBB6702:
	.loc 9 342 0
	movq	$0, 96(%rbx)
.LVL1828:
.LBE6702:
.LBE6701:
.LBB6703:
.LBB6704:
	.loc 9 454 0
	leaq	80(%rbx), %rbp
	movq	%rbp, 80(%rbx)
	.loc 9 455 0
	movq	%rbp, 88(%rbx)
.LVL1829:
.LBE6704:
.LBE6703:
.LBE6700:
.LBE6699:
.LBB6705:
	.loc 2 33 0
	movl	$1, 4(%rsp)
	.loc 2 34 0
	leaq	4(%rsp), %rcx
	movl	$4, %r8d
	movl	$1, %edx
	movl	$6, %esi
	movl	%r12d, %edi
	call	setsockopt@PLT
.LVL1830:
.LEHB108:
	.loc 2 35 0
	call	log_level@PLT
.LVL1831:
	testb	$2, %al
	je	.L628
.LVL1832:
.LBB6706:
.LBB6707:
	.loc 3 104 0
	leaq	.LC14(%rip), %rsi
	movl	$1, %edi
	movl	$0, %eax
	call	__printf_chk@PLT
.LVL1833:
.LBE6707:
.LBE6706:
.LBB6708:
.LBB6709:
	movl	$10, %edi
	call	putchar@PLT
.LVL1834:
.LEHE108:
	jmp	.L628
.LVL1835:
.L632:
	movq	%rax, %r12
.LVL1836:
.LBE6709:
.LBE6708:
.LBE6705:
.LBB6710:
.LBB6711:
.LBB6712:
	.loc 9 446 0
	movq	%rbp, %rdi
	call	_ZNSt7__cxx1110_List_baseIP14usb_dev_handleSaIS2_EE8_M_clearEv@PLT
.LVL1837:
.LBE6712:
.LBE6711:
.LBE6710:
	.loc 2 30 0
	movq	%rbx, %rdi
	call	_ZN12ServerSocketD2Ev@PLT
.LVL1838:
	movq	%r12, %rdi
.LEHB109:
	call	_Unwind_Resume@PLT
.LVL1839:
.LEHE109:
.L628:
.LBE6698:
	.loc 2 36 0
	movq	8(%rsp), %rax
	xorq	%fs:40, %rax
	je	.L631
	call	__stack_chk_fail@PLT
.LVL1840:
.L631:
	addq	$16, %rsp
	.cfi_def_cfa_offset 32
	popq	%rbx
	.cfi_def_cfa_offset 24
.LVL1841:
	popq	%rbp
	.cfi_def_cfa_offset 16
.LVL1842:
	popq	%r12
	.cfi_def_cfa_offset 8
.LVL1843:
	ret
	.cfi_endproc
.LFE1146:
	.section	.gcc_except_table
.LLSDA1146:
	.byte	0xff
	.byte	0xff
	.byte	0x1
	.uleb128 .LLSDACSE1146-.LLSDACSB1146
.LLSDACSB1146:
	.uleb128 .LEHB107-.LFB1146
	.uleb128 .LEHE107-.LEHB107
	.uleb128 0
	.uleb128 0
	.uleb128 .LEHB108-.LFB1146
	.uleb128 .LEHE108-.LEHB108
	.uleb128 .L632-.LFB1146
	.uleb128 0
	.uleb128 .LEHB109-.LFB1146
	.uleb128 .LEHE109-.LEHB109
	.uleb128 0
	.uleb128 0
.LLSDACSE1146:
	.text
	.size	_ZN10UsbServiceC2Ei, .-_ZN10UsbServiceC2Ei
	.globl	_ZN10UsbServiceC1Ei
	.set	_ZN10UsbServiceC1Ei,_ZN10UsbServiceC2Ei
	.section	.rodata.str1.8
	.align 8
.LC15:
	.string	"UsbService: closing open device %p"
	.text
	.align 2
	.globl	_ZN10UsbServiceD2Ev
	.type	_ZN10UsbServiceD2Ev, @function
_ZN10UsbServiceD2Ev:
.LFB1149:
	.loc 2 38 0
	.cfi_startproc
	.cfi_personality 0x9b,DW.ref.__gxx_personality_v0
	.cfi_lsda 0x1b,.LLSDA1149
.LVL1844:
	pushq	%r13
	.cfi_def_cfa_offset 16
	.cfi_offset 13, -16
	pushq	%r12
	.cfi_def_cfa_offset 24
	.cfi_offset 12, -24
	pushq	%rbp
	.cfi_def_cfa_offset 32
	.cfi_offset 6, -32
	pushq	%rbx
	.cfi_def_cfa_offset 40
	.cfi_offset 3, -40
	subq	$8, %rsp
	.cfi_def_cfa_offset 48
	movq	%rdi, %r13
.LBB6713:
	.loc 2 38 0
	movq	_ZTV10UsbService@GOTPCREL(%rip), %rax
	leaq	16(%rax), %rax
	movq	%rax, (%rdi)
.LVL1845:
.LBB6714:
.LBB6715:
.LBB6716:
	.loc 9 832 0
	movq	80(%rdi), %rbx
.LVL1846:
.LBE6716:
.LBE6715:
.LBB6717:
.LBB6718:
	.loc 9 850 0
	leaq	80(%rdi), %rbp
.LVL1847:
.LBE6718:
.LBE6717:
	.loc 2 42 0
	cmpq	%rbp, %rbx
	je	.L635
.LBB6719:
.LBB6720:
	.loc 3 104 0
	leaq	.LC15(%rip), %r12
.LVL1848:
.L640:
.LEHB110:
.LBE6720:
.LBE6719:
	.loc 2 43 0
	call	log_level@PLT
.LVL1849:
	testb	$2, %al
	je	.L636
.LVL1850:
.LBB6722:
.LBB6721:
	.loc 3 104 0
	movq	16(%rbx), %rdx
	movq	%r12, %rsi
	movl	$1, %edi
	movl	$0, %eax
	call	__printf_chk@PLT
.LVL1851:
.LBE6721:
.LBE6722:
.LBB6723:
.LBB6724:
	movl	$10, %edi
	call	putchar@PLT
.LVL1852:
.L636:
.LBE6724:
.LBE6723:
	.loc 2 44 0
	movq	16(%rbx), %rdi
	call	usb_close@PLT
.LVL1853:
.LEHE110:
.LBB6725:
.LBB6726:
	.loc 9 159 0
	movq	(%rbx), %rbx
.LVL1854:
.LBE6726:
.LBE6725:
	.loc 2 42 0
	cmpq	%rbp, %rbx
	jne	.L640
.LVL1855:
.L635:
.LBB6727:
.LBB6728:
	.loc 9 1368 0
	movq	%rbp, %rdi
	call	_ZNSt7__cxx1110_List_baseIP14usb_dev_handleSaIS2_EE8_M_clearEv@PLT
.LVL1856:
.LBB6729:
.LBB6730:
	.loc 9 454 0
	movq	%rbp, 80(%r13)
	.loc 9 455 0
	movq	%rbp, 88(%r13)
.LVL1857:
.LBB6731:
.LBB6732:
	.loc 9 361 0
	movq	$0, 96(%r13)
.LVL1858:
.LBE6732:
.LBE6731:
.LBE6730:
.LBE6729:
.LBE6728:
.LBE6727:
.LBE6714:
.LBB6733:
.LBB6734:
.LBB6735:
	.loc 9 446 0
	movq	%rbp, %rdi
	call	_ZNSt7__cxx1110_List_baseIP14usb_dev_handleSaIS2_EE8_M_clearEv@PLT
.LVL1859:
.LBE6735:
.LBE6734:
.LBE6733:
	.loc 2 38 0
	movq	%r13, %rdi
.LEHB111:
	call	_ZN12ServerSocketD2Ev@PLT
.LVL1860:
.LEHE111:
.LBE6713:
	.loc 2 47 0
	jmp	.L642
.LVL1861:
.L639:
	movq	%rax, %rbx
.LVL1862:
.LBB6739:
.LBB6736:
.LBB6737:
.LBB6738:
	.loc 9 446 0
	movq	%rbp, %rdi
	call	_ZNSt7__cxx1110_List_baseIP14usb_dev_handleSaIS2_EE8_M_clearEv@PLT
.LVL1863:
.LBE6738:
.LBE6737:
.LBE6736:
	.loc 2 38 0
	movq	%r13, %rdi
	call	_ZN12ServerSocketD2Ev@PLT
.LVL1864:
	movq	%rbx, %rdi
.LEHB112:
	call	_Unwind_Resume@PLT
.LVL1865:
.LEHE112:
.L642:
.LBE6739:
	.loc 2 47 0
	addq	$8, %rsp
	.cfi_def_cfa_offset 40
	popq	%rbx
	.cfi_def_cfa_offset 32
	popq	%rbp
	.cfi_def_cfa_offset 24
	popq	%r12
	.cfi_def_cfa_offset 16
	popq	%r13
	.cfi_def_cfa_offset 8
.LVL1866:
	ret
	.cfi_endproc
.LFE1149:
	.section	.gcc_except_table
.LLSDA1149:
	.byte	0xff
	.byte	0xff
	.byte	0x1
	.uleb128 .LLSDACSE1149-.LLSDACSB1149
.LLSDACSB1149:
	.uleb128 .LEHB110-.LFB1149
	.uleb128 .LEHE110-.LEHB110
	.uleb128 .L639-.LFB1149
	.uleb128 0
	.uleb128 .LEHB111-.LFB1149
	.uleb128 .LEHE111-.LEHB111
	.uleb128 0
	.uleb128 0
	.uleb128 .LEHB112-.LFB1149
	.uleb128 .LEHE112-.LEHB112
	.uleb128 0
	.uleb128 0
.LLSDACSE1149:
	.text
	.size	_ZN10UsbServiceD2Ev, .-_ZN10UsbServiceD2Ev
	.globl	_ZN10UsbServiceD1Ev
	.set	_ZN10UsbServiceD1Ev,_ZN10UsbServiceD2Ev
	.align 2
	.globl	_ZN10UsbServiceD0Ev
	.type	_ZN10UsbServiceD0Ev, @function
_ZN10UsbServiceD0Ev:
.LFB1151:
	.loc 2 38 0
	.cfi_startproc
.LVL1867:
	pushq	%rbx
	.cfi_def_cfa_offset 16
	.cfi_offset 3, -16
	movq	%rdi, %rbx
	.loc 2 47 0
	call	_ZN10UsbServiceD1Ev@PLT
.LVL1868:
	movq	%rbx, %rdi
	call	_ZdlPv@PLT
.LVL1869:
	popq	%rbx
	.cfi_def_cfa_offset 8
.LVL1870:
	ret
	.cfi_endproc
.LFE1151:
	.size	_ZN10UsbServiceD0Ev, .-_ZN10UsbServiceD0Ev
	.section	.rodata
	.align 16
	.type	_ZZN10UsbService18usb_interrupt_readEiRN5Proto6PacketEE8__func__, @object
	.size	_ZZN10UsbService18usb_interrupt_readEiRN5Proto6PacketEE8__func__, 19
_ZZN10UsbService18usb_interrupt_readEiRN5Proto6PacketEE8__func__:
	.string	"usb_interrupt_read"
	.align 16
	.type	_ZZN10UsbService19usb_interrupt_writeEiRN5Proto6PacketEE8__func__, @object
	.size	_ZZN10UsbService19usb_interrupt_writeEiRN5Proto6PacketEE8__func__, 20
_ZZN10UsbService19usb_interrupt_writeEiRN5Proto6PacketEE8__func__:
	.string	"usb_interrupt_write"
	.align 8
	.type	_ZZN10UsbService14usb_bulk_writeEiRN5Proto6PacketEE8__func__, @object
	.size	_ZZN10UsbService14usb_bulk_writeEiRN5Proto6PacketEE8__func__, 15
_ZZN10UsbService14usb_bulk_writeEiRN5Proto6PacketEE8__func__:
	.string	"usb_bulk_write"
	.align 8
	.type	_ZZN10UsbService13usb_bulk_readEiRN5Proto6PacketEE8__func__, @object
	.size	_ZZN10UsbService13usb_bulk_readEiRN5Proto6PacketEE8__func__, 14
_ZZN10UsbService13usb_bulk_readEiRN5Proto6PacketEE8__func__:
	.string	"usb_bulk_read"
	.align 16
	.type	_ZZN10UsbService15usb_control_msgEiRN5Proto6PacketEE8__func__, @object
	.size	_ZZN10UsbService15usb_control_msgEiRN5Proto6PacketEE8__func__, 16
_ZZN10UsbService15usb_control_msgEiRN5Proto6PacketEE8__func__:
	.string	"usb_control_msg"
	.align 16
	.type	_ZZN10UsbService24usb_detach_kernel_driverEiRN5Proto6PacketEE8__func__, @object
	.size	_ZZN10UsbService24usb_detach_kernel_driverEiRN5Proto6PacketEE8__func__, 25
_ZZN10UsbService24usb_detach_kernel_driverEiRN5Proto6PacketEE8__func__:
	.string	"usb_detach_kernel_driver"
	.align 16
	.type	_ZZN10UsbService21usb_get_kernel_driverEiRN5Proto6PacketEE8__func__, @object
	.size	_ZZN10UsbService21usb_get_kernel_driverEiRN5Proto6PacketEE8__func__, 22
_ZZN10UsbService21usb_get_kernel_driverEiRN5Proto6PacketEE8__func__:
	.string	"usb_get_kernel_driver"
	.align 16
	.type	_ZZN10UsbService21usb_release_interfaceEiRN5Proto6PacketEE8__func__, @object
	.size	_ZZN10UsbService21usb_release_interfaceEiRN5Proto6PacketEE8__func__, 22
_ZZN10UsbService21usb_release_interfaceEiRN5Proto6PacketEE8__func__:
	.string	"usb_release_interface"
	.align 16
	.type	_ZZN10UsbService19usb_claim_interfaceEiRN5Proto6PacketEE8__func__, @object
	.size	_ZZN10UsbService19usb_claim_interfaceEiRN5Proto6PacketEE8__func__, 20
_ZZN10UsbService19usb_claim_interfaceEiRN5Proto6PacketEE8__func__:
	.string	"usb_claim_interface"
	.align 8
	.type	_ZZN10UsbService9usb_resetEiRN5Proto6PacketEE8__func__, @object
	.size	_ZZN10UsbService9usb_resetEiRN5Proto6PacketEE8__func__, 10
_ZZN10UsbService9usb_resetEiRN5Proto6PacketEE8__func__:
	.string	"usb_reset"
	.align 8
	.type	_ZZN10UsbService14usb_clear_haltEiRN5Proto6PacketEE8__func__, @object
	.size	_ZZN10UsbService14usb_clear_haltEiRN5Proto6PacketEE8__func__, 15
_ZZN10UsbService14usb_clear_haltEiRN5Proto6PacketEE8__func__:
	.string	"usb_clear_halt"
	.align 8
	.type	_ZZN10UsbService11usb_resetepEiRN5Proto6PacketEE8__func__, @object
	.size	_ZZN10UsbService11usb_resetepEiRN5Proto6PacketEE8__func__, 12
_ZZN10UsbService11usb_resetepEiRN5Proto6PacketEE8__func__:
	.string	"usb_resetep"
	.align 16
	.type	_ZZN10UsbService20usb_set_altinterfaceEiRN5Proto6PacketEE8__func__, @object
	.size	_ZZN10UsbService20usb_set_altinterfaceEiRN5Proto6PacketEE8__func__, 21
_ZZN10UsbService20usb_set_altinterfaceEiRN5Proto6PacketEE8__func__:
	.string	"usb_set_altinterface"
	.align 16
	.type	_ZZN10UsbService21usb_set_configurationEiRN5Proto6PacketEE8__func__, @object
	.size	_ZZN10UsbService21usb_set_configurationEiRN5Proto6PacketEE8__func__, 22
_ZZN10UsbService21usb_set_configurationEiRN5Proto6PacketEE8__func__:
	.string	"usb_set_configuration"
	.align 8
	.type	_ZZN10UsbService9usb_closeEiRN5Proto6PacketEE8__func__, @object
	.size	_ZZN10UsbService9usb_closeEiRN5Proto6PacketEE8__func__, 10
_ZZN10UsbService9usb_closeEiRN5Proto6PacketEE8__func__:
	.string	"usb_close"
	.align 8
	.type	_ZZN10UsbService8usb_openEiRN5Proto6PacketEE8__func__, @object
	.size	_ZZN10UsbService8usb_openEiRN5Proto6PacketEE8__func__, 9
_ZZN10UsbService8usb_openEiRN5Proto6PacketEE8__func__:
	.string	"usb_open"
	.align 16
	.type	_ZZN10UsbService16usb_find_devicesEiRN5Proto6PacketEE8__func__, @object
	.size	_ZZN10UsbService16usb_find_devicesEiRN5Proto6PacketEE8__func__, 17
_ZZN10UsbService16usb_find_devicesEiRN5Proto6PacketEE8__func__:
	.string	"usb_find_devices"
	.align 16
	.type	_ZZN10UsbService15usb_find_bussesEiRN5Proto6PacketEE8__func__, @object
	.size	_ZZN10UsbService15usb_find_bussesEiRN5Proto6PacketEE8__func__, 16
_ZZN10UsbService15usb_find_bussesEiRN5Proto6PacketEE8__func__:
	.string	"usb_find_busses"
	.align 8
	.type	_ZZN10UsbService8usb_initEiRN5Proto6PacketEE8__func__, @object
	.size	_ZZN10UsbService8usb_initEiRN5Proto6PacketEE8__func__, 9
_ZZN10UsbService8usb_initEiRN5Proto6PacketEE8__func__:
	.string	"usb_init"
	.type	_ZZN10UsbService6handleEiRN5Proto6PacketEE8__func__, @object
	.size	_ZZN10UsbService6handleEiRN5Proto6PacketEE8__func__, 7
_ZZN10UsbService6handleEiRN5Proto6PacketEE8__func__:
	.string	"handle"
	.weak	_ZTSN5Proto6StructE
	.section	.rodata._ZTSN5Proto6StructE,"aG",@progbits,_ZTSN5Proto6StructE,comdat
	.align 16
	.type	_ZTSN5Proto6StructE, @object
	.size	_ZTSN5Proto6StructE, 16
_ZTSN5Proto6StructE:
	.string	"N5Proto6StructE"
	.weak	_ZTIN5Proto6StructE
	.section	.data.rel.ro._ZTIN5Proto6StructE,"awG",@progbits,_ZTIN5Proto6StructE,comdat
	.align 8
	.type	_ZTIN5Proto6StructE, @object
	.size	_ZTIN5Proto6StructE, 16
_ZTIN5Proto6StructE:
	.quad	_ZTVN10__cxxabiv117__class_type_infoE+16
	.quad	_ZTSN5Proto6StructE
	.weak	_ZTSN5Proto6PacketE
	.section	.rodata._ZTSN5Proto6PacketE,"aG",@progbits,_ZTSN5Proto6PacketE,comdat
	.align 16
	.type	_ZTSN5Proto6PacketE, @object
	.size	_ZTSN5Proto6PacketE, 16
_ZTSN5Proto6PacketE:
	.string	"N5Proto6PacketE"
	.weak	_ZTIN5Proto6PacketE
	.section	.data.rel.ro._ZTIN5Proto6PacketE,"awG",@progbits,_ZTIN5Proto6PacketE,comdat
	.align 8
	.type	_ZTIN5Proto6PacketE, @object
	.size	_ZTIN5Proto6PacketE, 24
_ZTIN5Proto6PacketE:
	.quad	_ZTVN10__cxxabiv120__si_class_type_infoE+16
	.quad	_ZTSN5Proto6PacketE
	.quad	_ZTIN5Proto6StructE
	.weak	_ZTS10UsbService
	.section	.rodata._ZTS10UsbService,"aG",@progbits,_ZTS10UsbService,comdat
	.align 8
	.type	_ZTS10UsbService, @object
	.size	_ZTS10UsbService, 13
_ZTS10UsbService:
	.string	"10UsbService"
	.weak	_ZTI10UsbService
	.section	.data.rel.ro._ZTI10UsbService,"awG",@progbits,_ZTI10UsbService,comdat
	.align 8
	.type	_ZTI10UsbService, @object
	.size	_ZTI10UsbService, 24
_ZTI10UsbService:
	.quad	_ZTVN10__cxxabiv120__si_class_type_infoE+16
	.quad	_ZTS10UsbService
	.quad	_ZTI12ServerSocket
	.weak	_ZTVN5Proto6PacketE
	.section	.data.rel.ro._ZTVN5Proto6PacketE,"awG",@progbits,_ZTVN5Proto6PacketE,comdat
	.align 8
	.type	_ZTVN5Proto6PacketE, @object
	.size	_ZTVN5Proto6PacketE, 24
_ZTVN5Proto6PacketE:
	.quad	0
	.quad	_ZTIN5Proto6PacketE
	.quad	_ZN5Proto6Packet4sizeEv
	.weak	_ZTV10UsbService
	.section	.data.rel.ro._ZTV10UsbService,"awG",@progbits,_ZTV10UsbService,comdat
	.align 8
	.type	_ZTV10UsbService, @object
	.size	_ZTV10UsbService, 40
_ZTV10UsbService:
	.quad	0
	.quad	_ZTI10UsbService
	.quad	_ZN10UsbServiceD1Ev
	.quad	_ZN10UsbServiceD0Ev
	.quad	_ZN10UsbService6handleEiRN5Proto6PacketE
	.text
.Letext0:
	.file 11 "/usr/include/c++/5/bits/basic_string.tcc"
	.file 12 "/usr/include/c++/5/bits/stringfwd.h"
	.file 13 "/usr/include/c++/5/bits/cpp_type_traits.h"
	.file 14 "/usr/include/c++/5/cwchar"
	.file 15 "/usr/include/x86_64-linux-gnu/c++/5/bits/c++config.h"
	.file 16 "/usr/include/c++/5/bits/allocator.h"
	.file 17 "/usr/include/c++/5/clocale"
	.file 18 "/usr/include/c++/5/bits/stl_iterator_base_types.h"
	.file 19 "/usr/include/c++/5/bits/move.h"
	.file 20 "/usr/include/c++/5/debug/debug.h"
	.file 21 "/usr/include/c++/5/bits/predefined_ops.h"
	.file 22 "/usr/include/c++/5/ext/numeric_traits.h"
	.file 23 "/usr/include/c++/5/ext/alloc_traits.h"
	.file 24 "/usr/include/c++/5/bits/stl_iterator.h"
	.file 25 "/usr/include/stdio.h"
	.file 26 "/usr/include/libio.h"
	.file 27 "<built-in>"
	.file 28 "/usr/lib/gcc/x86_64-linux-gnu/5/include/stddef.h"
	.file 29 "/usr/include/wchar.h"
	.file 30 "/usr/include/x86_64-linux-gnu/bits/wchar2.h"
	.file 31 "/usr/include/time.h"
	.file 32 "/usr/include/locale.h"
	.file 33 "/usr/include/x86_64-linux-gnu/bits/types.h"
	.file 34 "/usr/include/stdint.h"
	.file 35 "/usr/include/netinet/in.h"
	.file 36 "./src/proto/protobase.h"
	.file 37 "src/server/serversocket.hpp"
	.file 38 "/usr/include/x86_64-linux-gnu/bits/confname.h"
	.file 39 "/usr/include/usb.h"
	.file 40 "./src/usbnet.h"
	.file 41 "src/server/usbservice.hpp"
	.file 42 "/usr/include/c++/5/new"
	.file 43 "./src/shared/common.h"
	.file 44 "/usr/include/c++/5/bits/functexcept.h"
	.file 45 "/usr/include/x86_64-linux-gnu/sys/socket.h"