	.file	"usbnet.c"
	.text
.Ltext0:
	.section	.rodata.str1.1,"aMS",@progbits,1
.LC0:
	.string	"%s: "
.LC1:
	.string	"unhooking virtual bus ..."
	.section	.rodata.str1.8,"aMS",@progbits,1
	.align 8
.LC2:
	.string	"deallocating shared packet ..."
	.section	.rodata.str1.1
.LC3:
	.string	"freeing busses ..."
	.text
	.globl	session_teardown
	.type	session_teardown, @function
session_teardown:
.LFB89:
	.file 1 "src/usbnet.c"
	.loc 1 53 0
	.cfi_startproc
	pushq	%r12
	.cfi_def_cfa_offset 16
	.cfi_offset 12, -16
	pushq	%rbp
	.cfi_def_cfa_offset 24
	.cfi_offset 6, -24
	pushq	%rbx
	.cfi_def_cfa_offset 32
	.cfi_offset 3, -32
	.loc 1 56 0
	movl	$0, %eax
	call	log_level@PLT
.LVL0:
	testb	$4, %al
	je	.L2
.LVL1:
	.loc 1 56 0 is_stmt 0 discriminator 1
	movq	stderr@GOTPCREL(%rip), %rbx
.LVL2:
.LBB242:
.LBB243:
	.file 2 "/usr/include/x86_64-linux-gnu/bits/stdio2.h"
	.loc 2 97 0 is_stmt 1 discriminator 1
	leaq	__func__.6191(%rip), %rcx
	leaq	.LC0(%rip), %rdx
	movl	$1, %esi
	movq	(%rbx), %rdi
	movl	$0, %eax
	call	__fprintf_chk@PLT
.LVL3:
.LBE243:
.LBE242:
.LBB244:
.LBB245:
	movq	(%rbx), %rcx
	movl	$25, %edx
	movl	$1, %esi
	leaq	.LC1(%rip), %rdi
	call	fwrite@PLT
.LVL4:
.LBE245:
.LBE244:
.LBB246:
.LBB247:
	movq	(%rbx), %rsi
	movl	$10, %edi
	call	fputc@PLT
.LVL5:
.L2:
.LBE247:
.LBE246:
	.loc 1 57 0
	movq	__orig_bus(%rip), %rdx
	movq	usb_busses@GOTPCREL(%rip), %rax
	movq	%rdx, (%rax)
	.loc 1 60 0
	movl	$0, %eax
	call	log_level@PLT
.LVL6:
	testb	$4, %al
	je	.L3
.LVL7:
	.loc 1 60 0 is_stmt 0 discriminator 1
	movq	stderr@GOTPCREL(%rip), %rbx
.LVL8:
.LBB248:
.LBB249:
	.loc 2 97 0 is_stmt 1 discriminator 1
	leaq	__func__.6191(%rip), %rcx
	leaq	.LC0(%rip), %rdx
	movl	$1, %esi
	movq	(%rbx), %rdi
	movl	$0, %eax
	call	__fprintf_chk@PLT
.LVL9:
.LBE249:
.LBE248:
.LBB250:
.LBB251:
	movq	(%rbx), %rcx
	movl	$30, %edx
	movl	$1, %esi
	leaq	.LC2(%rip), %rdi
	call	fwrite@PLT
.LVL10:
.LBE251:
.LBE250:
.LBB252:
.LBB253:
	movq	(%rbx), %rsi
	movl	$10, %edi
	call	fputc@PLT
.LVL11:
.L3:
.LBE253:
.LBE252:
	.loc 1 61 0
	movl	$0, %eax
	call	pkt_shared@PLT
.LVL12:
	testq	%rax, %rax
	je	.L4
	.loc 1 62 0
	movl	$0, %eax
	call	pkt_shared@PLT
.LVL13:
	movq	%rax, %rdi
	call	pkt_free@PLT
.LVL14:
.L4:
	.loc 1 65 0
	movl	$0, %eax
	call	log_level@PLT
.LVL15:
	testb	$4, %al
	je	.L5
.LVL16:
	.loc 1 65 0 is_stmt 0 discriminator 1
	movq	stderr@GOTPCREL(%rip), %rbx
.LVL17:
.LBB254:
.LBB255:
	.loc 2 97 0 is_stmt 1 discriminator 1
	leaq	__func__.6191(%rip), %rcx
	leaq	.LC0(%rip), %rdx
	movl	$1, %esi
	movq	(%rbx), %rdi
	movl	$0, %eax
	call	__fprintf_chk@PLT
.LVL18:
.LBE255:
.LBE254:
.LBB256:
.LBB257:
	movq	(%rbx), %rcx
	movl	$18, %edx
	movl	$1, %esi
	leaq	.LC3(%rip), %rdi
	call	fwrite@PLT
.LVL19:
.LBE257:
.LBE256:
.LBB258:
.LBB259:
	movq	(%rbx), %rsi
	movl	$10, %edi
	call	fputc@PLT
.LVL20:
.L5:
.LBE259:
.LBE258:
	.loc 1 67 0
	movq	__remote_bus(%rip), %rbp
	testq	%rbp, %rbp
	je	.L1
.L11:
.LVL21:
.LBB260:
	.loc 1 71 0
	movq	0(%rbp), %r12
	movq	%r12, __remote_bus(%rip)
.LVL22:
	.loc 1 75 0
	movq	4120(%rbp), %rbx
	testq	%rbx, %rbx
	je	.L7
.LVL23:
.L12:
	.loc 1 77 0
	movq	(%rbx), %rax
	movq	%rax, 4120(%rbp)
	.loc 1 83 0
	movq	4176(%rbx), %rdi
	testq	%rdi, %rdi
	je	.L8
	.loc 1 84 0
	call	free@PLT
.LVL24:
.L8:
	.loc 1 85 0
	movq	%rbx, %rdi
	call	free@PLT
.LVL25:
	.loc 1 75 0
	movq	4120(%rbp), %rbx
.LVL26:
	testq	%rbx, %rbx
	jne	.L12
.L7:
	.loc 1 89 0
	movq	%rbp, %rdi
	call	free@PLT
.LVL27:
.LBE260:
	.loc 1 67 0
	movq	%r12, %rbp
.LVL28:
	testq	%r12, %r12
	jne	.L11
.L1:
	.loc 1 91 0
	popq	%rbx
	.cfi_def_cfa_offset 24
	popq	%rbp
	.cfi_def_cfa_offset 16
	popq	%r12
	.cfi_def_cfa_offset 8
	ret
	.cfi_endproc
.LFE89:
	.size	session_teardown, .-session_teardown
	.section	.rodata.str1.8
	.align 8
.LC4:
	.string	"IPC: unable to access remote fd"
	.text
	.globl	session_get
	.type	session_get, @function
session_get:
.LFB90:
	.loc 1 93 0
	.cfi_startproc
	pushq	%rbx
	.cfi_def_cfa_offset 16
	.cfi_offset 3, -16
	.loc 1 97 0
	cmpb	$0, exitf_hooked.6202(%rip)
	jne	.L17
	.loc 1 98 0
	movq	session_teardown@GOTPCREL(%rip), %rdi
	call	atexit@PLT
.LVL29:
	.loc 1 99 0
	movb	$1, exitf_hooked.6202(%rip)
.L17:
	.loc 1 103 0
	movl	__remote_fd(%rip), %eax
	cmpl	$-1, %eax
	jne	.L18
	.loc 1 104 0
	movl	$0, %eax
	call	ipc_get_remote@PLT
.LVL30:
	movl	%eax, __remote_fd(%rip)
	.loc 1 107 0
	cmpl	$-1, %eax
	jne	.L18
	.loc 1 108 0
	movl	$0, %eax
	call	log_level@PLT
.LVL31:
	testb	$1, %al
	je	.L19
.LVL32:
	.loc 1 108 0 is_stmt 0 discriminator 1
	movq	stderr@GOTPCREL(%rip), %rbx
.LVL33:
.LBB261:
.LBB262:
	.loc 2 97 0 is_stmt 1 discriminator 1
	movq	(%rbx), %rcx
	movl	$31, %edx
	movl	$1, %esi
	leaq	.LC4(%rip), %rdi
	call	fwrite@PLT
.LVL34:
.LBE262:
.LBE261:
.LBB263:
.LBB264:
	movq	(%rbx), %rsi
	movl	$10, %edi
	call	fputc@PLT
.LVL35:
.L19:
.LBE264:
.LBE263:
	.loc 1 109 0
	movl	$1, %edi
	call	exit@PLT
.LVL36:
.L18:
	.loc 1 113 0
	popq	%rbx
	.cfi_def_cfa_offset 8
	ret
	.cfi_endproc
.LFE90:
	.size	session_get, .-session_get
	.section	.rodata.str1.1
.LC5:
	.string	"called"
	.text
	.globl	usb_init
	.type	usb_init, @function
usb_init:
.LFB91:
	.loc 1 126 0
	.cfi_startproc
	pushq	%rbp
	.cfi_def_cfa_offset 16
	.cfi_offset 6, -16
	pushq	%rbx
	.cfi_def_cfa_offset 24
	.cfi_offset 3, -24
	subq	$8, %rsp
	.cfi_def_cfa_offset 32
	.loc 1 128 0
	movl	$0, %eax
	call	pkt_claim@PLT
.LVL37:
	movq	%rax, %rbx
.LVL38:
	.loc 1 129 0
	movl	$0, %eax
.LVL39:
	call	session_get@PLT
.LVL40:
	movl	%eax, %ebp
.LVL41:
	.loc 1 132 0
	movl	$49, %esi
	movq	%rbx, %rdi
	call	pkt_init@PLT
.LVL42:
	.loc 1 133 0
	movl	%ebp, %esi
	movq	%rbx, %rdi
	call	pkt_send@PLT
.LVL43:
	.loc 1 134 0
	movl	$0, %eax
	call	pkt_release@PLT
.LVL44:
	.loc 1 137 0
	movl	$0, %eax
	call	log_level@PLT
.LVL45:
	testb	$4, %al
	je	.L21
.LVL46:
	.loc 1 137 0 is_stmt 0 discriminator 1
	movq	stderr@GOTPCREL(%rip), %rbx
.LVL47:
.LBB265:
.LBB266:
	.loc 2 97 0 is_stmt 1 discriminator 1
	leaq	__func__.6208(%rip), %rcx
	leaq	.LC0(%rip), %rdx
	movl	$1, %esi
	movq	(%rbx), %rdi
	movl	$0, %eax
	call	__fprintf_chk@PLT
.LVL48:
.LBE266:
.LBE265:
.LBB267:
.LBB268:
	movq	(%rbx), %rcx
	movl	$6, %edx
	movl	$1, %esi
	leaq	.LC5(%rip), %rdi
	call	fwrite@PLT
.LVL49:
.LBE268:
.LBE267:
.LBB269:
.LBB270:
	movq	(%rbx), %rsi
	movl	$10, %edi
	call	fputc@PLT
.LVL50:
.L21:
.LBE270:
.LBE269:
	.loc 1 138 0
	addq	$8, %rsp
	.cfi_def_cfa_offset 24
	popq	%rbx
	.cfi_def_cfa_offset 16
	popq	%rbp
	.cfi_def_cfa_offset 8
.LVL51:
	ret
	.cfi_endproc
.LFE91:
	.size	usb_init, .-usb_init
	.section	.rodata.str1.1
.LC6:
	.string	"returned %d"
	.text
	.globl	usb_find_busses
	.type	usb_find_busses, @function
usb_find_busses:
.LFB92:
	.loc 1 144 0
	.cfi_startproc
	pushq	%rbp
	.cfi_def_cfa_offset 16
	.cfi_offset 6, -16
	pushq	%rbx
	.cfi_def_cfa_offset 24
	.cfi_offset 3, -24
	subq	$56, %rsp
	.cfi_def_cfa_offset 80
	.loc 1 144 0
	movq	%fs:40, %rax
	movq	%rax, 40(%rsp)
	xorl	%eax, %eax
	.loc 1 146 0
	call	pkt_claim@PLT
.LVL52:
	movq	%rax, %rbx
.LVL53:
	.loc 1 147 0
	movl	$0, %eax
.LVL54:
	call	session_get@PLT
.LVL55:
	movl	%eax, %ebp
.LVL56:
	.loc 1 150 0
	movl	$50, %esi
	movq	%rbx, %rdi
	call	pkt_init@PLT
.LVL57:
	.loc 1 151 0
	movl	%ebp, %esi
	movq	%rbx, %rdi
	call	pkt_send@PLT
.LVL58:
	.loc 1 156 0
	movq	%rbx, %rsi
	movl	%ebp, %edi
	call	pkt_recv@PLT
.LVL59:
	.loc 1 154 0
	movl	$0, %ebp
.LVL60:
	.loc 1 156 0
	testl	%eax, %eax
	je	.L25
	.loc 1 156 0 is_stmt 0 discriminator 1
	cmpb	$50, 8(%rbx)
	jne	.L25
	.loc 1 157 0 is_stmt 1
	movq	%rsp, %rsi
	movq	%rbx, %rdi
	call	pkt_begin@PLT
.LVL61:
	testq	%rax, %rax
	je	.L25
	.loc 1 158 0
	movl	28(%rsp), %ebx
.LVL62:
	movq	%rsp, %rdi
	call	iter_nextval@PLT
.LVL63:
	movl	%ebx, %esi
	movq	%rax, %rdi
	call	as_int@PLT
.LVL64:
	movl	%eax, %ebp
.LVL65:
.L25:
	.loc 1 163 0
	movl	$0, %eax
	call	pkt_release@PLT
.LVL66:
	.loc 1 164 0
	movl	$0, %eax
	call	log_level@PLT
.LVL67:
	testb	$4, %al
	je	.L26
.LVL68:
	.loc 1 164 0 is_stmt 0 discriminator 1
	movq	stderr@GOTPCREL(%rip), %rbx
.LVL69:
.LBB271:
.LBB272:
	.loc 2 97 0 is_stmt 1 discriminator 1
	leaq	__func__.6216(%rip), %rcx
	leaq	.LC0(%rip), %rdx
	movl	$1, %esi
	movq	(%rbx), %rdi
	movl	$0, %eax
	call	__fprintf_chk@PLT
.LVL70:
.LBE272:
.LBE271:
.LBB273:
.LBB274:
	movl	%ebp, %ecx
	leaq	.LC6(%rip), %rdx
	movl	$1, %esi
	movq	(%rbx), %rdi
	movl	$0, %eax
	call	__fprintf_chk@PLT
.LVL71:
.LBE274:
.LBE273:
.LBB275:
.LBB276:
	movq	(%rbx), %rsi
	movl	$10, %edi
	call	fputc@PLT
.LVL72:
.L26:
.LBE276:
.LBE275:
	.loc 1 166 0
	movl	%ebp, %eax
	movq	40(%rsp), %rdx
	xorq	%fs:40, %rdx
	je	.L27
.LVL73:
	call	__stack_chk_fail@PLT
.LVL74:
.L27:
	addq	$56, %rsp
	.cfi_def_cfa_offset 24
	popq	%rbx
	.cfi_def_cfa_offset 16
	popq	%rbp
	.cfi_def_cfa_offset 8
	ret
	.cfi_endproc
.LFE92:
	.size	usb_find_busses, .-usb_find_busses
	.section	.rodata.str1.1
.LC7:
	.string	"deleting device %03d"
	.section	.rodata.str1.8
	.align 8
.LC8:
	.string	"unexpected item identifier 0x%02x"
	.section	.rodata.str1.1
.LC9:
	.string	"deleting bus %03d"
	.section	.rodata.str1.8
	.align 8
.LC10:
	.string	"overriding global usb_busses from %p to %p"
	.text
	.globl	usb_find_devices
	.type	usb_find_devices, @function
usb_find_devices:
.LFB93:
	.loc 1 173 0
	.cfi_startproc
	pushq	%r15
	.cfi_def_cfa_offset 16
	.cfi_offset 15, -16
	pushq	%r14
	.cfi_def_cfa_offset 24
	.cfi_offset 14, -24
	pushq	%r13
	.cfi_def_cfa_offset 32
	.cfi_offset 13, -32
	pushq	%r12
	.cfi_def_cfa_offset 40
	.cfi_offset 12, -40
	pushq	%rbp
	.cfi_def_cfa_offset 48
	.cfi_offset 6, -48
	pushq	%rbx
	.cfi_def_cfa_offset 56
	.cfi_offset 3, -56
	subq	$8440, %rsp
	.cfi_def_cfa_offset 8496
	.loc 1 173 0
	movq	%fs:40, %rax
	movq	%rax, 8424(%rsp)
	xorl	%eax, %eax
	.loc 1 175 0
	call	pkt_claim@PLT
.LVL75:
	movq	%rax, %rbx
.LVL76:
	.loc 1 176 0
	movl	$0, %eax
.LVL77:
	call	session_get@PLT
.LVL78:
	movl	%eax, %ebp
.LVL79:
	.loc 1 179 0
	movl	$51, %esi
	movq	%rbx, %rdi
	call	pkt_init@PLT
.LVL80:
	.loc 1 180 0
	movl	%ebp, %esi
	movq	%rbx, %rdi
	call	pkt_send@PLT
.LVL81:
	.loc 1 185 0
	movq	%rbx, %rsi
	movl	%ebp, %edi
	call	pkt_recv@PLT
.LVL82:
	.loc 1 183 0
	movl	$0, 28(%rsp)
	.loc 1 185 0
	testl	%eax, %eax
	je	.L33
.LBB277:
	.loc 1 186 0
	leaq	48(%rsp), %rbp
.LVL83:
	movq	%rbp, %rsi
	movq	%rbx, %rdi
	call	pkt_begin@PLT
.LVL84:
	.loc 1 189 0
	movl	76(%rsp), %ebx
.LVL85:
	movq	%rbp, %rdi
	call	iter_nextval@PLT
.LVL86:
	movl	%ebx, %esi
	movq	%rax, %rdi
	call	as_int@PLT
.LVL87:
	movl	%eax, 28(%rsp)
.LVL88:
	.loc 1 193 0
	movq	__remote_bus(%rip), %rax
.LVL89:
	movq	%rax, 96(%rsp)
.LVL90:
	.loc 1 194 0
	leaq	96(%rsp), %rbx
.LVL91:
	.loc 1 197 0
	leaq	48(%rsp), %r15
.LBB278:
.LBB279:
	.loc 1 234 0
	leaq	4240(%rsp), %rax
	movq	%rax, 40(%rsp)
.LBE279:
.LBE278:
	.loc 1 197 0
	jmp	.L34
.L65:
	.loc 1 200 0
	cmpb	$32, 72(%rsp)
	jne	.L35
.LBB337:
	.loc 1 201 0
	movq	%r15, %rdi
	call	iter_enter@PLT
.LVL92:
	.loc 1 204 0
	movq	(%rbx), %rax
	movq	%rax, 16(%rsp)
	testq	%rax, %rax
	jne	.L36
.LBB321:
	.loc 1 207 0
	movl	$4144, %edi
	call	malloc@PLT
.LVL93:
	movq	%rax, %rsi
.LVL94:
.LBB322:
.LBB323:
	.file 3 "/usr/include/x86_64-linux-gnu/bits/string3.h"
	.loc 3 90 0
	movl	$518, %ecx
	movq	%rax, 16(%rsp)
	movq	%rax, %rdi
	movl	$0, %eax
.LVL95:
	rep stosq
.LVL96:
.LBE323:
.LBE322:
	.loc 1 209 0
	movq	%rsi, (%rbx)
	.loc 1 210 0
	movq	%rbx, 8(%rsi)
.LVL97:
.L36:
.LBE321:
	.loc 1 217 0
	movl	76(%rsp), %ebx
	movq	%r15, %rdi
	call	iter_nextval@PLT
.LVL98:
	movl	%ebx, %esi
	movq	%rax, %rdi
	call	as_string@PLT
.LVL99:
.LBB324:
.LBB325:
	.loc 3 110 0
	movq	16(%rsp), %r14
	leaq	16(%r14), %rdi
.LVL100:
	movl	$4097, %edx
	movq	%rax, %rsi
	call	__strcpy_chk@PLT
.LVL101:
.LBE325:
.LBE324:
	.loc 1 220 0
	movl	76(%rsp), %ebx
	movq	%r15, %rdi
	call	iter_nextval@PLT
.LVL102:
	movl	%ebx, %esi
	movq	%rax, %rdi
	call	as_uint@PLT
.LVL103:
	movl	%eax, 4128(%r14)
	.loc 1 224 0
	movq	4120(%r14), %rax
	movq	%rax, 4240(%rsp)
.LVL104:
	.loc 1 225 0
	leaq	4240(%rsp), %rax
	movq	%rax, 8(%rsp)
	.loc 1 226 0
	jmp	.L37
.LVL105:
.L59:
.LBB326:
	.loc 1 227 0
	movq	%r15, %rdi
	call	iter_enter@PLT
.LVL106:
	.loc 1 230 0
	movq	8(%rsp), %rax
	cmpq	$0, (%rax)
	jne	.L38
	.loc 1 231 0
	movl	$4184, %edi
	call	malloc@PLT
.LVL107:
	movq	%rax, %rdx
	movq	8(%rsp), %rsi
	movq	%rdx, (%rsi)
.LVL108:
.LBB280:
.LBB281:
	.loc 3 90 0
	movl	$523, %ecx
	movq	%rdx, %rdi
	movl	$0, %eax
.LVL109:
	rep stosq
.LVL110:
.LBE281:
.LBE280:
	.loc 1 233 0
	movq	%rsi, %rcx
	movq	(%rsi), %rax
	movq	16(%rsp), %rsi
	movq	%rsi, 4120(%rax)
	.loc 1 234 0
	cmpq	40(%rsp), %rcx
	je	.L39
	.loc 1 235 0
	movq	(%rcx), %rax
	movq	%rcx, 8(%rax)
.L39:
	.loc 1 236 0
	movq	16(%rsp), %rax
	cmpq	$0, 4120(%rax)
	jne	.L38
	.loc 1 237 0
	movq	8(%rsp), %rax
	movq	(%rax), %rax
	movq	16(%rsp), %rcx
	movq	%rax, 4120(%rcx)
.L38:
	.loc 1 240 0
	movq	8(%rsp), %rax
	movq	(%rax), %rax
	movq	%rax, %r14
	movq	%rax, 8(%rsp)
.LVL111:
	.loc 1 243 0
	movl	76(%rsp), %ebx
	movq	%r15, %rdi
	call	iter_nextval@PLT
.LVL112:
	movl	%ebx, %esi
	movq	%rax, %rdi
	call	as_string@PLT
.LVL113:
.LBB282:
.LBB283:
	.loc 3 110 0
	leaq	16(%r14), %rdi
.LVL114:
	movl	$4097, %edx
	movq	%rax, %rsi
	call	__strcpy_chk@PLT
.LVL115:
.LBE283:
.LBE282:
	.loc 1 246 0
	movl	76(%rsp), %ebx
	movq	%r15, %rdi
	call	iter_nextval@PLT
.LVL116:
	movl	%ebx, %esi
	movq	%rax, %rdi
	call	as_uint@PLT
.LVL117:
	movb	%al, 4168(%r14)
.LVL118:
.LBB284:
.LBB285:
	.loc 3 53 0
	leaq	4128(%r14), %rdi
.LVL119:
	movl	76(%rsp), %edx
.LVL120:
	movq	80(%rsp), %rsi
	call	memcpy@PLT
.LVL121:
.LBE285:
.LBE284:
.LBB286:
	.loc 1 251 0
	movzwl	4130(%r14), %eax
#APP
# 251 "src/usbnet.c" 1
	rorw $8, %ax
# 0 "" 2
.LVL122:
#NO_APP
.LBE286:
	.loc 1 251 0
	movw	%ax, 4130(%r14)
.LVL123:
.LBB287:
	.loc 1 252 0
	movzwl	4136(%r14), %eax
.LVL124:
#APP
# 252 "src/usbnet.c" 1
	rorw $8, %ax
# 0 "" 2
.LVL125:
#NO_APP
.LBE287:
	.loc 1 252 0
	movw	%ax, 4136(%r14)
.LVL126:
.LBB288:
	.loc 1 253 0
	movzwl	4138(%r14), %eax
.LVL127:
#APP
# 253 "src/usbnet.c" 1
	rorw $8, %ax
# 0 "" 2
.LVL128:
#NO_APP
.LBE288:
	.loc 1 253 0
	movw	%ax, 4138(%r14)
.LVL129:
.LBB289:
	.loc 1 254 0
	movzwl	4140(%r14), %eax
.LVL130:
	movw	%ax, 24(%rsp)
#APP
# 254 "src/usbnet.c" 1
	rorw $8, %ax
# 0 "" 2
.LVL131:
#NO_APP
.LBE289:
	.loc 1 254 0
	movw	%ax, 4140(%r14)
.LVL132:
	.loc 1 255 0
	movq	%r15, %rdi
	call	iter_next@PLT
.LVL133:
	.loc 1 258 0
	movzbl	4145(%r14), %eax
	movzbl	%al, %esi
	movl	%esi, 36(%rsp)
.LVL134:
	.loc 1 259 0
	movq	$0, 4152(%r14)
	.loc 1 260 0
	testl	%esi, %esi
	je	.L37
	.loc 1 261 0
	movzbl	%al, %eax
	leaq	(%rax,%rax,4), %rbx
	salq	$3, %rbx
	movq	%rbx, %rdi
	call	malloc@PLT
.LVL135:
	movq	8(%rsp), %rcx
	movq	%rax, 4152(%rcx)
.LVL136:
.LBB290:
.LBB291:
	.loc 3 90 0
	movq	%rbx, %rdx
	movl	$0, %esi
	movq	%rax, %rdi
	call	memset@PLT
.LVL137:
	movl	$0, 32(%rsp)
	jmp	.L41
.LVL138:
.L57:
.LBE291:
.LBE290:
.LBB292:
	.loc 1 267 0
	movl	32(%rsp), %ecx
	movl	%ecx, %eax
	leaq	(%rax,%rax,4), %rdx
	movq	8(%rsp), %rax
	movq	4152(%rax), %rax
	leaq	(%rax,%rdx,8), %rax
	movq	%rax, %rbx
	movq	%rax, (%rsp)
.LVL139:
	.loc 1 268 0
	movl	%ecx, %eax
.LVL140:
	addl	$1, %eax
	movl	%eax, 32(%rsp)
.LVL141:
	.loc 1 272 0
	movl	76(%rsp), %eax
.LVL142:
	cmpl	$39, %eax
	ja	.L42
.LVL143:
.LBB293:
.LBB294:
	.loc 3 53 0
	movslq	%eax, %rdx
.LVL144:
	movq	80(%rsp), %rsi
	movq	%rbx, %rdi
	call	memcpy@PLT
.LVL145:
.LBE294:
.LBE293:
.LBB296:
	.loc 1 277 0
	movzwl	2(%rbx), %eax
.LVL146:
.L71:
	.loc 1 277 0 discriminator 2
#APP
# 277 "src/usbnet.c" 1
	rorw $8, %ax
# 0 "" 2
.LVL147:
#NO_APP
.LBE296:
	.loc 1 277 0 discriminator 2
	movq	(%rsp), %rcx
	movw	%ax, 2(%rcx)
	.loc 1 280 0 discriminator 2
	movq	$0, 16(%rcx)
	.loc 1 281 0 discriminator 2
	movzbl	4(%rcx), %eax
.LVL148:
	testb	%al, %al
	je	.L43
	.loc 1 282 0
	movzbl	%al, %eax
	salq	$4, %rax
	movq	%rax, %rdi
	call	malloc@PLT
.LVL149:
	movq	(%rsp), %rcx
	movq	%rax, 16(%rcx)
.L43:
	.loc 1 286 0
	movq	(%rsp), %rbx
.LVL150:
	movl	$0, 32(%rbx)
	.loc 1 287 0
	movq	$0, 24(%rbx)
	.loc 1 288 0
	movq	%r15, %rdi
	call	iter_next@PLT
.LVL151:
	.loc 1 292 0
	cmpb	$0, 4(%rbx)
	je	.L41
	movl	$0, 24(%rsp)
.LVL152:
.L56:
.LBB297:
	.loc 1 293 0
	movl	24(%rsp), %r14d
	salq	$4, %r14
	movq	(%rsp), %rax
	addq	16(%rax), %r14
.LVL153:
	.loc 1 296 0
	movl	76(%rsp), %ebx
	movq	%r15, %rdi
	call	iter_nextval@PLT
.LVL154:
	movl	%ebx, %esi
	movq	%rax, %rdi
	call	as_int@PLT
.LVL155:
	movl	%eax, 8(%r14)
	.loc 1 299 0
	testl	%eax, %eax
	jle	.L45
	.loc 1 300 0
	cltq
	leaq	(%rax,%rax,4), %rdi
	salq	$3, %rdi
	call	malloc@PLT
.LVL156:
	movq	%rax, (%r14)
.LVL157:
	jmp	.L46
.LVL158:
.L45:
	.loc 1 304 0 discriminator 1
	testl	%eax, %eax
	je	.L47
.L46:
.LBE297:
	.loc 1 292 0
	movl	$0, %r13d
.LVL159:
.L55:
.LBB316:
.LBB298:
	.loc 1 307 0
	movl	%r13d, %eax
	leaq	(%rax,%rax,4), %rdx
	movq	(%r14), %rax
	leaq	(%rax,%rdx,8), %r12
.LVL160:
	.loc 1 309 0
	movl	76(%rsp), %edx
	.loc 1 310 0
	cmpl	$39, %edx
	movl	$40, %eax
	cmova	%eax, %edx
.LVL161:
.LBB299:
.LBB300:
	.loc 3 53 0
	movslq	%edx, %rdx
.LVL162:
	movq	80(%rsp), %rsi
	movq	%r12, %rdi
	call	memcpy@PLT
.LVL163:
.LBE300:
.LBE299:
	.loc 1 314 0
	movq	%r15, %rdi
	call	iter_next@PLT
.LVL164:
	.loc 1 317 0
	movq	$0, 16(%r12)
	.loc 1 318 0
	movzbl	4(%r12), %edx
	testb	%dl, %dl
	je	.L49
.LBB301:
	.loc 1 319 0
	movzbl	%dl, %ebx
	salq	$5, %rbx
.LVL165:
	.loc 1 320 0
	movq	%rbx, %rdi
	call	malloc@PLT
.LVL166:
	movq	%rax, 16(%r12)
.LVL167:
.LBB302:
.LBB303:
	.loc 3 90 0
	movq	%rbx, %rdx
	movl	$0, %esi
	movq	%rax, %rdi
	call	memset@PLT
.LVL168:
.LBE303:
.LBE302:
.LBE301:
	.loc 1 325 0
	cmpb	$0, 4(%r12)
	je	.L49
	movl	$0, %ebp
.LVL169:
.L51:
.LBB304:
	.loc 1 326 0
	movl	%ebp, %ebx
	salq	$5, %rbx
	addq	16(%r12), %rbx
.LVL170:
	.loc 1 328 0
	movl	76(%rsp), %edx
	cmpl	$31, %edx
	ja	.L50
.LVL171:
.LBB305:
.LBB306:
	.loc 3 53 0
	movslq	%edx, %rdx
.LVL172:
	movq	80(%rsp), %rsi
	movq	%rbx, %rdi
	call	memcpy@PLT
.LVL173:
.LBE306:
.LBE305:
.LBB308:
	.loc 1 333 0
	movzwl	4(%rbx), %eax
.LVL174:
.L72:
	.loc 1 333 0 discriminator 2
#APP
# 333 "src/usbnet.c" 1
	rorw $8, %ax
# 0 "" 2
.LVL175:
#NO_APP
.LBE308:
	.loc 1 333 0 discriminator 2
	movw	%ax, 4(%rbx)
	.loc 1 334 0 discriminator 2
	movq	%r15, %rdi
	call	iter_next@PLT
.LVL176:
	.loc 1 337 0 discriminator 2
	movl	$0, 24(%rbx)
	.loc 1 338 0 discriminator 2
	movq	$0, 16(%rbx)
.LBE304:
	.loc 1 325 0 discriminator 2
	addl	$1, %ebp
.LVL177:
	movzbl	4(%r12), %eax
	cmpl	%ebp, %eax
	ja	.L51
.LVL178:
.L49:
	.loc 1 342 0
	movl	76(%rsp), %esi
	movq	80(%rsp), %rdi
	call	as_int@PLT
.LVL179:
	movl	%eax, 32(%r12)
	.loc 1 343 0
	movq	%r15, %rdi
	call	iter_next@PLT
.LVL180:
	.loc 1 345 0
	movl	32(%r12), %ebx
	testl	%ebx, %ebx
	jle	.L52
.LBB311:
	.loc 1 346 0
	movslq	%ebx, %rdi
	call	malloc@PLT
.LVL181:
	movq	%rax, 24(%r12)
.LVL182:
	.loc 1 349 0
	movl	76(%rsp), %edx
	.loc 1 350 0
	cmpl	%ebx, %edx
	cmovb	%edx, %ebx
.LVL183:
.LBB312:
.LBB313:
	.loc 3 53 0
	movslq	%ebx, %rdx
.LVL184:
	movq	80(%rsp), %rsi
	movq	%rax, %rdi
	call	memcpy@PLT
.LVL185:
.LBE313:
.LBE312:
	.loc 1 353 0
	movq	%r15, %rdi
	call	iter_next@PLT
.LVL186:
.LBE311:
	jmp	.L54
.LVL187:
.L52:
	.loc 1 356 0
	movq	$0, 24(%r12)
.L54:
.LBE298:
	.loc 1 304 0 discriminator 2
	addl	$1, %r13d
.LVL188:
	cmpl	%r13d, 8(%r14)
	ja	.L55
.LVL189:
.L47:
.LBE316:
	.loc 1 292 0 discriminator 2
	addl	$1, 24(%rsp)
.LVL190:
	movl	24(%rsp), %ecx
.LVL191:
	movq	(%rsp), %rax
	movzbl	4(%rax), %eax
	cmpl	%ecx, %eax
	ja	.L56
.LVL192:
.L41:
.LBE292:
	.loc 1 266 0
	cmpb	$33, 72(%rsp)
	jne	.L37
	movl	36(%rsp), %ecx
	cmpl	%ecx, 32(%rsp)
	jb	.L57
.LVL193:
.L37:
.LBE326:
	.loc 1 226 0
	cmpb	$16, 72(%rsp)
	je	.L59
	.loc 1 365 0
	movq	8(%rsp), %rax
	movq	(%rax), %rbx
	testq	%rbx, %rbx
	je	.L63
.LBB327:
.LBB328:
.LBB329:
	.loc 2 97 0
	leaq	__func__.6277(%rip), %r12
	movq	%rax, %r13
.LVL194:
.L77:
.LBE329:
.LBE328:
	.loc 1 367 0
	movl	$0, %eax
	call	log_level@PLT
.LVL195:
	testb	$4, %al
	je	.L61
.LVL196:
	.loc 1 367 0 is_stmt 0 discriminator 1
	movq	stderr@GOTPCREL(%rip), %rbp
.LVL197:
.LBB331:
.LBB330:
	.loc 2 97 0 is_stmt 1 discriminator 1
	movq	%r12, %rcx
	leaq	.LC0(%rip), %rdx
	movl	$1, %esi
	movq	0(%rbp), %rdi
	movl	$0, %eax
	call	__fprintf_chk@PLT
.LVL198:
.LBE330:
.LBE331:
.LBB332:
.LBB333:
	movzbl	4168(%rbx), %ecx
	leaq	.LC7(%rip), %rdx
	movl	$1, %esi
	movq	0(%rbp), %rdi
	movl	$0, %eax
	call	__fprintf_chk@PLT
.LVL199:
.LBE333:
.LBE332:
.LBB334:
.LBB335:
	movq	0(%rbp), %rsi
	movl	$10, %edi
	call	fputc@PLT
.LVL200:
.L61:
.LBE335:
.LBE334:
	.loc 1 368 0
	movq	(%rbx), %rax
	movq	%rax, 0(%r13)
	.loc 1 369 0
	movq	%rbx, %rdi
	call	free@PLT
.LVL201:
.LBE327:
	.loc 1 365 0
	movq	0(%r13), %rbx
.LVL202:
	testq	%rbx, %rbx
	jne	.L77
	jmp	.L63
.LVL203:
.L35:
.LBE337:
	.loc 1 374 0
	movl	$0, %eax
	call	log_level@PLT
.LVL204:
	testb	$4, %al
	je	.L64
.LVL205:
	.loc 1 374 0 is_stmt 0 discriminator 1
	movq	stderr@GOTPCREL(%rip), %rbp
.LVL206:
.LBB338:
.LBB339:
	.loc 2 97 0 is_stmt 1 discriminator 1
	leaq	__func__.6277(%rip), %rcx
	leaq	.LC0(%rip), %rdx
	movl	$1, %esi
	movq	0(%rbp), %rdi
	movl	$0, %eax
	call	__fprintf_chk@PLT
.LVL207:
.LBE339:
.LBE338:
.LBB340:
.LBB341:
	movzbl	72(%rsp), %ecx
	leaq	.LC8(%rip), %rdx
	movl	$1, %esi
	movq	0(%rbp), %rdi
	movl	$0, %eax
	call	__fprintf_chk@PLT
.LVL208:
.LBE341:
.LBE340:
.LBB342:
.LBB343:
	movq	0(%rbp), %rsi
	movl	$10, %edi
	call	fputc@PLT
.LVL209:
.L64:
.LBE343:
.LBE342:
	.loc 1 375 0
	movq	%r15, %rdi
	call	iter_next@PLT
.LVL210:
	movq	%rbx, 16(%rsp)
.LVL211:
.L63:
	movq	16(%rsp), %rbx
.LVL212:
.L34:
	.loc 1 197 0
	movq	%r15, %rdi
	call	iter_end@PLT
.LVL213:
	testl	%eax, %eax
	je	.L65
	.loc 1 380 0
	cmpq	$0, (%rbx)
	je	.L66
.LBB344:
.LBB345:
.LBB346:
	.loc 2 97 0
	leaq	__func__.6277(%rip), %r12
.L76:
.LBE346:
.LBE345:
	.loc 1 381 0
	movl	$0, %eax
	call	log_level@PLT
.LVL214:
	testb	$4, %al
	je	.L67
.LVL215:
	.loc 1 381 0 is_stmt 0 discriminator 1
	movq	stderr@GOTPCREL(%rip), %rbp
.LVL216:
.LBB348:
.LBB347:
	.loc 2 97 0 is_stmt 1 discriminator 1
	movq	%r12, %rcx
	leaq	.LC0(%rip), %rdx
	movl	$1, %esi
	movq	0(%rbp), %rdi
	movl	$0, %eax
	call	__fprintf_chk@PLT
.LVL217:
.LBE347:
.LBE348:
	.loc 1 381 0 discriminator 1
	movq	(%rbx), %rax
.LBB349:
.LBB350:
	.loc 2 97 0 discriminator 1
	movl	4128(%rax), %ecx
	leaq	.LC9(%rip), %rdx
	movl	$1, %esi
	movq	0(%rbp), %rdi
	movl	$0, %eax
	call	__fprintf_chk@PLT
.LVL218:
.LBE350:
.LBE349:
.LBB351:
.LBB352:
	movq	0(%rbp), %rsi
	movl	$10, %edi
	call	fputc@PLT
.LVL219:
.L67:
.LBE352:
.LBE351:
	.loc 1 383 0
	movq	(%rbx), %rax
	movq	(%rax), %rax
	movq	%rax, (%rbx)
.LVL220:
.LBE344:
	.loc 1 380 0
	testq	%rax, %rax
	jne	.L76
.L66:
	.loc 1 387 0
	cmpq	$0, __remote_bus(%rip)
	jne	.L69
	.loc 1 388 0
	movq	usb_busses@GOTPCREL(%rip), %rax
	movq	(%rax), %rax
	movq	%rax, __orig_bus(%rip)
	.loc 1 389 0
	movl	$0, %eax
	call	log_level@PLT
.LVL221:
	testb	$4, %al
	je	.L69
.LVL222:
	.loc 1 389 0 is_stmt 0 discriminator 1
	movq	stderr@GOTPCREL(%rip), %rbx
.LVL223:
.LBB353:
.LBB354:
	.loc 2 97 0 is_stmt 1 discriminator 1
	leaq	__func__.6277(%rip), %rcx
	leaq	.LC0(%rip), %rdx
	movl	$1, %esi
	movq	(%rbx), %rdi
	movl	$0, %eax
	call	__fprintf_chk@PLT
.LVL224:
.LBE354:
.LBE353:
.LBB355:
.LBB356:
	movq	96(%rsp), %r8
	movq	usb_busses@GOTPCREL(%rip), %rax
	movq	(%rax), %rcx
	leaq	.LC10(%rip), %rdx
	movl	$1, %esi
	movq	(%rbx), %rdi
	movl	$0, %eax
	call	__fprintf_chk@PLT
.LVL225:
.LBE356:
.LBE355:
.LBB357:
.LBB358:
	movq	(%rbx), %rsi
	movl	$10, %edi
	call	fputc@PLT
.LVL226:
.L69:
.LBE358:
.LBE357:
	.loc 1 392 0
	movq	96(%rsp), %rax
	movq	%rax, __remote_bus(%rip)
	.loc 1 393 0
	movq	usb_busses@GOTPCREL(%rip), %rdx
	movq	%rax, (%rdx)
.LVL227:
.L33:
.LBE277:
	.loc 1 397 0
	movl	$0, %eax
	call	pkt_release@PLT
.LVL228:
	.loc 1 398 0
	movl	$0, %eax
	call	log_level@PLT
.LVL229:
	testb	$4, %al
	je	.L70
.LVL230:
	.loc 1 398 0 is_stmt 0 discriminator 1
	movq	stderr@GOTPCREL(%rip), %rbx
.LVL231:
.LBB360:
.LBB361:
	.loc 2 97 0 is_stmt 1 discriminator 1
	leaq	__func__.6277(%rip), %rcx
	leaq	.LC0(%rip), %rdx
	movl	$1, %esi
	movq	(%rbx), %rdi
	movl	$0, %eax
	call	__fprintf_chk@PLT
.LVL232:
.LBE361:
.LBE360:
.LBB362:
.LBB363:
	movl	28(%rsp), %ecx
	leaq	.LC6(%rip), %rdx
	movl	$1, %esi
	movq	(%rbx), %rdi
	movl	$0, %eax
	call	__fprintf_chk@PLT
.LVL233:
.LBE363:
.LBE362:
.LBB364:
.LBB365:
	movq	(%rbx), %rsi
	movl	$10, %edi
	call	fputc@PLT
.LVL234:
.L70:
.LBE365:
.LBE364:
	.loc 1 400 0
	movl	28(%rsp), %eax
	movq	8424(%rsp), %rcx
	xorq	%fs:40, %rcx
	je	.L73
	jmp	.L83
.LVL235:
.L42:
.LBB366:
.LBB359:
.LBB336:
.LBB320:
.LBB317:
.LBB295:
	.loc 3 53 0
	movq	80(%rsp), %rax
	movq	(%rax), %rdx
	movq	(%rsp), %rcx
	movq	%rdx, (%rcx)
.LVL236:
	movq	8(%rax), %rdx
	movq	%rdx, 8(%rcx)
	movq	16(%rax), %rdx
	movq	%rdx, 16(%rcx)
	movq	24(%rax), %rdx
	movq	%rdx, 24(%rcx)
	movq	32(%rax), %rax
.LVL237:
	movq	%rax, 32(%rcx)
.LVL238:
.LBE295:
.LBE317:
.LBB318:
	.loc 1 277 0
	movzwl	2(%rcx), %eax
.LVL239:
	jmp	.L71
.LVL240:
.L50:
.LBE318:
.LBB319:
.LBB315:
.LBB314:
.LBB309:
.LBB307:
	.loc 3 53 0
	movq	80(%rsp), %rax
	movq	(%rax), %rdx
	movq	%rdx, (%rbx)
.LVL241:
	movq	8(%rax), %rdx
	movq	%rdx, 8(%rbx)
	movq	16(%rax), %rdx
	movq	%rdx, 16(%rbx)
	movq	24(%rax), %rax
.LVL242:
	movq	%rax, 24(%rbx)
.LVL243:
.LBE307:
.LBE309:
.LBB310:
	.loc 1 333 0
	movzwl	4(%rbx), %eax
.LVL244:
	jmp	.L72
.LVL245:
.L83:
.LBE310:
.LBE314:
.LBE315:
.LBE319:
.LBE320:
.LBE336:
.LBE359:
.LBE366:
	.loc 1 400 0
	call	__stack_chk_fail@PLT
.LVL246:
.L73:
	addq	$8440, %rsp
	.cfi_def_cfa_offset 56
	popq	%rbx
	.cfi_def_cfa_offset 48
	popq	%rbp
	.cfi_def_cfa_offset 40
	popq	%r12
	.cfi_def_cfa_offset 32
	popq	%r13
	.cfi_def_cfa_offset 24
	popq	%r14
	.cfi_def_cfa_offset 16
	popq	%r15
	.cfi_def_cfa_offset 8
	ret
	.cfi_endproc
.LFE93:
	.size	usb_find_devices, .-usb_find_devices
	.section	.rodata.str1.1
.LC11:
	.string	"returned %p"
	.text
	.globl	usb_get_busses
	.type	usb_get_busses, @function
usb_get_busses:
.LFB94:
	.loc 1 405 0
	.cfi_startproc
	pushq	%rbx
	.cfi_def_cfa_offset 16
	.cfi_offset 3, -16
	.loc 1 407 0
	movl	$0, %eax
	call	log_level@PLT
.LVL247:
	testb	$4, %al
	je	.L87
.LVL248:
	.loc 1 407 0 is_stmt 0 discriminator 1
	movq	stderr@GOTPCREL(%rip), %rbx
.LVL249:
.LBB367:
.LBB368:
	.loc 2 97 0 is_stmt 1 discriminator 1
	leaq	__func__.6291(%rip), %rcx
	leaq	.LC0(%rip), %rdx
	movl	$1, %esi
	movq	(%rbx), %rdi
	movl	$0, %eax
	call	__fprintf_chk@PLT
.LVL250:
.LBE368:
.LBE367:
.LBB369:
.LBB370:
	movq	__remote_bus(%rip), %rcx
	leaq	.LC11(%rip), %rdx
	movl	$1, %esi
	movq	(%rbx), %rdi
	movl	$0, %eax
	call	__fprintf_chk@PLT
.LVL251:
.LBE370:
.LBE369:
.LBB371:
.LBB372:
	movq	(%rbx), %rsi
	movl	$10, %edi
	call	fputc@PLT
.LVL252:
.L87:
.LBE372:
.LBE371:
	.loc 1 409 0
	movq	__remote_bus(%rip), %rax
	popq	%rbx
	.cfi_def_cfa_offset 8
	ret
	.cfi_endproc
.LFE94:
	.size	usb_get_busses, .-usb_get_busses
	.section	.rodata.str1.1
.LC12:
	.string	"returned %d (fd %d)"
	.text
	.globl	usb_open
	.type	usb_open, @function
usb_open:
.LFB95:
	.loc 1 416 0
	.cfi_startproc
.LVL253:
	pushq	%r14
	.cfi_def_cfa_offset 16
	.cfi_offset 14, -16
	pushq	%r13
	.cfi_def_cfa_offset 24
	.cfi_offset 13, -24
	pushq	%r12
	.cfi_def_cfa_offset 32
	.cfi_offset 12, -32
	pushq	%rbp
	.cfi_def_cfa_offset 40
	.cfi_offset 6, -40
	pushq	%rbx
	.cfi_def_cfa_offset 48
	.cfi_offset 3, -48
	subq	$48, %rsp
	.cfi_def_cfa_offset 96
	movq	%rdi, %r12
	.loc 1 416 0
	movq	%fs:40, %rax
	movq	%rax, 40(%rsp)
	xorl	%eax, %eax
	.loc 1 418 0
	call	pkt_claim@PLT
.LVL254:
	movq	%rax, %rbp
.LVL255:
	.loc 1 419 0
	movl	$0, %eax
.LVL256:
	call	session_get@PLT
.LVL257:
	movl	%eax, %ebx
.LVL258:
	.loc 1 422 0
	movl	$53, %esi
	movq	%rbp, %rdi
	call	pkt_init@PLT
.LVL259:
	.loc 1 423 0
	movq	4120(%r12), %rax
	movl	4128(%rax), %ecx
	movl	$4, %edx
	movl	$3, %esi
	movq	%rbp, %rdi
	call	pkt_addnumeric@PLT
.LVL260:
	.loc 1 424 0
	movzbl	4168(%r12), %ecx
	movl	$1, %edx
	movl	$3, %esi
	movq	%rbp, %rdi
	call	pkt_addnumeric@PLT
.LVL261:
	.loc 1 425 0
	movl	%ebx, %esi
	movq	%rbp, %rdi
	call	pkt_send@PLT
.LVL262:
	.loc 1 429 0
	movq	%rbp, %rsi
	movl	%ebx, %edi
	call	pkt_recv@PLT
.LVL263:
	testl	%eax, %eax
	je	.L93
	movl	$-1, %r13d
	movl	%r13d, %r14d
	.loc 1 437 0 discriminator 1
	movl	$0, %ebx
.LVL264:
	.loc 1 429 0 discriminator 1
	cmpb	$53, 8(%rbp)
	jne	.L90
.LBB373:
	.loc 1 431 0
	movq	%rsp, %rsi
	movq	%rbp, %rdi
	call	pkt_begin@PLT
.LVL265:
	.loc 1 432 0
	movl	28(%rsp), %ebp
.LVL266:
	movq	%rsp, %rdi
	call	iter_nextval@PLT
.LVL267:
	movl	%ebp, %esi
	movq	%rax, %rdi
	call	as_int@PLT
.LVL268:
	movl	%eax, %r14d
.LVL269:
	.loc 1 433 0
	movl	28(%rsp), %ebp
	movq	%rsp, %rdi
	call	iter_nextval@PLT
.LVL270:
	movl	%ebp, %esi
	movq	%rax, %rdi
	call	as_int@PLT
.LVL271:
	movl	%eax, %r13d
.LVL272:
.LBE373:
	.loc 1 438 0
	testl	%r14d, %r14d
	js	.L95
	.loc 1 439 0
	movl	$48, %edi
	call	malloc@PLT
.LVL273:
	movq	%rax, %rbx
.LVL274:
	.loc 1 440 0
	movl	%r13d, (%rax)
	.loc 1 441 0
	movq	%r12, 16(%rax)
	.loc 1 442 0
	movq	4120(%r12), %rax
.LVL275:
	movq	%rax, 8(%rbx)
	.loc 1 443 0
	movl	$-1, 32(%rbx)
	movl	$-1, 28(%rbx)
	movl	$-1, 24(%rbx)
	jmp	.L90
.LVL276:
.L93:
	movl	$-1, %r13d
	movl	%r13d, %r14d
	.loc 1 437 0
	movl	$0, %ebx
.LVL277:
	jmp	.L90
.LVL278:
.L95:
	movl	$0, %ebx
.LVL279:
.L90:
	.loc 1 446 0
	movl	$0, %eax
	call	pkt_release@PLT
.LVL280:
	.loc 1 447 0
	movl	$0, %eax
	call	log_level@PLT
.LVL281:
	testb	$4, %al
	je	.L91
.LVL282:
	.loc 1 447 0 is_stmt 0 discriminator 1
	movq	stderr@GOTPCREL(%rip), %rbp
.LVL283:
.LBB374:
.LBB375:
	.loc 2 97 0 is_stmt 1 discriminator 1
	leaq	__func__.6301(%rip), %rcx
	leaq	.LC0(%rip), %rdx
	movl	$1, %esi
	movq	0(%rbp), %rdi
	movl	$0, %eax
	call	__fprintf_chk@PLT
.LVL284:
.LBE375:
.LBE374:
.LBB376:
.LBB377:
	movl	%r13d, %r8d
	movl	%r14d, %ecx
	leaq	.LC12(%rip), %rdx
	movl	$1, %esi
	movq	0(%rbp), %rdi
	movl	$0, %eax
	call	__fprintf_chk@PLT
.LVL285:
.LBE377:
.LBE376:
.LBB378:
.LBB379:
	movq	0(%rbp), %rsi
	movl	$10, %edi
	call	fputc@PLT
.LVL286:
.L91:
.LBE379:
.LBE378:
	.loc 1 449 0
	movq	%rbx, %rax
	movq	40(%rsp), %rdx
	xorq	%fs:40, %rdx
	je	.L92
.LVL287:
	call	__stack_chk_fail@PLT
.LVL288:
.L92:
	addq	$48, %rsp
	.cfi_def_cfa_offset 48
	popq	%rbx
	.cfi_def_cfa_offset 40
	popq	%rbp
	.cfi_def_cfa_offset 32
	popq	%r12
	.cfi_def_cfa_offset 24
.LVL289:
	popq	%r13
	.cfi_def_cfa_offset 16
	popq	%r14
	.cfi_def_cfa_offset 8
	ret
	.cfi_endproc
.LFE95:
	.size	usb_open, .-usb_open
	.globl	usb_close
	.type	usb_close, @function
usb_close:
.LFB96:
	.loc 1 452 0
	.cfi_startproc
.LVL290:
	pushq	%r12
	.cfi_def_cfa_offset 16
	.cfi_offset 12, -16
	pushq	%rbp
	.cfi_def_cfa_offset 24
	.cfi_offset 6, -24
	pushq	%rbx
	.cfi_def_cfa_offset 32
	.cfi_offset 3, -32
	subq	$48, %rsp
	.cfi_def_cfa_offset 80
	movq	%rdi, %r12
	.loc 1 452 0
	movq	%fs:40, %rax
	movq	%rax, 40(%rsp)
	xorl	%eax, %eax
	.loc 1 454 0
	call	pkt_claim@PLT
.LVL291:
	movq	%rax, %rbx
.LVL292:
	.loc 1 455 0
	movl	$0, %eax
.LVL293:
	call	session_get@PLT
.LVL294:
	movl	%eax, %ebp
.LVL295:
	.loc 1 458 0
	movl	$54, %esi
	movq	%rbx, %rdi
	call	pkt_init@PLT
.LVL296:
	.loc 1 459 0
	movl	(%r12), %ecx
	movl	$4, %edx
	movl	$2, %esi
	movq	%rbx, %rdi
	call	pkt_addnumeric@PLT
.LVL297:
	.loc 1 460 0
	movl	%ebp, %esi
	movq	%rbx, %rdi
	call	pkt_send@PLT
.LVL298:
	.loc 1 463 0
	movq	%r12, %rdi
	call	free@PLT
.LVL299:
	.loc 1 467 0
	movq	%rbx, %rsi
	movl	%ebp, %edi
	call	pkt_recv@PLT
.LVL300:
	testl	%eax, %eax
	je	.L101
	.loc 1 466 0 discriminator 1
	movl	$-1, %ebp
.LVL301:
	.loc 1 467 0 discriminator 1
	cmpb	$54, 8(%rbx)
	jne	.L98
.LBB380:
	.loc 1 469 0
	movq	%rsp, %rsi
	movq	%rbx, %rdi
	call	pkt_begin@PLT
.LVL302:
	.loc 1 470 0
	movl	28(%rsp), %ebx
.LVL303:
	movq	%rsp, %rdi
	call	iter_nextval@PLT
.LVL304:
	movl	%ebx, %esi
	movq	%rax, %rdi
	call	as_int@PLT
.LVL305:
	movl	%eax, %ebp
.LVL306:
	jmp	.L98
.LVL307:
.L101:
.LBE380:
	.loc 1 466 0
	movl	$-1, %ebp
.LVL308:
.L98:
	.loc 1 473 0
	movl	$0, %eax
	call	pkt_release@PLT
.LVL309:
	.loc 1 474 0
	movl	$0, %eax
	call	log_level@PLT
.LVL310:
	testb	$4, %al
	je	.L99
.LVL311:
	.loc 1 474 0 is_stmt 0 discriminator 1
	movq	stderr@GOTPCREL(%rip), %rbx
.LVL312:
.LBB381:
.LBB382:
	.loc 2 97 0 is_stmt 1 discriminator 1
	leaq	__func__.6309(%rip), %rcx
	leaq	.LC0(%rip), %rdx
	movl	$1, %esi
	movq	(%rbx), %rdi
	movl	$0, %eax
	call	__fprintf_chk@PLT
.LVL313:
.LBE382:
.LBE381:
.LBB383:
.LBB384:
	movl	%ebp, %ecx
	leaq	.LC6(%rip), %rdx
	movl	$1, %esi
	movq	(%rbx), %rdi
	movl	$0, %eax
	call	__fprintf_chk@PLT
.LVL314:
.LBE384:
.LBE383:
.LBB385:
.LBB386:
	movq	(%rbx), %rsi
	movl	$10, %edi
	call	fputc@PLT
.LVL315:
.L99:
.LBE386:
.LBE385:
	.loc 1 476 0
	movl	%ebp, %eax
	movq	40(%rsp), %rdx
	xorq	%fs:40, %rdx
	je	.L100
.LVL316:
	call	__stack_chk_fail@PLT
.LVL317:
.L100:
	addq	$48, %rsp
	.cfi_def_cfa_offset 32
	popq	%rbx
	.cfi_def_cfa_offset 24
	popq	%rbp
	.cfi_def_cfa_offset 16
	popq	%r12
	.cfi_def_cfa_offset 8
.LVL318:
	ret
	.cfi_endproc
.LFE96:
	.size	usb_close, .-usb_close
	.globl	usb_set_configuration
	.type	usb_set_configuration, @function
usb_set_configuration:
.LFB97:
	.loc 1 479 0
	.cfi_startproc
.LVL319:
	pushq	%r13
	.cfi_def_cfa_offset 16
	.cfi_offset 13, -16
	pushq	%r12
	.cfi_def_cfa_offset 24
	.cfi_offset 12, -24
	pushq	%rbp
	.cfi_def_cfa_offset 32
	.cfi_offset 6, -32
	pushq	%rbx
	.cfi_def_cfa_offset 40
	.cfi_offset 3, -40
	subq	$56, %rsp
	.cfi_def_cfa_offset 96
	movq	%rdi, %r13
	movl	%esi, %ebp
	.loc 1 479 0
	movq	%fs:40, %rax
	movq	%rax, 40(%rsp)
	xorl	%eax, %eax
	.loc 1 481 0
	call	pkt_claim@PLT
.LVL320:
	movq	%rax, %rbx
.LVL321:
	.loc 1 482 0
	movl	$0, %eax
.LVL322:
	call	session_get@PLT
.LVL323:
	movl	%eax, %r12d
.LVL324:
	.loc 1 485 0
	movl	$62, %esi
	movq	%rbx, %rdi
	call	pkt_init@PLT
.LVL325:
	.loc 1 486 0
	movl	0(%r13), %ecx
	movl	$4, %edx
	movl	$2, %esi
	movq	%rbx, %rdi
	call	pkt_addnumeric@PLT
.LVL326:
	.loc 1 487 0
	movl	%ebp, %ecx
	movl	$4, %edx
	movl	$2, %esi
	movq	%rbx, %rdi
	call	pkt_addnumeric@PLT
.LVL327:
	.loc 1 488 0
	movl	%r12d, %esi
	movq	%rbx, %rdi
	call	pkt_send@PLT
.LVL328:
	.loc 1 492 0
	movq	%rbx, %rsi
	movl	%r12d, %edi
	call	pkt_recv@PLT
.LVL329:
	testl	%eax, %eax
	je	.L108
	.loc 1 491 0 discriminator 1
	movl	$-1, %r12d
.LVL330:
	.loc 1 492 0 discriminator 1
	cmpb	$62, 8(%rbx)
	jne	.L105
.LBB387:
	.loc 1 494 0
	movq	%rsp, %rsi
	movq	%rbx, %rdi
	call	pkt_begin@PLT
.LVL331:
	.loc 1 497 0
	movl	28(%rsp), %ebx
.LVL332:
	movq	%rsp, %rdi
	call	iter_nextval@PLT
.LVL333:
	movl	%ebx, %esi
	movq	%rax, %rdi
	call	as_int@PLT
.LVL334:
	movl	%eax, %r12d
.LVL335:
	.loc 1 500 0
	movl	28(%rsp), %ebx
	movq	%rsp, %rdi
	call	iter_nextval@PLT
.LVL336:
	movl	%ebx, %esi
	movq	%rax, %rdi
	call	as_int@PLT
.LVL337:
	movl	%eax, %ebp
.LVL338:
	jmp	.L105
.LVL339:
.L108:
.LBE387:
	.loc 1 491 0
	movl	$-1, %r12d
.LVL340:
.L105:
	.loc 1 504 0
	movl	%ebp, 24(%r13)
	.loc 1 507 0
	movl	$0, %eax
	call	pkt_release@PLT
.LVL341:
	.loc 1 508 0
	movl	$0, %eax
	call	log_level@PLT
.LVL342:
	testb	$4, %al
	je	.L106
.LVL343:
	.loc 1 508 0 is_stmt 0 discriminator 1
	movq	stderr@GOTPCREL(%rip), %rbx
.LVL344:
.LBB388:
.LBB389:
	.loc 2 97 0 is_stmt 1 discriminator 1
	leaq	__func__.6318(%rip), %rcx
	leaq	.LC0(%rip), %rdx
	movl	$1, %esi
	movq	(%rbx), %rdi
	movl	$0, %eax
	call	__fprintf_chk@PLT
.LVL345:
.LBE389:
.LBE388:
.LBB390:
.LBB391:
	movl	%r12d, %ecx
	leaq	.LC6(%rip), %rdx
	movl	$1, %esi
	movq	(%rbx), %rdi
	movl	$0, %eax
	call	__fprintf_chk@PLT
.LVL346:
.LBE391:
.LBE390:
.LBB392:
.LBB393:
	movq	(%rbx), %rsi
	movl	$10, %edi
	call	fputc@PLT
.LVL347:
.L106:
.LBE393:
.LBE392:
	.loc 1 510 0
	movl	%r12d, %eax
	movq	40(%rsp), %rdx
	xorq	%fs:40, %rdx
	je	.L107
.LVL348:
	call	__stack_chk_fail@PLT
.LVL349:
.L107:
	addq	$56, %rsp
	.cfi_def_cfa_offset 40
	popq	%rbx
	.cfi_def_cfa_offset 32
	popq	%rbp
	.cfi_def_cfa_offset 24
.LVL350:
	popq	%r12
	.cfi_def_cfa_offset 16
	popq	%r13
	.cfi_def_cfa_offset 8
.LVL351:
	ret
	.cfi_endproc
.LFE97:
	.size	usb_set_configuration, .-usb_set_configuration
	.globl	usb_set_altinterface
	.type	usb_set_altinterface, @function
usb_set_altinterface:
.LFB98:
	.loc 1 513 0
	.cfi_startproc
.LVL352:
	pushq	%r13
	.cfi_def_cfa_offset 16
	.cfi_offset 13, -16
	pushq	%r12
	.cfi_def_cfa_offset 24
	.cfi_offset 12, -24
	pushq	%rbp
	.cfi_def_cfa_offset 32
	.cfi_offset 6, -32
	pushq	%rbx
	.cfi_def_cfa_offset 40
	.cfi_offset 3, -40
	subq	$56, %rsp
	.cfi_def_cfa_offset 96
	movq	%rdi, %r13
	movl	%esi, %ebp
	.loc 1 513 0
	movq	%fs:40, %rax
	movq	%rax, 40(%rsp)
	xorl	%eax, %eax
	.loc 1 515 0
	call	pkt_claim@PLT
.LVL353:
	movq	%rax, %rbx
.LVL354:
	.loc 1 516 0
	movl	$0, %eax
.LVL355:
	call	session_get@PLT
.LVL356:
	movl	%eax, %r12d
.LVL357:
	.loc 1 519 0
	movl	$63, %esi
	movq	%rbx, %rdi
	call	pkt_init@PLT
.LVL358:
	.loc 1 520 0
	movl	0(%r13), %ecx
	movl	$4, %edx
	movl	$2, %esi
	movq	%rbx, %rdi
	call	pkt_addnumeric@PLT
.LVL359:
	.loc 1 521 0
	movl	%ebp, %ecx
	movl	$4, %edx
	movl	$2, %esi
	movq	%rbx, %rdi
	call	pkt_addnumeric@PLT
.LVL360:
	.loc 1 522 0
	movl	%r12d, %esi
	movq	%rbx, %rdi
	call	pkt_send@PLT
.LVL361:
	.loc 1 526 0
	movq	%rbx, %rsi
	movl	%r12d, %edi
	call	pkt_recv@PLT
.LVL362:
	testl	%eax, %eax
	je	.L115
	.loc 1 525 0 discriminator 1
	movl	$-1, %r12d
.LVL363:
	.loc 1 526 0 discriminator 1
	cmpb	$63, 8(%rbx)
	jne	.L112
.LBB394:
	.loc 1 528 0
	movq	%rsp, %rsi
	movq	%rbx, %rdi
	call	pkt_begin@PLT
.LVL364:
	.loc 1 531 0
	movl	28(%rsp), %ebx
.LVL365:
	movq	%rsp, %rdi
	call	iter_nextval@PLT
.LVL366:
	movl	%ebx, %esi
	movq	%rax, %rdi
	call	as_int@PLT
.LVL367:
	movl	%eax, %r12d
.LVL368:
	.loc 1 534 0
	movl	28(%rsp), %ebx
	movq	%rsp, %rdi
	call	iter_nextval@PLT
.LVL369:
	movl	%ebx, %esi
	movq	%rax, %rdi
	call	as_int@PLT
.LVL370:
	movl	%eax, %ebp
.LVL371:
	jmp	.L112
.LVL372:
.L115:
.LBE394:
	.loc 1 525 0
	movl	$-1, %r12d
.LVL373:
.L112:
	.loc 1 538 0
	movl	%ebp, 32(%r13)
	.loc 1 541 0
	movl	$0, %eax
	call	pkt_release@PLT
.LVL374:
	.loc 1 542 0
	movl	$0, %eax
	call	log_level@PLT
.LVL375:
	testb	$4, %al
	je	.L113
.LVL376:
	.loc 1 542 0 is_stmt 0 discriminator 1
	movq	stderr@GOTPCREL(%rip), %rbx
.LVL377:
.LBB395:
.LBB396:
	.loc 2 97 0 is_stmt 1 discriminator 1
	leaq	__func__.6327(%rip), %rcx
	leaq	.LC0(%rip), %rdx
	movl	$1, %esi
	movq	(%rbx), %rdi
	movl	$0, %eax
	call	__fprintf_chk@PLT
.LVL378:
.LBE396:
.LBE395:
.LBB397:
.LBB398:
	movl	%r12d, %ecx
	leaq	.LC6(%rip), %rdx
	movl	$1, %esi
	movq	(%rbx), %rdi
	movl	$0, %eax
	call	__fprintf_chk@PLT
.LVL379:
.LBE398:
.LBE397:
.LBB399:
.LBB400:
	movq	(%rbx), %rsi
	movl	$10, %edi
	call	fputc@PLT
.LVL380:
.L113:
.LBE400:
.LBE399:
	.loc 1 544 0
	movl	%r12d, %eax
	movq	40(%rsp), %rdx
	xorq	%fs:40, %rdx
	je	.L114
.LVL381:
	call	__stack_chk_fail@PLT
.LVL382:
.L114:
	addq	$56, %rsp
	.cfi_def_cfa_offset 40
	popq	%rbx
	.cfi_def_cfa_offset 32
	popq	%rbp
	.cfi_def_cfa_offset 24
.LVL383:
	popq	%r12
	.cfi_def_cfa_offset 16
	popq	%r13
	.cfi_def_cfa_offset 8
.LVL384:
	ret
	.cfi_endproc
.LFE98:
	.size	usb_set_altinterface, .-usb_set_altinterface
	.globl	usb_resetep
	.type	usb_resetep, @function
usb_resetep:
.LFB99:
	.loc 1 547 0
	.cfi_startproc
.LVL385:
	pushq	%r13
	.cfi_def_cfa_offset 16
	.cfi_offset 13, -16
	pushq	%r12
	.cfi_def_cfa_offset 24
	.cfi_offset 12, -24
	pushq	%rbp
	.cfi_def_cfa_offset 32
	.cfi_offset 6, -32
	pushq	%rbx
	.cfi_def_cfa_offset 40
	.cfi_offset 3, -40
	subq	$56, %rsp
	.cfi_def_cfa_offset 96
	movq	%rdi, %r13
	movl	%esi, %r12d
	.loc 1 547 0
	movq	%fs:40, %rax
	movq	%rax, 40(%rsp)
	xorl	%eax, %eax
	.loc 1 549 0
	call	pkt_claim@PLT
.LVL386:
	movq	%rax, %rbx
.LVL387:
	.loc 1 550 0
	movl	$0, %eax
.LVL388:
	call	session_get@PLT
.LVL389:
	movl	%eax, %ebp
.LVL390:
	.loc 1 553 0
	movl	$64, %esi
	movq	%rbx, %rdi
	call	pkt_init@PLT
.LVL391:
	.loc 1 554 0
	movl	0(%r13), %ecx
	movl	$4, %edx
	movl	$2, %esi
	movq	%rbx, %rdi
	call	pkt_addnumeric@PLT
.LVL392:
	.loc 1 555 0
	movl	%r12d, %ecx
	movl	$4, %edx
	movl	$3, %esi
	movq	%rbx, %rdi
	call	pkt_addnumeric@PLT
.LVL393:
	.loc 1 556 0
	movl	%ebp, %esi
	movq	%rbx, %rdi
	call	pkt_send@PLT
.LVL394:
	.loc 1 560 0
	movq	%rbx, %rsi
	movl	%ebp, %edi
	call	pkt_recv@PLT
.LVL395:
	testl	%eax, %eax
	je	.L122
	.loc 1 559 0 discriminator 1
	movl	$-1, %ebp
.LVL396:
	.loc 1 560 0 discriminator 1
	cmpb	$64, 8(%rbx)
	jne	.L119
.LBB401:
	.loc 1 562 0
	movq	%rsp, %rsi
	movq	%rbx, %rdi
	call	pkt_begin@PLT
.LVL397:
	.loc 1 565 0
	movl	28(%rsp), %ebx
.LVL398:
	movq	%rsp, %rdi
	call	iter_nextval@PLT
.LVL399:
	movl	%ebx, %esi
	movq	%rax, %rdi
	call	as_int@PLT
.LVL400:
	movl	%eax, %ebp
.LVL401:
	jmp	.L119
.LVL402:
.L122:
.LBE401:
	.loc 1 559 0
	movl	$-1, %ebp
.LVL403:
.L119:
	.loc 1 569 0
	movl	$0, %eax
	call	pkt_release@PLT
.LVL404:
	.loc 1 570 0
	movl	$0, %eax
	call	log_level@PLT
.LVL405:
	testb	$4, %al
	je	.L120
.LVL406:
	.loc 1 570 0 is_stmt 0 discriminator 1
	movq	stderr@GOTPCREL(%rip), %rbx
.LVL407:
.LBB402:
.LBB403:
	.loc 2 97 0 is_stmt 1 discriminator 1
	leaq	__func__.6336(%rip), %rcx
	leaq	.LC0(%rip), %rdx
	movl	$1, %esi
	movq	(%rbx), %rdi
	movl	$0, %eax
	call	__fprintf_chk@PLT
.LVL408:
.LBE403:
.LBE402:
.LBB404:
.LBB405:
	movl	%ebp, %ecx
	leaq	.LC6(%rip), %rdx
	movl	$1, %esi
	movq	(%rbx), %rdi
	movl	$0, %eax
	call	__fprintf_chk@PLT
.LVL409:
.LBE405:
.LBE404:
.LBB406:
.LBB407:
	movq	(%rbx), %rsi
	movl	$10, %edi
	call	fputc@PLT
.LVL410:
.L120:
.LBE407:
.LBE406:
	.loc 1 572 0
	movl	%ebp, %eax
	movq	40(%rsp), %rdx
	xorq	%fs:40, %rdx
	je	.L121
.LVL411:
	call	__stack_chk_fail@PLT
.LVL412:
.L121:
	addq	$56, %rsp
	.cfi_def_cfa_offset 40
	popq	%rbx
	.cfi_def_cfa_offset 32
	popq	%rbp
	.cfi_def_cfa_offset 24
	popq	%r12
	.cfi_def_cfa_offset 16
.LVL413:
	popq	%r13
	.cfi_def_cfa_offset 8
.LVL414:
	ret
	.cfi_endproc
.LFE99:
	.size	usb_resetep, .-usb_resetep
	.globl	usb_clear_halt
	.type	usb_clear_halt, @function
usb_clear_halt:
.LFB100:
	.loc 1 575 0
	.cfi_startproc
.LVL415:
	pushq	%r13
	.cfi_def_cfa_offset 16
	.cfi_offset 13, -16
	pushq	%r12
	.cfi_def_cfa_offset 24
	.cfi_offset 12, -24
	pushq	%rbp
	.cfi_def_cfa_offset 32
	.cfi_offset 6, -32
	pushq	%rbx
	.cfi_def_cfa_offset 40
	.cfi_offset 3, -40
	subq	$56, %rsp
	.cfi_def_cfa_offset 96
	movq	%rdi, %r13
	movl	%esi, %r12d
	.loc 1 575 0
	movq	%fs:40, %rax
	movq	%rax, 40(%rsp)
	xorl	%eax, %eax
	.loc 1 577 0
	call	pkt_claim@PLT
.LVL416:
	movq	%rax, %rbx
.LVL417:
	.loc 1 578 0
	movl	$0, %eax
.LVL418:
	call	session_get@PLT
.LVL419:
	movl	%eax, %ebp
.LVL420:
	.loc 1 581 0
	movl	$65, %esi
	movq	%rbx, %rdi
	call	pkt_init@PLT
.LVL421:
	.loc 1 582 0
	movl	0(%r13), %ecx
	movl	$4, %edx
	movl	$2, %esi
	movq	%rbx, %rdi
	call	pkt_addnumeric@PLT
.LVL422:
	.loc 1 583 0
	movl	%r12d, %ecx
	movl	$4, %edx
	movl	$3, %esi
	movq	%rbx, %rdi
	call	pkt_addnumeric@PLT
.LVL423:
	.loc 1 584 0
	movl	%ebp, %esi
	movq	%rbx, %rdi
	call	pkt_send@PLT
.LVL424:
	.loc 1 588 0
	movq	%rbx, %rsi
	movl	%ebp, %edi
	call	pkt_recv@PLT
.LVL425:
	testl	%eax, %eax
	je	.L129
	.loc 1 587 0 discriminator 1
	movl	$-1, %ebp
.LVL426:
	.loc 1 588 0 discriminator 1
	cmpb	$65, 8(%rbx)
	jne	.L126
.LBB408:
	.loc 1 590 0
	movq	%rsp, %rsi
	movq	%rbx, %rdi
	call	pkt_begin@PLT
.LVL427:
	.loc 1 593 0
	movl	28(%rsp), %ebx
.LVL428:
	movq	%rsp, %rdi
	call	iter_nextval@PLT
.LVL429:
	movl	%ebx, %esi
	movq	%rax, %rdi
	call	as_int@PLT
.LVL430:
	movl	%eax, %ebp
.LVL431:
	jmp	.L126
.LVL432:
.L129:
.LBE408:
	.loc 1 587 0
	movl	$-1, %ebp
.LVL433:
.L126:
	.loc 1 597 0
	movl	$0, %eax
	call	pkt_release@PLT
.LVL434:
	.loc 1 598 0
	movl	$0, %eax
	call	log_level@PLT
.LVL435:
	testb	$4, %al
	je	.L127
.LVL436:
	.loc 1 598 0 is_stmt 0 discriminator 1
	movq	stderr@GOTPCREL(%rip), %rbx
.LVL437:
.LBB409:
.LBB410:
	.loc 2 97 0 is_stmt 1 discriminator 1
	leaq	__func__.6345(%rip), %rcx
	leaq	.LC0(%rip), %rdx
	movl	$1, %esi
	movq	(%rbx), %rdi
	movl	$0, %eax
	call	__fprintf_chk@PLT
.LVL438:
.LBE410:
.LBE409:
.LBB411:
.LBB412:
	movl	%ebp, %ecx
	leaq	.LC6(%rip), %rdx
	movl	$1, %esi
	movq	(%rbx), %rdi
	movl	$0, %eax
	call	__fprintf_chk@PLT
.LVL439:
.LBE412:
.LBE411:
.LBB413:
.LBB414:
	movq	(%rbx), %rsi
	movl	$10, %edi
	call	fputc@PLT
.LVL440:
.L127:
.LBE414:
.LBE413:
	.loc 1 600 0
	movl	%ebp, %eax
	movq	40(%rsp), %rdx
	xorq	%fs:40, %rdx
	je	.L128
.LVL441:
	call	__stack_chk_fail@PLT
.LVL442:
.L128:
	addq	$56, %rsp
	.cfi_def_cfa_offset 40
	popq	%rbx
	.cfi_def_cfa_offset 32
	popq	%rbp
	.cfi_def_cfa_offset 24
	popq	%r12
	.cfi_def_cfa_offset 16
.LVL443:
	popq	%r13
	.cfi_def_cfa_offset 8
.LVL444:
	ret
	.cfi_endproc
.LFE100:
	.size	usb_clear_halt, .-usb_clear_halt
	.globl	usb_reset
	.type	usb_reset, @function
usb_reset:
.LFB101:
	.loc 1 603 0
	.cfi_startproc
.LVL445:
	pushq	%r12
	.cfi_def_cfa_offset 16
	.cfi_offset 12, -16
	pushq	%rbp
	.cfi_def_cfa_offset 24
	.cfi_offset 6, -24
	pushq	%rbx
	.cfi_def_cfa_offset 32
	.cfi_offset 3, -32
	subq	$48, %rsp
	.cfi_def_cfa_offset 80
	movq	%rdi, %r12
	.loc 1 603 0
	movq	%fs:40, %rax
	movq	%rax, 40(%rsp)
	xorl	%eax, %eax
	.loc 1 605 0
	call	pkt_claim@PLT
.LVL446:
	movq	%rax, %rbx
.LVL447:
	.loc 1 606 0
	movl	$0, %eax
.LVL448:
	call	session_get@PLT
.LVL449:
	movl	%eax, %ebp
.LVL450:
	.loc 1 609 0
	movl	$66, %esi
	movq	%rbx, %rdi
	call	pkt_init@PLT
.LVL451:
	.loc 1 610 0
	movl	(%r12), %ecx
	movl	$4, %edx
	movl	$2, %esi
	movq	%rbx, %rdi
	call	pkt_addnumeric@PLT
.LVL452:
	.loc 1 611 0
	movl	%ebp, %esi
	movq	%rbx, %rdi
	call	pkt_send@PLT
.LVL453:
	.loc 1 615 0
	movq	%rbx, %rsi
	movl	%ebp, %edi
	call	pkt_recv@PLT
.LVL454:
	testl	%eax, %eax
	je	.L136
	.loc 1 614 0 discriminator 1
	movl	$-1, %ebp
.LVL455:
	.loc 1 615 0 discriminator 1
	cmpb	$66, 8(%rbx)
	jne	.L133
.LBB415:
	.loc 1 617 0
	movq	%rsp, %rsi
	movq	%rbx, %rdi
	call	pkt_begin@PLT
.LVL456:
	.loc 1 620 0
	movl	28(%rsp), %ebx
.LVL457:
	movq	%rsp, %rdi
	call	iter_nextval@PLT
.LVL458:
	movl	%ebx, %esi
	movq	%rax, %rdi
	call	as_int@PLT
.LVL459:
	movl	%eax, %ebp
.LVL460:
	jmp	.L133
.LVL461:
.L136:
.LBE415:
	.loc 1 614 0
	movl	$-1, %ebp
.LVL462:
.L133:
	.loc 1 624 0
	movl	$0, %eax
	call	pkt_release@PLT
.LVL463:
	.loc 1 625 0
	movl	$0, %eax
	call	log_level@PLT
.LVL464:
	testb	$4, %al
	je	.L134
.LVL465:
	.loc 1 625 0 is_stmt 0 discriminator 1
	movq	stderr@GOTPCREL(%rip), %rbx
.LVL466:
.LBB416:
.LBB417:
	.loc 2 97 0 is_stmt 1 discriminator 1
	leaq	__func__.6353(%rip), %rcx
	leaq	.LC0(%rip), %rdx
	movl	$1, %esi
	movq	(%rbx), %rdi
	movl	$0, %eax
	call	__fprintf_chk@PLT
.LVL467:
.LBE417:
.LBE416:
.LBB418:
.LBB419:
	movl	%ebp, %ecx
	leaq	.LC6(%rip), %rdx
	movl	$1, %esi
	movq	(%rbx), %rdi
	movl	$0, %eax
	call	__fprintf_chk@PLT
.LVL468:
.LBE419:
.LBE418:
.LBB420:
.LBB421:
	movq	(%rbx), %rsi
	movl	$10, %edi
	call	fputc@PLT
.LVL469:
.L134:
.LBE421:
.LBE420:
	.loc 1 627 0
	movl	%ebp, %eax
	movq	40(%rsp), %rdx
	xorq	%fs:40, %rdx
	je	.L135
.LVL470:
	call	__stack_chk_fail@PLT
.LVL471:
.L135:
	addq	$48, %rsp
	.cfi_def_cfa_offset 32
	popq	%rbx
	.cfi_def_cfa_offset 24
	popq	%rbp
	.cfi_def_cfa_offset 16
	popq	%r12
	.cfi_def_cfa_offset 8
.LVL472:
	ret
	.cfi_endproc
.LFE101:
	.size	usb_reset, .-usb_reset
	.globl	usb_claim_interface
	.type	usb_claim_interface, @function
usb_claim_interface:
.LFB102:
	.loc 1 630 0
	.cfi_startproc
.LVL473:
	pushq	%r13
	.cfi_def_cfa_offset 16
	.cfi_offset 13, -16
	pushq	%r12
	.cfi_def_cfa_offset 24
	.cfi_offset 12, -24
	pushq	%rbp
	.cfi_def_cfa_offset 32
	.cfi_offset 6, -32
	pushq	%rbx
	.cfi_def_cfa_offset 40
	.cfi_offset 3, -40
	subq	$56, %rsp
	.cfi_def_cfa_offset 96
	movq	%rdi, %r13
	movl	%esi, %r12d
	.loc 1 630 0
	movq	%fs:40, %rax
	movq	%rax, 40(%rsp)
	xorl	%eax, %eax
	.loc 1 632 0
	call	pkt_claim@PLT
.LVL474:
	movq	%rax, %rbx
.LVL475:
	.loc 1 633 0
	movl	$0, %eax
.LVL476:
	call	session_get@PLT
.LVL477:
	movl	%eax, %ebp
.LVL478:
	.loc 1 636 0
	movl	$56, %esi
	movq	%rbx, %rdi
	call	pkt_init@PLT
.LVL479:
	.loc 1 637 0
	movl	0(%r13), %ecx
	movl	$4, %edx
	movl	$2, %esi
	movq	%rbx, %rdi
	call	pkt_addnumeric@PLT
.LVL480:
	.loc 1 638 0
	movl	%r12d, %ecx
	movl	$4, %edx
	movl	$2, %esi
	movq	%rbx, %rdi
	call	pkt_addnumeric@PLT
.LVL481:
	.loc 1 639 0
	movl	%ebp, %esi
	movq	%rbx, %rdi
	call	pkt_send@PLT
.LVL482:
	.loc 1 643 0
	movq	%rbx, %rsi
	movl	%ebp, %edi
	call	pkt_recv@PLT
.LVL483:
	testl	%eax, %eax
	je	.L143
	.loc 1 642 0 discriminator 1
	movl	$-1, %ebp
.LVL484:
	.loc 1 643 0 discriminator 1
	cmpb	$56, 8(%rbx)
	jne	.L140
.LBB422:
	.loc 1 645 0
	movq	%rsp, %rsi
	movq	%rbx, %rdi
	call	pkt_begin@PLT
.LVL485:
	.loc 1 646 0
	movl	28(%rsp), %ebx
.LVL486:
	movq	%rsp, %rdi
	call	iter_nextval@PLT
.LVL487:
	movl	%ebx, %esi
	movq	%rax, %rdi
	call	as_int@PLT
.LVL488:
	movl	%eax, %ebp
.LVL489:
	jmp	.L140
.LVL490:
.L143:
.LBE422:
	.loc 1 642 0
	movl	$-1, %ebp
.LVL491:
.L140:
	.loc 1 649 0
	movl	$0, %eax
	call	pkt_release@PLT
.LVL492:
	.loc 1 650 0
	movl	$0, %eax
	call	log_level@PLT
.LVL493:
	testb	$4, %al
	je	.L141
.LVL494:
	.loc 1 650 0 is_stmt 0 discriminator 1
	movq	stderr@GOTPCREL(%rip), %rbx
.LVL495:
.LBB423:
.LBB424:
	.loc 2 97 0 is_stmt 1 discriminator 1
	leaq	__func__.6362(%rip), %rcx
	leaq	.LC0(%rip), %rdx
	movl	$1, %esi
	movq	(%rbx), %rdi
	movl	$0, %eax
	call	__fprintf_chk@PLT
.LVL496:
.LBE424:
.LBE423:
.LBB425:
.LBB426:
	movl	%ebp, %ecx
	leaq	.LC6(%rip), %rdx
	movl	$1, %esi
	movq	(%rbx), %rdi
	movl	$0, %eax
	call	__fprintf_chk@PLT
.LVL497:
.LBE426:
.LBE425:
.LBB427:
.LBB428:
	movq	(%rbx), %rsi
	movl	$10, %edi
	call	fputc@PLT
.LVL498:
.L141:
.LBE428:
.LBE427:
	.loc 1 652 0
	movl	%ebp, %eax
	movq	40(%rsp), %rdx
	xorq	%fs:40, %rdx
	je	.L142
.LVL499:
	call	__stack_chk_fail@PLT
.LVL500:
.L142:
	addq	$56, %rsp
	.cfi_def_cfa_offset 40
	popq	%rbx
	.cfi_def_cfa_offset 32
	popq	%rbp
	.cfi_def_cfa_offset 24
	popq	%r12
	.cfi_def_cfa_offset 16
.LVL501:
	popq	%r13
	.cfi_def_cfa_offset 8
.LVL502:
	ret
	.cfi_endproc
.LFE102:
	.size	usb_claim_interface, .-usb_claim_interface
	.globl	usb_release_interface
	.type	usb_release_interface, @function
usb_release_interface:
.LFB103:
	.loc 1 655 0
	.cfi_startproc
.LVL503:
	pushq	%r13
	.cfi_def_cfa_offset 16
	.cfi_offset 13, -16
	pushq	%r12
	.cfi_def_cfa_offset 24
	.cfi_offset 12, -24
	pushq	%rbp
	.cfi_def_cfa_offset 32
	.cfi_offset 6, -32
	pushq	%rbx
	.cfi_def_cfa_offset 40
	.cfi_offset 3, -40
	subq	$56, %rsp
	.cfi_def_cfa_offset 96
	movq	%rdi, %r13
	movl	%esi, %r12d
	.loc 1 655 0
	movq	%fs:40, %rax
	movq	%rax, 40(%rsp)
	xorl	%eax, %eax
	.loc 1 657 0
	call	pkt_claim@PLT
.LVL504:
	movq	%rax, %rbx
.LVL505:
	.loc 1 658 0
	movl	$0, %eax
.LVL506:
	call	session_get@PLT
.LVL507:
	movl	%eax, %ebp
.LVL508:
	.loc 1 661 0
	movl	$57, %esi
	movq	%rbx, %rdi
	call	pkt_init@PLT
.LVL509:
	.loc 1 662 0
	movl	0(%r13), %ecx
	movl	$4, %edx
	movl	$2, %esi
	movq	%rbx, %rdi
	call	pkt_addnumeric@PLT
.LVL510:
	.loc 1 663 0
	movl	%r12d, %ecx
	movl	$4, %edx
	movl	$2, %esi
	movq	%rbx, %rdi
	call	pkt_addnumeric@PLT
.LVL511:
	.loc 1 664 0
	movl	%ebp, %esi
	movq	%rbx, %rdi
	call	pkt_send@PLT
.LVL512:
	.loc 1 668 0
	movq	%rbx, %rsi
	movl	%ebp, %edi
	call	pkt_recv@PLT
.LVL513:
	testl	%eax, %eax
	je	.L150
	.loc 1 667 0 discriminator 1
	movl	$-1, %ebp
.LVL514:
	.loc 1 668 0 discriminator 1
	cmpb	$57, 8(%rbx)
	jne	.L147
.LBB429:
	.loc 1 670 0
	movq	%rsp, %rsi
	movq	%rbx, %rdi
	call	pkt_begin@PLT
.LVL515:
	.loc 1 671 0
	movl	28(%rsp), %ebx
.LVL516:
	movq	%rsp, %rdi
	call	iter_nextval@PLT
.LVL517:
	movl	%ebx, %esi
	movq	%rax, %rdi
	call	as_int@PLT
.LVL518:
	movl	%eax, %ebp
.LVL519:
	jmp	.L147
.LVL520:
.L150:
.LBE429:
	.loc 1 667 0
	movl	$-1, %ebp
.LVL521:
.L147:
	.loc 1 674 0
	movl	$0, %eax
	call	pkt_release@PLT
.LVL522:
	.loc 1 675 0
	movl	$0, %eax
	call	log_level@PLT
.LVL523:
	testb	$4, %al
	je	.L148
.LVL524:
	.loc 1 675 0 is_stmt 0 discriminator 1
	movq	stderr@GOTPCREL(%rip), %rbx
.LVL525:
.LBB430:
.LBB431:
	.loc 2 97 0 is_stmt 1 discriminator 1
	leaq	__func__.6371(%rip), %rcx
	leaq	.LC0(%rip), %rdx
	movl	$1, %esi
	movq	(%rbx), %rdi
	movl	$0, %eax
	call	__fprintf_chk@PLT
.LVL526:
.LBE431:
.LBE430:
.LBB432:
.LBB433:
	movl	%ebp, %ecx
	leaq	.LC6(%rip), %rdx
	movl	$1, %esi
	movq	(%rbx), %rdi
	movl	$0, %eax
	call	__fprintf_chk@PLT
.LVL527:
.LBE433:
.LBE432:
.LBB434:
.LBB435:
	movq	(%rbx), %rsi
	movl	$10, %edi
	call	fputc@PLT
.LVL528:
.L148:
.LBE435:
.LBE434:
	.loc 1 677 0
	movl	%ebp, %eax
	movq	40(%rsp), %rdx
	xorq	%fs:40, %rdx
	je	.L149
.LVL529:
	call	__stack_chk_fail@PLT
.LVL530:
.L149:
	addq	$56, %rsp
	.cfi_def_cfa_offset 40
	popq	%rbx
	.cfi_def_cfa_offset 32
	popq	%rbp
	.cfi_def_cfa_offset 24
	popq	%r12
	.cfi_def_cfa_offset 16
.LVL531:
	popq	%r13
	.cfi_def_cfa_offset 8
.LVL532:
	ret
	.cfi_endproc
.LFE103:
	.size	usb_release_interface, .-usb_release_interface
	.globl	usb_control_msg
	.type	usb_control_msg, @function
usb_control_msg:
.LFB104:
	.loc 1 685 0
	.cfi_startproc
.LVL533:
	pushq	%r15
	.cfi_def_cfa_offset 16
	.cfi_offset 15, -16
	pushq	%r14
	.cfi_def_cfa_offset 24
	.cfi_offset 14, -24
	pushq	%r13
	.cfi_def_cfa_offset 32
	.cfi_offset 13, -32
	pushq	%r12
	.cfi_def_cfa_offset 40
	.cfi_offset 12, -40
	pushq	%rbp
	.cfi_def_cfa_offset 48
	.cfi_offset 6, -48
	pushq	%rbx
	.cfi_def_cfa_offset 56
	.cfi_offset 3, -56
	subq	$72, %rsp
	.cfi_def_cfa_offset 128
	movq	%rdi, %r15
	movl	%esi, %r14d
	movl	%edx, %r13d
	movl	%ecx, 8(%rsp)
	movl	%r8d, 12(%rsp)
	movq	%r9, %r12
	.loc 1 685 0
	movq	%fs:40, %rax
	movq	%rax, 56(%rsp)
	xorl	%eax, %eax
	.loc 1 687 0
	call	pkt_claim@PLT
.LVL534:
	movq	%rax, %rbx
.LVL535:
	.loc 1 688 0
	movl	$0, %eax
.LVL536:
	call	session_get@PLT
.LVL537:
	movl	%eax, %ebp
.LVL538:
	.loc 1 691 0
	movl	$55, %esi
	movq	%rbx, %rdi
	call	pkt_init@PLT
.LVL539:
	.loc 1 692 0
	movl	(%r15), %ecx
	movl	$4, %edx
	movl	$2, %esi
	movq	%rbx, %rdi
	call	pkt_addnumeric@PLT
.LVL540:
	.loc 1 693 0
	movl	%r14d, %ecx
	movl	$4, %edx
	movl	$2, %esi
	movq	%rbx, %rdi
	call	pkt_addnumeric@PLT
.LVL541:
	.loc 1 694 0
	movl	%r13d, %ecx
	movl	$4, %edx
	movl	$2, %esi
	movq	%rbx, %rdi
	call	pkt_addnumeric@PLT
.LVL542:
	.loc 1 695 0
	movl	8(%rsp), %ecx
	movl	$4, %edx
	movl	$2, %esi
	movq	%rbx, %rdi
	call	pkt_addnumeric@PLT
.LVL543:
	.loc 1 696 0
	movl	12(%rsp), %ecx
	movl	$4, %edx
	movl	$2, %esi
	movq	%rbx, %rdi
	call	pkt_addnumeric@PLT
.LVL544:
	.loc 1 697 0
	movzwl	128(%rsp), %edx
	movq	%r12, %rcx
	movl	$4, %esi
	movq	%rbx, %rdi
	call	pkt_append@PLT
.LVL545:
	.loc 1 698 0
	movl	136(%rsp), %ecx
	movl	$4, %edx
	movl	$2, %esi
	movq	%rbx, %rdi
	call	pkt_addnumeric@PLT
.LVL546:
	.loc 1 699 0
	movl	%ebp, %esi
	movq	%rbx, %rdi
	call	pkt_send@PLT
.LVL547:
	.loc 1 703 0
	movq	%rbx, %rsi
	movl	%ebp, %edi
	call	pkt_recv@PLT
.LVL548:
	testl	%eax, %eax
	je	.L158
	.loc 1 702 0 discriminator 1
	movl	$-1, %ebp
.LVL549:
	.loc 1 703 0 discriminator 1
	cmpb	$55, 8(%rbx)
	jne	.L154
.LBB436:
	.loc 1 705 0
	leaq	16(%rsp), %rbp
	movq	%rbp, %rsi
	movq	%rbx, %rdi
	call	pkt_begin@PLT
.LVL550:
	.loc 1 706 0
	movl	44(%rsp), %ebx
.LVL551:
	movq	%rbp, %rdi
	call	iter_nextval@PLT
.LVL552:
	movl	%ebx, %esi
	movq	%rax, %rdi
	call	as_int@PLT
.LVL553:
	movl	%eax, %ebp
.LVL554:
	.loc 1 708 0
	testl	%eax, %eax
	jle	.L154
.LVL555:
.LBB437:
.LBB438:
.LBB439:
	.loc 3 53 0
	cmpl	%eax, 128(%rsp)
	movl	%eax, %edx
	cmovle	128(%rsp), %edx
	movslq	%edx, %rdx
	movq	48(%rsp), %rsi
	movq	%r12, %rdi
	call	memcpy@PLT
.LVL556:
	jmp	.L154
.LVL557:
.L158:
.LBE439:
.LBE438:
.LBE437:
.LBE436:
	.loc 1 702 0
	movl	$-1, %ebp
.LVL558:
.L154:
	.loc 1 716 0
	movl	$0, %eax
	call	pkt_release@PLT
.LVL559:
	.loc 1 717 0
	movl	$0, %eax
	call	log_level@PLT
.LVL560:
	testb	$4, %al
	je	.L156
.LVL561:
	.loc 1 717 0 is_stmt 0 discriminator 1
	movq	stderr@GOTPCREL(%rip), %rbx
.LVL562:
.LBB440:
.LBB441:
	.loc 2 97 0 is_stmt 1 discriminator 1
	leaq	__func__.6387(%rip), %rcx
	leaq	.LC0(%rip), %rdx
	movl	$1, %esi
	movq	(%rbx), %rdi
	movl	$0, %eax
	call	__fprintf_chk@PLT
.LVL563:
.LBE441:
.LBE440:
.LBB442:
.LBB443:
	movl	%ebp, %ecx
	leaq	.LC6(%rip), %rdx
	movl	$1, %esi
	movq	(%rbx), %rdi
	movl	$0, %eax
	call	__fprintf_chk@PLT
.LVL564:
.LBE443:
.LBE442:
.LBB444:
.LBB445:
	movq	(%rbx), %rsi
	movl	$10, %edi
	call	fputc@PLT
.LVL565:
.L156:
.LBE445:
.LBE444:
	.loc 1 719 0
	movl	%ebp, %eax
	movq	56(%rsp), %rcx
	xorq	%fs:40, %rcx
	je	.L157
.LVL566:
	call	__stack_chk_fail@PLT
.LVL567:
.L157:
	addq	$72, %rsp
	.cfi_def_cfa_offset 56
	popq	%rbx
	.cfi_def_cfa_offset 48
	popq	%rbp
	.cfi_def_cfa_offset 40
	popq	%r12
	.cfi_def_cfa_offset 32
.LVL568:
	popq	%r13
	.cfi_def_cfa_offset 24
.LVL569:
	popq	%r14
	.cfi_def_cfa_offset 16
.LVL570:
	popq	%r15
	.cfi_def_cfa_offset 8
.LVL571:
	ret
	.cfi_endproc
.LFE104:
	.size	usb_control_msg, .-usb_control_msg
	.globl	usb_bulk_read
	.type	usb_bulk_read, @function
usb_bulk_read:
.LFB105:
	.loc 1 726 0
	.cfi_startproc
.LVL572:
	pushq	%r15
	.cfi_def_cfa_offset 16
	.cfi_offset 15, -16
	pushq	%r14
	.cfi_def_cfa_offset 24
	.cfi_offset 14, -24
	pushq	%r13
	.cfi_def_cfa_offset 32
	.cfi_offset 13, -32
	pushq	%r12
	.cfi_def_cfa_offset 40
	.cfi_offset 12, -40
	pushq	%rbp
	.cfi_def_cfa_offset 48
	.cfi_offset 6, -48
	pushq	%rbx
	.cfi_def_cfa_offset 56
	.cfi_offset 3, -56
	subq	$72, %rsp
	.cfi_def_cfa_offset 128
	movq	%rdi, %r15
	movl	%esi, %r14d
	movq	%rdx, 8(%rsp)
	movl	%ecx, %ebp
	movl	%r8d, %r13d
	.loc 1 726 0
	movq	%fs:40, %rax
	movq	%rax, 56(%rsp)
	xorl	%eax, %eax
	.loc 1 728 0
	call	pkt_claim@PLT
.LVL573:
	movq	%rax, %rbx
.LVL574:
	.loc 1 729 0
	movl	$0, %eax
.LVL575:
	call	session_get@PLT
.LVL576:
	movl	%eax, %r12d
.LVL577:
	.loc 1 732 0
	movl	$60, %esi
	movq	%rbx, %rdi
	call	pkt_init@PLT
.LVL578:
	.loc 1 733 0
	movl	(%r15), %ecx
	movl	$4, %edx
	movl	$2, %esi
	movq	%rbx, %rdi
	call	pkt_addnumeric@PLT
.LVL579:
	.loc 1 734 0
	movl	%r14d, %ecx
	movl	$4, %edx
	movl	$2, %esi
	movq	%rbx, %rdi
	call	pkt_addnumeric@PLT
.LVL580:
	.loc 1 735 0
	movl	%ebp, %ecx
	movl	$4, %edx
	movl	$2, %esi
	movq	%rbx, %rdi
	call	pkt_addnumeric@PLT
.LVL581:
	.loc 1 736 0
	movl	%r13d, %ecx
	movl	$4, %edx
	movl	$2, %esi
	movq	%rbx, %rdi
	call	pkt_addnumeric@PLT
.LVL582:
	.loc 1 737 0
	movl	%r12d, %esi
	movq	%rbx, %rdi
	call	pkt_send@PLT
.LVL583:
	.loc 1 741 0
	movq	%rbx, %rsi
	movl	%r12d, %edi
	call	pkt_recv@PLT
.LVL584:
	testl	%eax, %eax
	je	.L166
	.loc 1 740 0 discriminator 1
	movl	$-1, %r12d
.LVL585:
	.loc 1 741 0 discriminator 1
	cmpb	$60, 8(%rbx)
	jne	.L162
.LBB446:
	.loc 1 744 0
	leaq	16(%rsp), %r12
	movq	%r12, %rsi
	movq	%rbx, %rdi
	call	pkt_begin@PLT
.LVL586:
	.loc 1 745 0
	movl	44(%rsp), %ebx
.LVL587:
	movq	%r12, %rdi
	call	iter_nextval@PLT
.LVL588:
	movl	%ebx, %esi
	movq	%rax, %rdi
	call	as_int@PLT
.LVL589:
	movl	%eax, %r12d
.LVL590:
	.loc 1 747 0
	testl	%eax, %eax
	jle	.L162
.LVL591:
.LBB447:
.LBB448:
.LBB449:
	.loc 3 53 0
	cmpl	%eax, %ebp
	cmovg	%eax, %ebp
.LVL592:
	movslq	%ebp, %rdx
	movq	48(%rsp), %rsi
	movq	8(%rsp), %rdi
	call	memcpy@PLT
.LVL593:
	jmp	.L162
.LVL594:
.L166:
.LBE449:
.LBE448:
.LBE447:
.LBE446:
	.loc 1 740 0
	movl	$-1, %r12d
.LVL595:
.L162:
	.loc 1 755 0
	movl	$0, %eax
	call	pkt_release@PLT
.LVL596:
	.loc 1 756 0
	movl	$0, %eax
	call	log_level@PLT
.LVL597:
	testb	$4, %al
	je	.L164
.LVL598:
	.loc 1 756 0 is_stmt 0 discriminator 1
	movq	stderr@GOTPCREL(%rip), %rbx
.LVL599:
.LBB450:
.LBB451:
	.loc 2 97 0 is_stmt 1 discriminator 1
	leaq	__func__.6400(%rip), %rcx
	leaq	.LC0(%rip), %rdx
	movl	$1, %esi
	movq	(%rbx), %rdi
	movl	$0, %eax
	call	__fprintf_chk@PLT
.LVL600:
.LBE451:
.LBE450:
.LBB452:
.LBB453:
	movl	%r12d, %ecx
	leaq	.LC6(%rip), %rdx
	movl	$1, %esi
	movq	(%rbx), %rdi
	movl	$0, %eax
	call	__fprintf_chk@PLT
.LVL601:
.LBE453:
.LBE452:
.LBB454:
.LBB455:
	movq	(%rbx), %rsi
	movl	$10, %edi
	call	fputc@PLT
.LVL602:
.L164:
.LBE455:
.LBE454:
	.loc 1 758 0
	movl	%r12d, %eax
	movq	56(%rsp), %rcx
	xorq	%fs:40, %rcx
	je	.L165
.LVL603:
	call	__stack_chk_fail@PLT
.LVL604:
.L165:
	addq	$72, %rsp
	.cfi_def_cfa_offset 56
	popq	%rbx
	.cfi_def_cfa_offset 48
	popq	%rbp
	.cfi_def_cfa_offset 40
	popq	%r12
	.cfi_def_cfa_offset 32
	popq	%r13
	.cfi_def_cfa_offset 24
.LVL605:
	popq	%r14
	.cfi_def_cfa_offset 16
.LVL606:
	popq	%r15
	.cfi_def_cfa_offset 8
.LVL607:
	ret
	.cfi_endproc
.LFE105:
	.size	usb_bulk_read, .-usb_bulk_read
	.globl	usb_bulk_write
	.type	usb_bulk_write, @function
usb_bulk_write:
.LFB106:
	.loc 1 761 0
	.cfi_startproc
.LVL608:
	pushq	%r15
	.cfi_def_cfa_offset 16
	.cfi_offset 15, -16
	pushq	%r14
	.cfi_def_cfa_offset 24
	.cfi_offset 14, -24
	pushq	%r13
	.cfi_def_cfa_offset 32
	.cfi_offset 13, -32
	pushq	%r12
	.cfi_def_cfa_offset 40
	.cfi_offset 12, -40
	pushq	%rbp
	.cfi_def_cfa_offset 48
	.cfi_offset 6, -48
	pushq	%rbx
	.cfi_def_cfa_offset 56
	.cfi_offset 3, -56
	subq	$72, %rsp
	.cfi_def_cfa_offset 128
	movq	%rdi, %r15
	movl	%esi, %r14d
	movq	%rdx, %r13
	movl	%ecx, %ebp
	movl	%r8d, 12(%rsp)
	.loc 1 761 0
	movq	%fs:40, %rax
	movq	%rax, 56(%rsp)
	xorl	%eax, %eax
	.loc 1 763 0
	call	pkt_claim@PLT
.LVL609:
	movq	%rax, %rbx
.LVL610:
	.loc 1 764 0
	movl	$0, %eax
.LVL611:
	call	session_get@PLT
.LVL612:
	movl	%eax, %r12d
.LVL613:
	.loc 1 767 0
	movl	$61, %esi
	movq	%rbx, %rdi
	call	pkt_init@PLT
.LVL614:
	.loc 1 768 0
	movl	(%r15), %ecx
	movl	$4, %edx
	movl	$2, %esi
	movq	%rbx, %rdi
	call	pkt_addnumeric@PLT
.LVL615:
	.loc 1 769 0
	movl	%r14d, %ecx
	movl	$4, %edx
	movl	$2, %esi
	movq	%rbx, %rdi
	call	pkt_addnumeric@PLT
.LVL616:
	.loc 1 770 0
	movzwl	%bp, %edx
	movq	%r13, %rcx
	movl	$4, %esi
	movq	%rbx, %rdi
	call	pkt_append@PLT
.LVL617:
	.loc 1 771 0
	movl	12(%rsp), %ecx
	movl	$4, %edx
	movl	$2, %esi
	movq	%rbx, %rdi
	call	pkt_addnumeric@PLT
.LVL618:
	.loc 1 772 0
	movl	%r12d, %esi
	movq	%rbx, %rdi
	call	pkt_send@PLT
.LVL619:
	.loc 1 776 0
	movq	%rbx, %rsi
	movl	%r12d, %edi
	call	pkt_recv@PLT
.LVL620:
	testl	%eax, %eax
	je	.L173
	.loc 1 775 0 discriminator 1
	movl	$-1, %ebp
.LVL621:
	.loc 1 776 0 discriminator 1
	cmpb	$61, 8(%rbx)
	jne	.L170
.LBB456:
	.loc 1 778 0
	leaq	16(%rsp), %rbp
	movq	%rbp, %rsi
	movq	%rbx, %rdi
	call	pkt_begin@PLT
.LVL622:
	.loc 1 779 0
	movl	44(%rsp), %ebx
.LVL623:
	movq	%rbp, %rdi
	call	iter_nextval@PLT
.LVL624:
	movl	%ebx, %esi
	movq	%rax, %rdi
	call	as_int@PLT
.LVL625:
	movl	%eax, %ebp
.LVL626:
	jmp	.L170
.LVL627:
.L173:
.LBE456:
	.loc 1 775 0
	movl	$-1, %ebp
.LVL628:
.L170:
	.loc 1 783 0
	movl	$0, %eax
	call	pkt_release@PLT
.LVL629:
	.loc 1 784 0
	movl	$0, %eax
	call	log_level@PLT
.LVL630:
	testb	$4, %al
	je	.L171
.LVL631:
	.loc 1 784 0 is_stmt 0 discriminator 1
	movq	stderr@GOTPCREL(%rip), %rbx
.LVL632:
.LBB457:
.LBB458:
	.loc 2 97 0 is_stmt 1 discriminator 1
	leaq	__func__.6412(%rip), %rcx
	leaq	.LC0(%rip), %rdx
	movl	$1, %esi
	movq	(%rbx), %rdi
	movl	$0, %eax
	call	__fprintf_chk@PLT
.LVL633:
.LBE458:
.LBE457:
.LBB459:
.LBB460:
	movl	%ebp, %ecx
	leaq	.LC6(%rip), %rdx
	movl	$1, %esi
	movq	(%rbx), %rdi
	movl	$0, %eax
	call	__fprintf_chk@PLT
.LVL634:
.LBE460:
.LBE459:
.LBB461:
.LBB462:
	movq	(%rbx), %rsi
	movl	$10, %edi
	call	fputc@PLT
.LVL635:
.L171:
.LBE462:
.LBE461:
	.loc 1 786 0
	movl	%ebp, %eax
	movq	56(%rsp), %rcx
	xorq	%fs:40, %rcx
	je	.L172
.LVL636:
	call	__stack_chk_fail@PLT
.LVL637:
.L172:
	addq	$72, %rsp
	.cfi_def_cfa_offset 56
	popq	%rbx
	.cfi_def_cfa_offset 48
	popq	%rbp
	.cfi_def_cfa_offset 40
	popq	%r12
	.cfi_def_cfa_offset 32
.LVL638:
	popq	%r13
	.cfi_def_cfa_offset 24
.LVL639:
	popq	%r14
	.cfi_def_cfa_offset 16
.LVL640:
	popq	%r15
	.cfi_def_cfa_offset 8
.LVL641:
	ret
	.cfi_endproc
.LFE106:
	.size	usb_bulk_write, .-usb_bulk_write
	.globl	usb_interrupt_write
	.type	usb_interrupt_write, @function
usb_interrupt_write:
.LFB107:
	.loc 1 792 0
	.cfi_startproc
.LVL642:
	pushq	%r15
	.cfi_def_cfa_offset 16
	.cfi_offset 15, -16
	pushq	%r14
	.cfi_def_cfa_offset 24
	.cfi_offset 14, -24
	pushq	%r13
	.cfi_def_cfa_offset 32
	.cfi_offset 13, -32
	pushq	%r12
	.cfi_def_cfa_offset 40
	.cfi_offset 12, -40
	pushq	%rbp
	.cfi_def_cfa_offset 48
	.cfi_offset 6, -48
	pushq	%rbx
	.cfi_def_cfa_offset 56
	.cfi_offset 3, -56
	subq	$72, %rsp
	.cfi_def_cfa_offset 128
	movq	%rdi, %r15
	movl	%esi, %r14d
	movq	%rdx, %r13
	movl	%ecx, %ebp
	movl	%r8d, 12(%rsp)
	.loc 1 792 0
	movq	%fs:40, %rax
	movq	%rax, 56(%rsp)
	xorl	%eax, %eax
	.loc 1 794 0
	call	pkt_claim@PLT
.LVL643:
	movq	%rax, %rbx
.LVL644:
	.loc 1 795 0
	movl	$0, %eax
.LVL645:
	call	session_get@PLT
.LVL646:
	movl	%eax, %r12d
.LVL647:
	.loc 1 798 0
	movl	$68, %esi
	movq	%rbx, %rdi
	call	pkt_init@PLT
.LVL648:
	.loc 1 799 0
	movl	(%r15), %ecx
	movl	$4, %edx
	movl	$2, %esi
	movq	%rbx, %rdi
	call	pkt_addnumeric@PLT
.LVL649:
	.loc 1 800 0
	movl	%r14d, %ecx
	movl	$4, %edx
	movl	$2, %esi
	movq	%rbx, %rdi
	call	pkt_addnumeric@PLT
.LVL650:
	.loc 1 801 0
	movzwl	%bp, %edx
	movq	%r13, %rcx
	movl	$4, %esi
	movq	%rbx, %rdi
	call	pkt_append@PLT
.LVL651:
	.loc 1 802 0
	movl	12(%rsp), %ecx
	movl	$4, %edx
	movl	$2, %esi
	movq	%rbx, %rdi
	call	pkt_addnumeric@PLT
.LVL652:
	.loc 1 803 0
	movl	%r12d, %esi
	movq	%rbx, %rdi
	call	pkt_send@PLT
.LVL653:
	.loc 1 807 0
	movq	%rbx, %rsi
	movl	%r12d, %edi
	call	pkt_recv@PLT
.LVL654:
	testl	%eax, %eax
	je	.L180
	.loc 1 806 0 discriminator 1
	movl	$-1, %ebp
.LVL655:
	.loc 1 807 0 discriminator 1
	cmpb	$68, 8(%rbx)
	jne	.L177
.LBB463:
	.loc 1 809 0
	leaq	16(%rsp), %rbp
	movq	%rbp, %rsi
	movq	%rbx, %rdi
	call	pkt_begin@PLT
.LVL656:
	.loc 1 810 0
	movl	44(%rsp), %ebx
.LVL657:
	movq	%rbp, %rdi
	call	iter_nextval@PLT
.LVL658:
	movl	%ebx, %esi
	movq	%rax, %rdi
	call	as_int@PLT
.LVL659:
	movl	%eax, %ebp
.LVL660:
	jmp	.L177
.LVL661:
.L180:
.LBE463:
	.loc 1 806 0
	movl	$-1, %ebp
.LVL662:
.L177:
	.loc 1 814 0
	movl	$0, %eax
	call	pkt_release@PLT
.LVL663:
	.loc 1 815 0
	movl	$0, %eax
	call	log_level@PLT
.LVL664:
	testb	$4, %al
	je	.L178
.LVL665:
	.loc 1 815 0 is_stmt 0 discriminator 1
	movq	stderr@GOTPCREL(%rip), %rbx
.LVL666:
.LBB464:
.LBB465:
	.loc 2 97 0 is_stmt 1 discriminator 1
	leaq	__func__.6424(%rip), %rcx
	leaq	.LC0(%rip), %rdx
	movl	$1, %esi
	movq	(%rbx), %rdi
	movl	$0, %eax
	call	__fprintf_chk@PLT
.LVL667:
.LBE465:
.LBE464:
.LBB466:
.LBB467:
	movl	%ebp, %ecx
	leaq	.LC6(%rip), %rdx
	movl	$1, %esi
	movq	(%rbx), %rdi
	movl	$0, %eax
	call	__fprintf_chk@PLT
.LVL668:
.LBE467:
.LBE466:
.LBB468:
.LBB469:
	movq	(%rbx), %rsi
	movl	$10, %edi
	call	fputc@PLT
.LVL669:
.L178:
.LBE469:
.LBE468:
	.loc 1 817 0
	movl	%ebp, %eax
	movq	56(%rsp), %rcx
	xorq	%fs:40, %rcx
	je	.L179
.LVL670:
	call	__stack_chk_fail@PLT
.LVL671:
.L179:
	addq	$72, %rsp
	.cfi_def_cfa_offset 56
	popq	%rbx
	.cfi_def_cfa_offset 48
	popq	%rbp
	.cfi_def_cfa_offset 40
	popq	%r12
	.cfi_def_cfa_offset 32
.LVL672:
	popq	%r13
	.cfi_def_cfa_offset 24
.LVL673:
	popq	%r14
	.cfi_def_cfa_offset 16
.LVL674:
	popq	%r15
	.cfi_def_cfa_offset 8
.LVL675:
	ret
	.cfi_endproc
.LFE107:
	.size	usb_interrupt_write, .-usb_interrupt_write
	.globl	usb_interrupt_read
	.type	usb_interrupt_read, @function
usb_interrupt_read:
.LFB108:
	.loc 1 820 0
	.cfi_startproc
.LVL676:
	pushq	%r15
	.cfi_def_cfa_offset 16
	.cfi_offset 15, -16
	pushq	%r14
	.cfi_def_cfa_offset 24
	.cfi_offset 14, -24
	pushq	%r13
	.cfi_def_cfa_offset 32
	.cfi_offset 13, -32
	pushq	%r12
	.cfi_def_cfa_offset 40
	.cfi_offset 12, -40
	pushq	%rbp
	.cfi_def_cfa_offset 48
	.cfi_offset 6, -48
	pushq	%rbx
	.cfi_def_cfa_offset 56
	.cfi_offset 3, -56
	subq	$72, %rsp
	.cfi_def_cfa_offset 128
	movq	%rdi, %r15
	movl	%esi, %r14d
	movq	%rdx, 8(%rsp)
	movl	%ecx, %ebp
	movl	%r8d, %r13d
	.loc 1 820 0
	movq	%fs:40, %rax
	movq	%rax, 56(%rsp)
	xorl	%eax, %eax
	.loc 1 822 0
	call	pkt_claim@PLT
.LVL677:
	movq	%rax, %rbx
.LVL678:
	.loc 1 823 0
	movl	$0, %eax
.LVL679:
	call	session_get@PLT
.LVL680:
	movl	%eax, %r12d
.LVL681:
	.loc 1 826 0
	movl	$67, %esi
	movq	%rbx, %rdi
	call	pkt_init@PLT
.LVL682:
	.loc 1 827 0
	movl	(%r15), %ecx
	movl	$4, %edx
	movl	$2, %esi
	movq	%rbx, %rdi
	call	pkt_addnumeric@PLT
.LVL683:
	.loc 1 828 0
	movl	%r14d, %ecx
	movl	$4, %edx
	movl	$2, %esi
	movq	%rbx, %rdi
	call	pkt_addnumeric@PLT
.LVL684:
	.loc 1 829 0
	movl	%ebp, %ecx
	movl	$4, %edx
	movl	$2, %esi
	movq	%rbx, %rdi
	call	pkt_addnumeric@PLT
.LVL685:
	.loc 1 830 0
	movl	%r13d, %ecx
	movl	$4, %edx
	movl	$2, %esi
	movq	%rbx, %rdi
	call	pkt_addnumeric@PLT
.LVL686:
	.loc 1 831 0
	movl	%r12d, %esi
	movq	%rbx, %rdi
	call	pkt_send@PLT
.LVL687:
	.loc 1 835 0
	movq	%rbx, %rsi
	movl	%r12d, %edi
	call	pkt_recv@PLT
.LVL688:
	testl	%eax, %eax
	je	.L188
	.loc 1 834 0 discriminator 1
	movl	$-1, %r12d
.LVL689:
	.loc 1 835 0 discriminator 1
	cmpb	$67, 8(%rbx)
	jne	.L184
.LBB470:
	.loc 1 837 0
	leaq	16(%rsp), %r12
	movq	%r12, %rsi
	movq	%rbx, %rdi
	call	pkt_begin@PLT
.LVL690:
	.loc 1 838 0
	movl	44(%rsp), %ebx
.LVL691:
	movq	%r12, %rdi
	call	iter_nextval@PLT
.LVL692:
	movl	%ebx, %esi
	movq	%rax, %rdi
	call	as_int@PLT
.LVL693:
	movl	%eax, %r12d
.LVL694:
	.loc 1 840 0
	testl	%eax, %eax
	jle	.L184
.LVL695:
.LBB471:
.LBB472:
.LBB473:
	.loc 3 53 0
	cmpl	%eax, %ebp
	cmovg	%eax, %ebp
.LVL696:
	movslq	%ebp, %rdx
	movq	48(%rsp), %rsi
	movq	8(%rsp), %rdi
	call	memcpy@PLT
.LVL697:
	jmp	.L184
.LVL698:
.L188:
.LBE473:
.LBE472:
.LBE471:
.LBE470:
	.loc 1 834 0
	movl	$-1, %r12d
.LVL699:
.L184:
	.loc 1 848 0
	movl	$0, %eax
	call	pkt_release@PLT
.LVL700:
	.loc 1 849 0
	movl	$0, %eax
	call	log_level@PLT
.LVL701:
	testb	$4, %al
	je	.L186
.LVL702:
	.loc 1 849 0 is_stmt 0 discriminator 1
	movq	stderr@GOTPCREL(%rip), %rbx
.LVL703:
.LBB474:
.LBB475:
	.loc 2 97 0 is_stmt 1 discriminator 1
	leaq	__func__.6437(%rip), %rcx
	leaq	.LC0(%rip), %rdx
	movl	$1, %esi
	movq	(%rbx), %rdi
	movl	$0, %eax
	call	__fprintf_chk@PLT
.LVL704:
.LBE475:
.LBE474:
.LBB476:
.LBB477:
	movl	%r12d, %ecx
	leaq	.LC6(%rip), %rdx
	movl	$1, %esi
	movq	(%rbx), %rdi
	movl	$0, %eax
	call	__fprintf_chk@PLT
.LVL705:
.LBE477:
.LBE476:
.LBB478:
.LBB479:
	movq	(%rbx), %rsi
	movl	$10, %edi
	call	fputc@PLT
.LVL706:
.L186:
.LBE479:
.LBE478:
	.loc 1 851 0
	movl	%r12d, %eax
	movq	56(%rsp), %rcx
	xorq	%fs:40, %rcx
	je	.L187
.LVL707:
	call	__stack_chk_fail@PLT
.LVL708:
.L187:
	addq	$72, %rsp
	.cfi_def_cfa_offset 56
	popq	%rbx
	.cfi_def_cfa_offset 48
	popq	%rbp
	.cfi_def_cfa_offset 40
	popq	%r12
	.cfi_def_cfa_offset 32
	popq	%r13
	.cfi_def_cfa_offset 24
.LVL709:
	popq	%r14
	.cfi_def_cfa_offset 16
.LVL710:
	popq	%r15
	.cfi_def_cfa_offset 8
.LVL711:
	ret
	.cfi_endproc
.LFE108:
	.size	usb_interrupt_read, .-usb_interrupt_read
	.section	.rodata.str1.8
	.align 8
.LC13:
	.string	"%s: could not get bound driver"
	.section	.rodata.str1.1
.LC14:
	.string	"returned %d (%s)"
	.text
	.globl	usb_get_driver_np
	.type	usb_get_driver_np, @function
usb_get_driver_np:
.LFB109:
	.loc 1 867 0
	.cfi_startproc
.LVL712:
	pushq	%r15
	.cfi_def_cfa_offset 16
	.cfi_offset 15, -16
	pushq	%r14
	.cfi_def_cfa_offset 24
	.cfi_offset 14, -24
	pushq	%r13
	.cfi_def_cfa_offset 32
	.cfi_offset 13, -32
	pushq	%r12
	.cfi_def_cfa_offset 40
	.cfi_offset 12, -40
	pushq	%rbp
	.cfi_def_cfa_offset 48
	.cfi_offset 6, -48
	pushq	%rbx
	.cfi_def_cfa_offset 56
	.cfi_offset 3, -56
	subq	$56, %rsp
	.cfi_def_cfa_offset 112
	movq	%rdi, %r15
	movl	%esi, %r14d
	movq	%rdx, %r12
	movl	%ecx, %r13d
	.loc 1 867 0
	movq	%fs:40, %rax
	movq	%rax, 40(%rsp)
	xorl	%eax, %eax
	.loc 1 869 0
	call	pkt_claim@PLT
.LVL713:
	movq	%rax, %rbx
.LVL714:
	.loc 1 870 0
	movl	$0, %eax
.LVL715:
	call	session_get@PLT
.LVL716:
	movl	%eax, %ebp
.LVL717:
	.loc 1 873 0
	movl	$58, %esi
	movq	%rbx, %rdi
	call	pkt_init@PLT
.LVL718:
	.loc 1 874 0
	movl	(%r15), %ecx
	movl	$4, %edx
	movl	$2, %esi
	movq	%rbx, %rdi
	call	pkt_addnumeric@PLT
.LVL719:
	.loc 1 875 0
	movl	%r14d, %ecx
	movl	$4, %edx
	movl	$2, %esi
	movq	%rbx, %rdi
	call	pkt_addnumeric@PLT
.LVL720:
	.loc 1 876 0
	movl	%r13d, %ecx
	movl	$4, %edx
	movl	$3, %esi
	movq	%rbx, %rdi
	call	pkt_addnumeric@PLT
.LVL721:
	.loc 1 877 0
	movl	%ebp, %esi
	movq	%rbx, %rdi
	call	pkt_send@PLT
.LVL722:
	.loc 1 881 0
	movq	%rbx, %rsi
	movl	%ebp, %edi
	call	pkt_recv@PLT
.LVL723:
	testl	%eax, %eax
	je	.L196
	.loc 1 880 0 discriminator 1
	movl	$-1, %ebp
.LVL724:
	.loc 1 881 0 discriminator 1
	cmpb	$58, 8(%rbx)
	jne	.L192
.LBB480:
	.loc 1 883 0
	movq	%rsp, %rsi
	movq	%rbx, %rdi
	call	pkt_begin@PLT
.LVL725:
	.loc 1 884 0
	movl	28(%rsp), %ebx
.LVL726:
	movq	%rsp, %rdi
	call	iter_nextval@PLT
.LVL727:
	movl	%ebx, %esi
	movq	%rax, %rdi
	call	as_int@PLT
.LVL728:
	movl	%eax, %ebp
.LVL729:
	.loc 1 887 0
	testl	%eax, %eax
	je	.L193
	.loc 1 888 0
	movl	$0, %eax
.LVL730:
	call	log_level@PLT
.LVL731:
	testb	$1, %al
	je	.L193
.LVL732:
	.loc 1 888 0 is_stmt 0 discriminator 1
	movq	stderr@GOTPCREL(%rip), %rbx
.LVL733:
.LBB481:
.LBB482:
	.loc 2 97 0 is_stmt 1 discriminator 1
	leaq	__func__.6451(%rip), %rcx
	leaq	.LC13(%rip), %rdx
	movl	$1, %esi
	movq	(%rbx), %rdi
	movl	$0, %eax
	call	__fprintf_chk@PLT
.LVL734:
.LBE482:
.LBE481:
.LBB483:
.LBB484:
	movq	(%rbx), %rsi
	movl	$10, %edi
	call	fputc@PLT
.LVL735:
.L193:
.LBE484:
.LBE483:
	.loc 1 892 0
	leal	-1(%r13), %ebx
	movl	28(%rsp), %r13d
.LVL736:
	movq	%rsp, %rdi
	call	iter_nextval@PLT
.LVL737:
	movl	%r13d, %esi
	movq	%rax, %rdi
	call	as_string@PLT
.LVL738:
.LBB485:
.LBB486:
	.loc 3 126 0
	movq	%rbx, %rdx
	movq	%rax, %rsi
	movq	%r12, %rdi
	call	strncpy@PLT
.LVL739:
.LBE486:
.LBE485:
	.loc 1 893 0
	movb	$0, (%r12,%rbx)
	jmp	.L192
.LVL740:
.L196:
.LBE480:
	.loc 1 880 0
	movl	$-1, %ebp
.LVL741:
.L192:
	.loc 1 896 0
	movl	$0, %eax
	call	pkt_release@PLT
.LVL742:
	.loc 1 897 0
	movl	$0, %eax
	call	log_level@PLT
.LVL743:
	testb	$4, %al
	je	.L194
.LVL744:
	.loc 1 897 0 is_stmt 0 discriminator 1
	movq	stderr@GOTPCREL(%rip), %rbx
.LVL745:
.LBB487:
.LBB488:
	.loc 2 97 0 is_stmt 1 discriminator 1
	leaq	__func__.6451(%rip), %rcx
	leaq	.LC0(%rip), %rdx
	movl	$1, %esi
	movq	(%rbx), %rdi
	movl	$0, %eax
	call	__fprintf_chk@PLT
.LVL746:
.LBE488:
.LBE487:
.LBB489:
.LBB490:
	movq	%r12, %r8
	movl	%ebp, %ecx
	leaq	.LC14(%rip), %rdx
	movl	$1, %esi
	movq	(%rbx), %rdi
	movl	$0, %eax
	call	__fprintf_chk@PLT
.LVL747:
.LBE490:
.LBE489:
.LBB491:
.LBB492:
	movq	(%rbx), %rsi
	movl	$10, %edi
	call	fputc@PLT
.LVL748:
.L194:
.LBE492:
.LBE491:
	.loc 1 899 0
	movl	%ebp, %eax
	movq	40(%rsp), %rcx
	xorq	%fs:40, %rcx
	je	.L195
.LVL749:
	call	__stack_chk_fail@PLT
.LVL750:
.L195:
	addq	$56, %rsp
	.cfi_def_cfa_offset 56
	popq	%rbx
	.cfi_def_cfa_offset 48
	popq	%rbp
	.cfi_def_cfa_offset 40
	popq	%r12
	.cfi_def_cfa_offset 32
.LVL751:
	popq	%r13
	.cfi_def_cfa_offset 24
	popq	%r14
	.cfi_def_cfa_offset 16
.LVL752:
	popq	%r15
	.cfi_def_cfa_offset 8
.LVL753:
	ret
	.cfi_endproc
.LFE109:
	.size	usb_get_driver_np, .-usb_get_driver_np
	.globl	usb_detach_kernel_driver_np
	.type	usb_detach_kernel_driver_np, @function
usb_detach_kernel_driver_np:
.LFB110:
	.loc 1 904 0
	.cfi_startproc
.LVL754:
	pushq	%r13
	.cfi_def_cfa_offset 16
	.cfi_offset 13, -16
	pushq	%r12
	.cfi_def_cfa_offset 24
	.cfi_offset 12, -24
	pushq	%rbp
	.cfi_def_cfa_offset 32
	.cfi_offset 6, -32
	pushq	%rbx
	.cfi_def_cfa_offset 40
	.cfi_offset 3, -40
	subq	$56, %rsp
	.cfi_def_cfa_offset 96
	movq	%rdi, %r13
	movl	%esi, %r12d
	.loc 1 904 0
	movq	%fs:40, %rax
	movq	%rax, 40(%rsp)
	xorl	%eax, %eax
	.loc 1 906 0
	call	pkt_claim@PLT
.LVL755:
	movq	%rax, %rbx
.LVL756:
	.loc 1 907 0
	movl	$0, %eax
.LVL757:
	call	session_get@PLT
.LVL758:
	movl	%eax, %ebp
.LVL759:
	.loc 1 910 0
	movl	$59, %esi
	movq	%rbx, %rdi
	call	pkt_init@PLT
.LVL760:
	.loc 1 911 0
	movl	0(%r13), %ecx
	movl	$4, %edx
	movl	$2, %esi
	movq	%rbx, %rdi
	call	pkt_addnumeric@PLT
.LVL761:
	.loc 1 912 0
	movl	%r12d, %ecx
	movl	$4, %edx
	movl	$2, %esi
	movq	%rbx, %rdi
	call	pkt_addnumeric@PLT
.LVL762:
	.loc 1 913 0
	movl	%ebp, %esi
	movq	%rbx, %rdi
	call	pkt_send@PLT
.LVL763:
	.loc 1 917 0
	movq	%rbx, %rsi
	movl	%ebp, %edi
	call	pkt_recv@PLT
.LVL764:
	testl	%eax, %eax
	je	.L203
	.loc 1 916 0 discriminator 1
	movl	$-1, %ebp
.LVL765:
	.loc 1 917 0 discriminator 1
	cmpb	$59, 8(%rbx)
	jne	.L200
.LBB493:
	.loc 1 919 0
	movq	%rsp, %rsi
	movq	%rbx, %rdi
	call	pkt_begin@PLT
.LVL766:
	.loc 1 920 0
	movl	28(%rsp), %ebx
.LVL767:
	movq	%rsp, %rdi
	call	iter_nextval@PLT
.LVL768:
	movl	%ebx, %esi
	movq	%rax, %rdi
	call	as_int@PLT
.LVL769:
	movl	%eax, %ebp
.LVL770:
	jmp	.L200
.LVL771:
.L203:
.LBE493:
	.loc 1 916 0
	movl	$-1, %ebp
.LVL772:
.L200:
	.loc 1 923 0
	movl	$0, %eax
	call	pkt_release@PLT
.LVL773:
	.loc 1 924 0
	movl	$0, %eax
	call	log_level@PLT
.LVL774:
	testb	$4, %al
	je	.L201
.LVL775:
	.loc 1 924 0 is_stmt 0 discriminator 1
	movq	stderr@GOTPCREL(%rip), %rbx
.LVL776:
.LBB494:
.LBB495:
	.loc 2 97 0 is_stmt 1 discriminator 1
	leaq	__func__.6460(%rip), %rcx
	leaq	.LC0(%rip), %rdx
	movl	$1, %esi
	movq	(%rbx), %rdi
	movl	$0, %eax
	call	__fprintf_chk@PLT
.LVL777:
.LBE495:
.LBE494:
.LBB496:
.LBB497:
	movl	%ebp, %ecx
	leaq	.LC6(%rip), %rdx
	movl	$1, %esi
	movq	(%rbx), %rdi
	movl	$0, %eax
	call	__fprintf_chk@PLT
.LVL778:
.LBE497:
.LBE496:
.LBB498:
.LBB499:
	movq	(%rbx), %rsi
	movl	$10, %edi
	call	fputc@PLT
.LVL779:
.L201:
.LBE499:
.LBE498:
	.loc 1 926 0
	movl	%ebp, %eax
	movq	40(%rsp), %rdx
	xorq	%fs:40, %rdx
	je	.L202
.LVL780:
	call	__stack_chk_fail@PLT
.LVL781:
.L202:
	addq	$56, %rsp
	.cfi_def_cfa_offset 40
	popq	%rbx
	.cfi_def_cfa_offset 32
	popq	%rbp
	.cfi_def_cfa_offset 24
	popq	%r12
	.cfi_def_cfa_offset 16
.LVL782:
	popq	%r13
	.cfi_def_cfa_offset 8
.LVL783:
	ret
	.cfi_endproc
.LFE110:
	.size	usb_detach_kernel_driver_np, .-usb_detach_kernel_driver_np
	.globl	usb_get_descriptor
	.type	usb_get_descriptor, @function
usb_get_descriptor:
.LFB111:
	.loc 1 938 0
	.cfi_startproc
.LVL784:
	pushq	%r14
	.cfi_def_cfa_offset 16
	.cfi_offset 14, -16
	pushq	%r13
	.cfi_def_cfa_offset 24
	.cfi_offset 13, -24
	pushq	%r12
	.cfi_def_cfa_offset 32
	.cfi_offset 12, -32
	pushq	%rbp
	.cfi_def_cfa_offset 40
	.cfi_offset 6, -40
	pushq	%rbx
	.cfi_def_cfa_offset 48
	.cfi_offset 3, -48
	movq	%rdi, %r13
	movl	%esi, %r14d
	movl	%edx, %ebx
	movq	%rcx, %rbp
	movl	%r8d, %r12d
.LVL785:
.LBB500:
.LBB501:
	.loc 3 90 0
	movslq	%r8d, %rdx
.LVL786:
	movl	$0, %esi
.LVL787:
	movq	%rcx, %rdi
.LVL788:
	call	memset@PLT
.LVL789:
.LBE501:
.LBE500:
	.loc 1 941 0
	movzbl	%r14b, %ecx
	sall	$8, %ecx
	movzbl	%bl, %ebx
	leal	(%rcx,%rbx), %ecx
	pushq	$1000
	.cfi_def_cfa_offset 56
	pushq	%r12
	.cfi_def_cfa_offset 64
	movq	%rbp, %r9
	movl	$0, %r8d
	movl	$6, %edx
	movl	$128, %esi
	movq	%r13, %rdi
	call	usb_control_msg@PLT
.LVL790:
	addq	$16, %rsp
	.cfi_def_cfa_offset 48
	.loc 1 943 0
	popq	%rbx
	.cfi_def_cfa_offset 40
	popq	%rbp
	.cfi_def_cfa_offset 32
.LVL791:
	popq	%r12
	.cfi_def_cfa_offset 24
.LVL792:
	popq	%r13
	.cfi_def_cfa_offset 16
.LVL793:
	popq	%r14
	.cfi_def_cfa_offset 8
	ret
	.cfi_endproc
.LFE111:
	.size	usb_get_descriptor, .-usb_get_descriptor
	.globl	usb_get_string
	.type	usb_get_string, @function
usb_get_string:
.LFB112:
	.loc 1 946 0
	.cfi_startproc
.LVL794:
	subq	$8, %rsp
	.cfi_def_cfa_offset 16
	movq	%rcx, %r9
	.loc 1 951 0
	leal	768(%rsi), %ecx
.LVL795:
	pushq	$1000
	.cfi_def_cfa_offset 24
	pushq	%r8
	.cfi_def_cfa_offset 32
	movl	%edx, %r8d
.LVL796:
	movl	$6, %edx
.LVL797:
	movl	$128, %esi
.LVL798:
	call	usb_control_msg@PLT
.LVL799:
	.loc 1 953 0
	addq	$24, %rsp
	.cfi_def_cfa_offset 8
	ret
	.cfi_endproc
.LFE112:
	.size	usb_get_string, .-usb_get_string
	.globl	usb_get_string_simple
	.type	usb_get_string_simple, @function
usb_get_string_simple:
.LFB113:
	.loc 1 955 0
	.cfi_startproc
.LVL800:
	pushq	%r13
	.cfi_def_cfa_offset 16
	.cfi_offset 13, -16
	pushq	%r12
	.cfi_def_cfa_offset 24
	.cfi_offset 12, -24
	pushq	%rbp
	.cfi_def_cfa_offset 32
	.cfi_offset 6, -32
	pushq	%rbx
	.cfi_def_cfa_offset 40
	.cfi_offset 3, -40
	subq	$280, %rsp
	.cfi_def_cfa_offset 320
	movq	%rdi, %r12
	movl	%esi, %r13d
	movq	%rdx, %rbx
	movq	%rcx, %rbp
	.loc 1 955 0
	movq	%fs:40, %rax
	movq	%rax, 264(%rsp)
	xorl	%eax, %eax
	.loc 1 966 0
	movq	%rsp, %rcx
.LVL801:
	movl	$255, %r8d
	movl	$0, %edx
.LVL802:
	movl	$0, %esi
.LVL803:
	call	usb_get_string@PLT
.LVL804:
	.loc 1 967 0
	testl	%eax, %eax
	js	.L218
	.loc 1 971 0
	movl	$-5, %edx
	.loc 1 970 0
	cmpl	$3, %eax
	jle	.L211
.LVL805:
	.loc 1 975 0
	movq	%rsp, %rcx
	movsbl	3(%rsp), %edx
	sall	$8, %edx
	movsbl	2(%rsp), %eax
.LVL806:
	orl	%eax, %edx
	movl	$255, %r8d
	movl	%r13d, %esi
	movq	%r12, %rdi
	call	usb_get_string@PLT
.LVL807:
	.loc 1 976 0
	testl	%eax, %eax
	js	.L220
	.loc 1 980 0
	movl	$-5, %edx
	.loc 1 979 0
	cmpb	$3, 1(%rsp)
	jne	.L211
	.loc 1 982 0
	movsbl	(%rsp), %esi
	cmpl	%esi, %eax
	jl	.L222
.LVL808:
	.loc 1 985 0 discriminator 1
	cmpl	$2, %esi
	jle	.L223
	.loc 1 986 0
	cmpq	$1, %rbp
	je	.L224
	movl	$1, %edx
	movl	$2, %ecx
	jmp	.L213
.LVL809:
.L216:
	addq	$1, %rdx
	cmpq	%rbp, %rdx
	je	.L212
.LVL810:
.L213:
	.loc 1 989 0
	cmpb	$0, 1(%rsp,%rdx,2)
	je	.L214
	.loc 1 990 0
	movl	%edx, %eax
.LVL811:
	movb	$63, -1(%rbx,%rdx)
	jmp	.L215
.LVL812:
.L214:
	.loc 1 992 0
	movl	%edx, %eax
.LVL813:
	movzbl	(%rsp,%rdx,2), %edi
	movb	%dil, -1(%rbx,%rdx)
.L215:
	.loc 1 985 0 discriminator 2
	addl	$2, %ecx
.LVL814:
	cmpl	%ecx, %esi
	jg	.L216
	jmp	.L212
.LVL815:
.L223:
	.loc 1 985 0 is_stmt 0
	movl	$0, %eax
.LVL816:
	jmp	.L212
.LVL817:
.L224:
	.loc 1 986 0 is_stmt 1
	movl	$0, %eax
.LVL818:
.L212:
	.loc 1 995 0
	movslq	%eax, %rdx
	movb	$0, (%rbx,%rdx)
	.loc 1 997 0
	movl	%eax, %edx
	jmp	.L211
.LVL819:
.L218:
	.loc 1 968 0
	movl	%eax, %edx
	jmp	.L211
.L220:
	.loc 1 977 0
	movl	%eax, %edx
	jmp	.L211
.L222:
	.loc 1 983 0
	movl	$-27, %edx
.LVL820:
.L211:
	.loc 1 998 0
	movl	%edx, %eax
	movq	264(%rsp), %rbx
	xorq	%fs:40, %rbx
.LVL821:
	je	.L217
	call	__stack_chk_fail@PLT
.LVL822:
.L217:
	addq	$280, %rsp
	.cfi_def_cfa_offset 40
	popq	%rbx
	.cfi_def_cfa_offset 32
	popq	%rbp
	.cfi_def_cfa_offset 24
.LVL823:
	popq	%r12
	.cfi_def_cfa_offset 16
.LVL824:
	popq	%r13
	.cfi_def_cfa_offset 8
.LVL825:
	ret
	.cfi_endproc
.LFE113:
	.size	usb_get_string_simple, .-usb_get_string_simple
	.section	.rodata
	.align 16
	.type	__func__.6460, @object
	.size	__func__.6460, 28
__func__.6460:
	.string	"usb_detach_kernel_driver_np"
	.align 16
	.type	__func__.6451, @object
	.size	__func__.6451, 18
__func__.6451:
	.string	"usb_get_driver_np"
	.align 16
	.type	__func__.6437, @object
	.size	__func__.6437, 19
__func__.6437:
	.string	"usb_interrupt_read"
	.align 16
	.type	__func__.6424, @object
	.size	__func__.6424, 20
__func__.6424:
	.string	"usb_interrupt_write"
	.align 8
	.type	__func__.6412, @object
	.size	__func__.6412, 15
__func__.6412:
	.string	"usb_bulk_write"
	.align 8
	.type	__func__.6400, @object
	.size	__func__.6400, 14
__func__.6400:
	.string	"usb_bulk_read"
	.align 16
	.type	__func__.6387, @object
	.size	__func__.6387, 16
__func__.6387:
	.string	"usb_control_msg"
	.align 16
	.type	__func__.6371, @object
	.size	__func__.6371, 22
__func__.6371:
	.string	"usb_release_interface"
	.align 16
	.type	__func__.6362, @object
	.size	__func__.6362, 20
__func__.6362:
	.string	"usb_claim_interface"
	.align 8
	.type	__func__.6353, @object
	.size	__func__.6353, 10
__func__.6353:
	.string	"usb_reset"
	.align 8
	.type	__func__.6345, @object
	.size	__func__.6345, 15
__func__.6345:
	.string	"usb_clear_halt"
	.align 8
	.type	__func__.6336, @object
	.size	__func__.6336, 12
__func__.6336:
	.string	"usb_resetep"
	.align 16
	.type	__func__.6327, @object
	.size	__func__.6327, 21
__func__.6327:
	.string	"usb_set_altinterface"
	.align 16
	.type	__func__.6318, @object
	.size	__func__.6318, 22
__func__.6318:
	.string	"usb_set_configuration"
	.align 8
	.type	__func__.6309, @object
	.size	__func__.6309, 10
__func__.6309:
	.string	"usb_close"
	.align 8
	.type	__func__.6301, @object
	.size	__func__.6301, 9
__func__.6301:
	.string	"usb_open"
	.align 8
	.type	__func__.6291, @object
	.size	__func__.6291, 15
__func__.6291:
	.string	"usb_get_busses"
	.align 16
	.type	__func__.6277, @object
	.size	__func__.6277, 17
__func__.6277:
	.string	"usb_find_devices"
	.align 16
	.type	__func__.6216, @object
	.size	__func__.6216, 16
__func__.6216:
	.string	"usb_find_busses"
	.align 8
	.type	__func__.6208, @object
	.size	__func__.6208, 9
__func__.6208:
	.string	"usb_init"
	.local	exitf_hooked.6202
	.comm	exitf_hooked.6202,1,1
	.align 16
	.type	__func__.6191, @object
	.size	__func__.6191, 17
__func__.6191:
	.string	"session_teardown"
	.local	__remote_bus
	.comm	__remote_bus,8,8
	.local	__orig_bus
	.comm	__orig_bus,8,8
	.data
	.align 4
	.type	__remote_fd, @object
	.size	__remote_fd, 4
__remote_fd:
	.long	-1
	.text
.Letext0:
	.file 4 "/usr/lib/gcc/x86_64-linux-gnu/5/include/stddef.h"
	.file 5 "/usr/include/x86_64-linux-gnu/bits/types.h"
	.file 6 "/usr/include/stdio.h"
	.file 7 "/usr/include/libio.h"
	.file 8 "/usr/include/stdint.h"
	.file 9 "/usr/include/usb.h"
	.file 10 "src/usbnet.h"
	.file 11 "/usr/include/x86_64-linux-gnu/bits/sockaddr.h"
	.file 12 "/usr/include/x86_64-linux-gnu/bits/socket.h"
	.file 13 "/usr/include/netinet/in.h"
	.file 14 "./src/proto/protobase.h"
	.file 15 "./src/proto/protocol.h"
	.file 16 "<built-in>"
	.file 17 "/usr/include/stdlib.h"
	.file 18 "./src/shared/common.h"
	.section	.note.GNU-stack,"",@progbits
