	.file	"cmdflags.cpp"
	.text
.Ltext0:
	.section	.rodata.str1.8,"aMS",@progbits,1
	.align 8
.LC0:
	.string	"getopt(): invalid parameter '%s'"
	.section	.rodata.str1.1,"aMS",@progbits,1
.LC1:
	.string	"getopt(): '%s', missing value"
.LC2:
	.string	""
	.text
	.align 2
	.globl	_ZN8CmdFlags6getoptB5cxx11Ev
	.type	_ZN8CmdFlags6getoptB5cxx11Ev, @function
_ZN8CmdFlags6getoptB5cxx11Ev:
.LFB962:
	.file 1 "src/shared/cmdflags.cpp"
	.loc 1 31 0
	.cfi_startproc
	.cfi_personality 0x9b,DW.ref.__gxx_personality_v0
	.cfi_lsda 0x1b,.LLSDA962
.LVL0:
	pushq	%r15
	.cfi_def_cfa_offset 16
	.cfi_offset 15, -16
	pushq	%r14
	.cfi_def_cfa_offset 24
	.cfi_offset 14, -24
	pushq	%r13
	.cfi_def_cfa_offset 32
	.cfi_offset 13, -32
	pushq	%r12
	.cfi_def_cfa_offset 40
	.cfi_offset 12, -40
	pushq	%rbp
	.cfi_def_cfa_offset 48
	.cfi_offset 6, -48
	pushq	%rbx
	.cfi_def_cfa_offset 56
	.cfi_offset 3, -56
	subq	$56, %rsp
	.cfi_def_cfa_offset 112
	movq	%rdi, %r12
	movq	%rsi, %r14
	.loc 1 31 0
	movq	%fs:40, %rax
	movq	%rax, 40(%rsp)
	xorl	%eax, %eax
.LVL1:
.LBB1022:
.LBB1023:
	.file 2 "/usr/include/c++/5/bits/stl_pair.h"
	.loc 2 113 0
	movl	$-1, (%rdi)
.LVL2:
.LBB1024:
.LBB1025:
.LBB1026:
	.file 3 "/usr/include/c++/5/bits/basic_string.h"
	.loc 3 143 0
	leaq	24(%rdi), %rax
	movq	%rax, 24(%rsp)
.LVL3:
.LBE1026:
.LBE1025:
.LBB1027:
.LBB1028:
	.loc 3 109 0
	movq	%rax, 8(%rdi)
.LVL4:
.LBE1028:
.LBE1027:
.LBB1029:
.LBB1030:
.LBB1031:
.LBB1032:
.LBB1033:
.LBB1034:
.LBB1035:
.LBB1036:
.LBB1037:
	.loc 3 131 0
	movq	$0, 16(%rdi)
.LVL5:
.LBE1037:
.LBE1036:
.LBB1038:
.LBB1039:
	.file 4 "/usr/include/c++/5/bits/char_traits.h"
	.loc 4 243 0
	movb	$0, 24(%rdi)
.LVL6:
.LBE1039:
.LBE1038:
.LBE1035:
.LBE1034:
.LBE1033:
.LBE1032:
.LBE1031:
.LBE1030:
.LBE1029:
.LBE1024:
.LBE1023:
.LBE1022:
	.loc 1 35 0
	movl	(%rsi), %edx
	movslq	%edx, %rsi
.LVL7:
.LBB1041:
.LBB1042:
	.file 5 "/usr/include/c++/5/bits/stl_vector.h"
	.loc 5 655 0
	movq	8(%r14), %rcx
.LVL8:
.LBE1042:
.LBE1041:
	.loc 1 35 0
	movq	16(%r14), %rax
.LVL9:
	subq	%rcx, %rax
	sarq	$3, %rax
	cmpq	%rsi, %rax
	jbe	.L1
.LVL10:
	.loc 1 40 0
	addl	$1, %edx
	movl	%edx, (%r14)
.LVL11:
	movq	(%rcx,%rsi,8), %r13
.LVL12:
.LBB1043:
	.loc 1 41 0
	movl	$0, %eax
	movq	$-1, %rcx
	movq	%r13, %rdi
.LVL13:
	repnz scasb
.LVL14:
	movq	%rcx, %rax
	notq	%rax
	subq	$1, %rax
.LBE1043:
	.loc 1 39 0
	movl	$1, %ebx
.LBB1055:
	.loc 1 41 0
	cmpq	$1, %rax
	jbe	.L3
.LVL15:
.LBB1044:
.LBB1045:
.LBB1046:
.LBB1047:
.LBB1048:
	.file 6 "/usr/include/c++/5/bits/stl_iterator.h"
	.loc 6 741 0
	movq	32(%r14), %rbx
.LVL16:
.LBE1048:
.LBE1047:
.LBE1046:
.LBB1049:
.LBB1050:
.LBB1051:
	movq	40(%r14), %r15
.LVL17:
.LBE1051:
.LBE1050:
.LBE1049:
	.loc 1 43 0
	cmpq	%r15, %rbx
	je	.L15
.LBB1052:
	.loc 1 47 0
	leaq	32(%rsp), %rax
	movq	%rax, (%rsp)
	leaq	2(%r13), %rax
	movq	%rax, 16(%rsp)
.LVL18:
.L6:
	movq	%rbx, 8(%rsp)
.LVL19:
	.loc 1 46 0
	movb	$0, 34(%rsp)
	movb	$45, 32(%rsp)
	movl	(%rbx), %ebp
	movb	%bpl, 33(%rsp)
	.loc 1 47 0
	movl	$2, %edx
	movq	(%rsp), %rsi
	movq	%r13, %rdi
	call	strncmp@PLT
.LVL20:
	testl	%eax, %eax
	je	.L4
	movq	8(%rbx), %rsi
	movq	16(%rsp), %rdi
	call	strcmp@PLT
.LVL21:
	testl	%eax, %eax
	jne	.L5
.L4:
	.loc 1 48 0
	movl	%ebp, (%r12)
	.loc 1 49 0
	movq	8(%rsp), %rax
	movzbl	32(%rax), %ebx
.LVL22:
	jmp	.L3
.LVL23:
.L5:
	addq	$40, %rbx
.LVL24:
.LBE1052:
	.loc 1 43 0
	cmpq	%rbx, %r15
	jne	.L6
.LBE1045:
.LBE1044:
.LBE1055:
	.loc 1 39 0
	movl	$1, %ebx
.LVL25:
.LBB1056:
.LBB1054:
.LBB1053:
	jmp	.L3
.LVL26:
.L15:
.LBE1053:
.LBE1054:
.LBE1056:
	movl	$1, %ebx
.LVL27:
.L3:
.LBB1057:
.LBB1040:
	.loc 2 113 0
	leaq	8(%r12), %rbp
.LVL28:
.LBE1040:
.LBE1057:
	.loc 1 56 0
	cmpb	$45, 0(%r13)
	jne	.L7
	.loc 1 59 0
	cmpl	$0, (%r12)
	jns	.L8
.LEHB0:
	.loc 1 60 0
	call	log_level@PLT
.LVL29:
	testb	$1, %al
	je	.L8
.LVL30:
.LBB1058:
.LBB1059:
	.file 7 "/usr/include/x86_64-linux-gnu/bits/stdio2.h"
	.loc 7 98 0 discriminator 2
	movq	%r13, %rcx
	leaq	.LC0(%rip), %rdx
	movl	$1, %esi
	movq	stderr@GOTPCREL(%rip), %rax
.LVL31:
	movq	(%rax), %rdi
	movl	$0, %eax
.LVL32:
	call	__fprintf_chk@PLT
.LVL33:
.LBE1059:
.LBE1058:
	.loc 1 60 0
	movq	stderr@GOTPCREL(%rip), %rax
.LVL34:
.LBB1060:
.LBB1061:
	.loc 7 98 0
	movq	(%rax), %rsi
	movl	$10, %edi
	call	fputc@PLT
.LVL35:
.L8:
.LBE1061:
.LBE1060:
	.loc 1 64 0
	movslq	(%r14), %rcx
.LVL36:
.LBB1062:
.LBB1063:
	.loc 5 655 0
	movq	8(%r14), %rdx
.LVL37:
.LBE1063:
.LBE1062:
	.loc 1 64 0
	movq	16(%r14), %rax
	subq	%rdx, %rax
	sarq	$3, %rax
	cmpq	%rax, %rcx
	jnb	.L1
	testb	%bl, %bl
	je	.L1
	.loc 1 65 0
	movq	(%rdx,%rcx,8), %rsi
.LVL38:
.LBB1064:
.LBB1065:
.LBB1066:
.LBB1067:
.LBB1068:
	.loc 4 267 0
	movl	$0, %eax
	movq	$-1, %rcx
	movq	%rsi, %rdi
	repnz scasb
	notq	%rcx
.LVL39:
.LBE1068:
.LBE1067:
	.loc 3 1167 0
	movq	16(%r12), %rdx
	leaq	-1(%rcx), %r8
	movq	%rsi, %rcx
	movl	$0, %esi
.LVL40:
	movq	%rbp, %rdi
	call	_ZNSt7__cxx1112basic_stringIcSt11char_traitsIcESaIcEE10_M_replaceEmmPKcm@PLT
.LVL41:
.LBE1066:
.LBE1065:
.LBE1064:
	.loc 1 66 0
	movq	8(%r12), %rax
	cmpb	$45, (%rax)
	jne	.L9
	.loc 1 67 0
	call	log_level@PLT
.LVL42:
	testb	$1, %al
	je	.L10
.LVL43:
.LBB1069:
.LBB1070:
	.loc 7 98 0 discriminator 2
	movq	%r13, %rcx
	leaq	.LC1(%rip), %rdx
	movl	$1, %esi
	movq	stderr@GOTPCREL(%rip), %rax
.LVL44:
	movq	(%rax), %rdi
	movl	$0, %eax
.LVL45:
	call	__fprintf_chk@PLT
.LVL46:
.LBE1070:
.LBE1069:
	.loc 1 67 0
	movq	stderr@GOTPCREL(%rip), %rax
.LVL47:
.LBB1071:
.LBB1072:
	.loc 7 98 0
	movq	(%rax), %rsi
	movl	$10, %edi
	call	fputc@PLT
.LVL48:
.L10:
.LBE1072:
.LBE1071:
.LBB1073:
.LBB1074:
.LBB1075:
	.loc 3 1167 0
	movq	16(%r12), %rdx
	movl	$0, %r8d
	leaq	.LC2(%rip), %rcx
	movl	$0, %esi
	movq	%rbp, %rdi
	call	_ZNSt7__cxx1112basic_stringIcSt11char_traitsIcESaIcEE10_M_replaceEmmPKcm@PLT
.LVL49:
	jmp	.L1
.LVL50:
.L9:
.LBE1075:
.LBE1074:
.LBE1073:
	.loc 1 71 0
	addl	$1, (%r14)
	jmp	.L1
.L7:
	.loc 1 79 0
	movl	$0, (%r12)
.LVL51:
.LBB1076:
.LBB1077:
.LBB1078:
.LBB1079:
.LBB1080:
	.loc 4 267 0
	movl	$0, %eax
	movq	$-1, %rcx
	movq	%r13, %rdi
	repnz scasb
	notq	%rcx
.LVL52:
.LBE1080:
.LBE1079:
	.loc 3 1167 0
	movq	16(%r12), %rdx
	leaq	-1(%rcx), %r8
	movq	%r13, %rcx
	movl	$0, %esi
	movq	%rbp, %rdi
	call	_ZNSt7__cxx1112basic_stringIcSt11char_traitsIcESaIcEE10_M_replaceEmmPKcm@PLT
.LVL53:
.LEHE0:
	jmp	.L1
.LVL54:
.L16:
	movq	%rax, %rbx
.LVL55:
.LBE1078:
.LBE1077:
.LBE1076:
.LBB1081:
.LBB1082:
.LBB1083:
.LBB1084:
.LBB1085:
.LBB1086:
.LBB1087:
	.loc 3 135 0
	movq	8(%r12), %rdi
.LVL56:
.LBE1087:
.LBE1086:
.LBE1085:
	.loc 3 179 0
	cmpq	%rdi, 24(%rsp)
	je	.L12
.LVL57:
.LBB1088:
.LBB1089:
.LBB1090:
.LBB1091:
	.file 8 "/usr/include/c++/5/ext/new_allocator.h"
	.loc 8 110 0
	call	_ZdlPv@PLT
.LVL58:
.L12:
	movq	%rbx, %rdi
.LEHB1:
	call	_Unwind_Resume@PLT
.LVL59:
.LEHE1:
.L1:
.LBE1091:
.LBE1090:
.LBE1089:
.LBE1088:
.LBE1084:
.LBE1083:
.LBE1082:
.LBE1081:
	.loc 1 84 0
	movq	%r12, %rax
	movq	40(%rsp), %rcx
	xorq	%fs:40, %rcx
	je	.L13
.LVL60:
	call	__stack_chk_fail@PLT
.LVL61:
.L13:
	addq	$56, %rsp
	.cfi_def_cfa_offset 56
	popq	%rbx
	.cfi_def_cfa_offset 48
	popq	%rbp
	.cfi_def_cfa_offset 40
	popq	%r12
	.cfi_def_cfa_offset 32
	popq	%r13
	.cfi_def_cfa_offset 24
	popq	%r14
	.cfi_def_cfa_offset 16
.LVL62:
	popq	%r15
	.cfi_def_cfa_offset 8
	ret
	.cfi_endproc
.LFE962:
	.globl	__gxx_personality_v0
	.section	.gcc_except_table,"a",@progbits
.LLSDA962:
	.byte	0xff
	.byte	0xff
	.byte	0x1
	.uleb128 .LLSDACSE962-.LLSDACSB962
.LLSDACSB962:
	.uleb128 .LEHB0-.LFB962
	.uleb128 .LEHE0-.LEHB0
	.uleb128 .L16-.LFB962
	.uleb128 0
	.uleb128 .LEHB1-.LFB962
	.uleb128 .LEHE1-.LEHB1
	.uleb128 0
	.uleb128 0
.LLSDACSE962:
	.text
	.size	_ZN8CmdFlags6getoptB5cxx11Ev, .-_ZN8CmdFlags6getoptB5cxx11Ev
	.section	.rodata.str1.8
	.align 8
.LC3:
	.string	"  -%c,--%s\t .... %s (default '%s').\n"
	.text
	.align 2
	.globl	_ZN8CmdFlags9printHelpEv
	.type	_ZN8CmdFlags9printHelpEv, @function
_ZN8CmdFlags9printHelpEv:
.LFB969:
	.loc 1 86 0
	.cfi_startproc
.LVL63:
	pushq	%r12
	.cfi_def_cfa_offset 16
	.cfi_offset 12, -16
	pushq	%rbp
	.cfi_def_cfa_offset 24
	.cfi_offset 6, -24
	pushq	%rbx
	.cfi_def_cfa_offset 32
	.cfi_offset 3, -32
	movq	%rdi, %rbp
	.loc 1 89 0
	cmpq	$0, 64(%rdi)
	je	.L20
.LVL64:
.LBB1092:
.LBB1093:
	.loc 7 104 0
	movq	56(%rdi), %rdi
.LVL65:
	call	puts@PLT
.LVL66:
.L20:
.LBE1093:
.LBE1092:
.LBB1094:
.LBB1095:
.LBB1096:
	.loc 6 741 0
	movq	32(%rbp), %rbx
.LVL67:
.LBE1096:
.LBE1095:
.LBE1094:
	.loc 1 94 0
	cmpq	40(%rbp), %rbx
	je	.L19
.LBB1097:
.LBB1098:
	.loc 7 104 0
	leaq	.LC3(%rip), %r12
.L23:
.LVL68:
	movq	8(%rbx), %rcx
	movq	24(%rbx), %r9
	movq	16(%rbx), %r8
	movl	(%rbx), %edx
	movq	%r12, %rsi
	movl	$1, %edi
	movl	$0, %eax
	call	__printf_chk@PLT
.LVL69:
.LBE1098:
.LBE1097:
.LBB1099:
.LBB1100:
	.loc 6 763 0
	addq	$40, %rbx
.LVL70:
.LBE1100:
.LBE1099:
	.loc 1 94 0
	cmpq	%rbx, 40(%rbp)
	jne	.L23
.LVL71:
.L19:
	.loc 1 98 0
	popq	%rbx
	.cfi_def_cfa_offset 24
.LVL72:
	popq	%rbp
	.cfi_def_cfa_offset 16
.LVL73:
	popq	%r12
	.cfi_def_cfa_offset 8
	ret
	.cfi_endproc
.LFE969:
	.size	_ZN8CmdFlags9printHelpEv, .-_ZN8CmdFlags9printHelpEv
	.section	.text._ZNSt6vectorIPcSaIS0_EE13_M_assign_auxIPS0_EEvT_S5_St20forward_iterator_tag,"axG",@progbits,_ZNSt6vectorIPcSaIS0_EE13_M_assign_auxIPS0_EEvT_S5_St20forward_iterator_tag,comdat
	.align 2
	.weak	_ZNSt6vectorIPcSaIS0_EE13_M_assign_auxIPS0_EEvT_S5_St20forward_iterator_tag
	.type	_ZNSt6vectorIPcSaIS0_EE13_M_assign_auxIPS0_EEvT_S5_St20forward_iterator_tag, @function
_ZNSt6vectorIPcSaIS0_EE13_M_assign_auxIPS0_EEvT_S5_St20forward_iterator_tag:
.LFB1106:
	.file 9 "/usr/include/c++/5/bits/vector.tcc"
	.loc 9 265 0
	.cfi_startproc
.LVL74:
	pushq	%r15
	.cfi_def_cfa_offset 16
	.cfi_offset 15, -16
	pushq	%r14
	.cfi_def_cfa_offset 24
	.cfi_offset 14, -24
	pushq	%r13
	.cfi_def_cfa_offset 32
	.cfi_offset 13, -32
	pushq	%r12
	.cfi_def_cfa_offset 40
	.cfi_offset 12, -40
	pushq	%rbp
	.cfi_def_cfa_offset 48
	.cfi_offset 6, -48
	pushq	%rbx
	.cfi_def_cfa_offset 56
	.cfi_offset 3, -56
	subq	$8, %rsp
	.cfi_def_cfa_offset 64
	movq	%rdi, %rbx
	movq	%rsi, %r15
.LVL75:
.LBB1162:
.LBB1163:
.LBB1164:
	.file 10 "/usr/include/c++/5/bits/stl_iterator_base_funcs.h"
	.loc 10 96 0
	movq	%rdx, %r13
	subq	%rsi, %r13
	movq	%r13, %r12
	sarq	$3, %r12
.LVL76:
.LBE1164:
.LBE1163:
.LBE1162:
.LBB1165:
.LBB1166:
.LBB1167:
	.loc 5 736 0
	movq	(%rdi), %r14
.LVL77:
.LBE1167:
.LBE1166:
	.loc 9 271 0
	movq	16(%rdi), %rax
	subq	%r14, %rax
	sarq	$3, %rax
	cmpq	%r12, %rax
	jnb	.L27
.LVL78:
.LBB1168:
.LBB1169:
.LBB1170:
.LBB1171:
.LBB1172:
	.loc 5 170 0
	testq	%r12, %r12
	je	.L37
.LVL79:
.LBB1173:
.LBB1174:
.LBB1175:
	.loc 8 101 0
	movabsq	$2305843009213693951, %rax
	cmpq	%rax, %r12
	jbe	.L29
	.loc 8 102 0
	call	_ZSt17__throw_bad_allocv@PLT
.LVL80:
.L29:
	.loc 8 104 0
	movq	%r13, %rdi
	call	_Znwm@PLT
.LVL81:
	movq	%rax, %rbp
.LVL82:
	jmp	.L28
.LVL83:
.L37:
.LBE1175:
.LBE1174:
.LBE1173:
	.loc 5 170 0
	movl	$0, %ebp
.LVL84:
.L28:
.LBE1172:
.LBE1171:
.LBB1176:
.LBB1177:
.LBB1178:
.LBB1179:
.LBB1180:
.LBB1181:
.LBB1182:
.LBB1183:
.LBB1184:
.LBB1185:
	.file 11 "/usr/include/c++/5/bits/stl_algobase.h"
	.loc 11 383 0
	testq	%r12, %r12
	je	.L30
	.loc 11 384 0
	movq	%r13, %rdx
	movq	%r15, %rsi
	movq	%rbp, %rdi
	call	memcpy@PLT
.LVL85:
.L30:
.LBE1185:
.LBE1184:
.LBE1183:
.LBE1182:
.LBE1181:
.LBE1180:
.LBE1179:
.LBE1178:
.LBE1177:
.LBE1176:
.LBE1170:
.LBE1169:
	.loc 9 278 0
	movq	(%rbx), %rdi
.LVL86:
.LBB1186:
.LBB1187:
	.loc 5 177 0
	testq	%rdi, %rdi
	je	.L31
.LVL87:
.LBB1188:
.LBB1189:
.LBB1190:
	.loc 8 110 0
	call	_ZdlPv@PLT
.LVL88:
.L31:
.LBE1190:
.LBE1189:
.LBE1188:
.LBE1187:
.LBE1186:
	.loc 9 279 0
	movq	%rbp, (%rbx)
	.loc 9 280 0
	addq	%rbp, %r13
	movq	%r13, 8(%rbx)
	.loc 9 281 0
	movq	%r13, 16(%rbx)
.LBE1168:
	jmp	.L26
.LVL89:
.L27:
	movq	%rdx, %rbp
.LVL90:
.LBB1191:
.LBB1192:
.LBB1193:
	.loc 5 655 0
	movq	8(%rdi), %rdx
.LVL91:
	subq	%r14, %rdx
	movq	%rdx, %rax
	sarq	$3, %rax
.LVL92:
.LBE1193:
.LBE1192:
	.loc 9 283 0
	cmpq	%rax, %r12
	ja	.L33
.LVL93:
.LBB1194:
.LBB1195:
.LBB1196:
.LBB1197:
.LBB1198:
.LBB1199:
	.loc 11 383 0
	testq	%r12, %r12
	je	.L34
	.loc 11 384 0
	movq	%r13, %rdx
	movq	%r14, %rdi
	call	memmove@PLT
.LVL94:
.L34:
.LBE1199:
.LBE1198:
.LBE1197:
.LBE1196:
.LBE1195:
.LBE1194:
.LBB1200:
.LBB1201:
	.loc 5 1439 0
	addq	%r14, %r13
.LVL95:
	movq	%r13, 8(%rbx)
	jmp	.L26
.LVL96:
.L33:
.LBE1201:
.LBE1200:
.LBB1202:
.LBB1203:
.LBB1204:
.LBB1205:
.LBB1206:
	.loc 10 156 0
	leaq	(%rsi,%rdx), %r12
.LVL97:
.LBE1206:
.LBE1205:
.LBE1204:
.LBE1203:
.LBB1207:
.LBB1208:
.LBB1209:
.LBB1210:
.LBB1211:
.LBB1212:
	.loc 11 383 0
	testq	%rax, %rax
	je	.L35
	.loc 11 384 0
	movq	%r14, %rdi
	call	memmove@PLT
.LVL98:
.L35:
.LBE1212:
.LBE1211:
.LBE1210:
.LBE1209:
.LBE1208:
.LBE1207:
	.loc 9 291 0
	movq	8(%rbx), %r13
.LVL99:
.LBB1213:
.LBB1214:
.LBB1215:
.LBB1216:
.LBB1217:
.LBB1218:
.LBB1219:
.LBB1220:
.LBB1221:
.LBB1222:
	.loc 11 382 0
	subq	%r12, %rbp
.LVL100:
	.loc 11 383 0
	movq	%rbp, %rax
	sarq	$3, %rax
	testq	%rax, %rax
	je	.L36
	.loc 11 384 0
	movq	%rbp, %rdx
	movq	%r12, %rsi
	movq	%r13, %rdi
	call	memmove@PLT
.LVL101:
.L36:
.LBE1222:
.LBE1221:
.LBE1220:
.LBE1219:
.LBE1218:
.LBE1217:
.LBE1216:
.LBE1215:
.LBE1214:
.LBE1213:
	.loc 9 290 0
	addq	%r13, %rbp
	movq	%rbp, 8(%rbx)
.LVL102:
.L26:
.LBE1202:
.LBE1191:
.LBE1165:
	.loc 9 295 0
	addq	$8, %rsp
	.cfi_def_cfa_offset 56
	popq	%rbx
	.cfi_def_cfa_offset 48
.LVL103:
	popq	%rbp
	.cfi_def_cfa_offset 40
	popq	%r12
	.cfi_def_cfa_offset 32
	popq	%r13
	.cfi_def_cfa_offset 24
	popq	%r14
	.cfi_def_cfa_offset 16
	popq	%r15
	.cfi_def_cfa_offset 8
.LVL104:
	ret
	.cfi_endproc
.LFE1106:
	.size	_ZNSt6vectorIPcSaIS0_EE13_M_assign_auxIPS0_EEvT_S5_St20forward_iterator_tag, .-_ZNSt6vectorIPcSaIS0_EE13_M_assign_auxIPS0_EEvT_S5_St20forward_iterator_tag
	.text
	.align 2
	.globl	_ZN8CmdFlagsC2EiPPc
	.type	_ZN8CmdFlagsC2EiPPc, @function
_ZN8CmdFlagsC2EiPPc:
.LFB960:
	.loc 1 25 0
	.cfi_startproc
	.cfi_personality 0x9b,DW.ref.__gxx_personality_v0
	.cfi_lsda 0x1b,.LLSDA960
.LVL105:
	pushq	%rbp
	.cfi_def_cfa_offset 16
	.cfi_offset 6, -16
	movq	%rsp, %rbp
	.cfi_def_cfa_register 6
	pushq	%r14
	pushq	%r12
	pushq	%rbx
	subq	$16, %rsp
	.cfi_offset 14, -24
	.cfi_offset 12, -32
	.cfi_offset 3, -40
	movq	%rdi, %rbx
	movq	%rdx, %rcx
.LBB1223:
	.loc 1 26 0
	movl	$1, (%rdi)
.LVL106:
.LBB1224:
.LBB1225:
.LBB1226:
.LBB1227:
	.loc 5 87 0
	movq	$0, 8(%rdi)
	movq	$0, 16(%rdi)
	movq	$0, 24(%rdi)
.LVL107:
.LBE1227:
.LBE1226:
.LBE1225:
.LBE1224:
.LBB1228:
.LBB1229:
.LBB1230:
.LBB1231:
	movq	$0, 32(%rdi)
	movq	$0, 40(%rdi)
	movq	$0, 48(%rdi)
.LVL108:
.LBE1231:
.LBE1230:
.LBE1229:
.LBE1228:
.LBB1232:
.LBB1233:
.LBB1234:
	.loc 3 143 0
	leaq	72(%rdi), %rax
	movq	%rax, %r14
.LVL109:
.LBE1234:
.LBE1233:
.LBB1235:
.LBB1236:
	.loc 3 109 0
	movq	%rax, 56(%rdi)
.LVL110:
.LBE1236:
.LBE1235:
.LBB1237:
.LBB1238:
.LBB1239:
	.loc 3 131 0
	movq	$0, 64(%rdi)
.LVL111:
.LBE1239:
.LBE1238:
.LBB1240:
.LBB1241:
	.loc 4 243 0
	movb	$0, 72(%rdi)
.LVL112:
.LBE1241:
.LBE1240:
.LBE1237:
.LBE1232:
.LBB1242:
.LBB1243:
.LBB1244:
.LBB1245:
	.loc 5 1336 0
	movslq	%esi, %rax
	leaq	(%rdx,%rax,8), %rdx
.LVL113:
.LBE1245:
.LBE1244:
.LBE1243:
.LBE1242:
	.loc 1 28 0
	leaq	8(%rdi), %rdi
.LVL114:
.LBB1249:
.LBB1248:
.LBB1247:
.LBB1246:
	.loc 5 1336 0
	pushq	$0
	movq	%rcx, %rsi
.LVL115:
.LEHB2:
	.cfi_escape 0x2e,0x10
	call	_ZNSt6vectorIPcSaIS0_EE13_M_assign_auxIPS0_EEvT_S5_St20forward_iterator_tag@PLT
.LVL116:
.LEHE2:
	addq	$16, %rsp
.LVL117:
.LBE1246:
.LBE1247:
.LBE1248:
.LBE1249:
.LBE1223:
	.loc 1 29 0
	jmp	.L45
.LVL118:
.L44:
	movq	%rax, %r12
.LVL119:
.LBB1276:
.LBB1250:
.LBB1251:
.LBB1252:
.LBB1253:
.LBB1254:
.LBB1255:
	.loc 3 135 0
	movq	56(%rbx), %rdi
.LVL120:
.LBE1255:
.LBE1254:
.LBE1253:
	.loc 3 179 0
	cmpq	%r14, %rdi
	je	.L41
.LVL121:
.LBB1256:
.LBB1257:
.LBB1258:
.LBB1259:
	.loc 8 110 0
	call	_ZdlPv@PLT
.LVL122:
.L41:
.LBE1259:
.LBE1258:
.LBE1257:
.LBE1256:
.LBE1252:
.LBE1251:
.LBE1250:
.LBB1260:
.LBB1261:
.LBB1262:
	.loc 5 161 0
	movq	32(%rbx), %rdi
.LVL123:
.LBB1263:
.LBB1264:
	.loc 5 177 0
	testq	%rdi, %rdi
	je	.L42
.LVL124:
.LBB1265:
.LBB1266:
.LBB1267:
	.loc 8 110 0
	call	_ZdlPv@PLT
.LVL125:
.L42:
.LBE1267:
.LBE1266:
.LBE1265:
.LBE1264:
.LBE1263:
.LBE1262:
.LBE1261:
.LBE1260:
.LBB1268:
.LBB1269:
.LBB1270:
	.loc 5 161 0
	movq	8(%rbx), %rdi
.LVL126:
.LBB1271:
.LBB1272:
	.loc 5 177 0
	testq	%rdi, %rdi
	je	.L43
.LVL127:
.LBB1273:
.LBB1274:
.LBB1275:
	.loc 8 110 0
	call	_ZdlPv@PLT
.LVL128:
.L43:
	movq	%r12, %rdi
.LEHB3:
	call	_Unwind_Resume@PLT
.LVL129:
.LEHE3:
.L45:
.LBE1275:
.LBE1274:
.LBE1273:
.LBE1272:
.LBE1271:
.LBE1270:
.LBE1269:
.LBE1268:
.LBE1276:
	.loc 1 29 0
	leaq	-24(%rbp), %rsp
	popq	%rbx
.LVL130:
	popq	%r12
	popq	%r14
.LVL131:
	popq	%rbp
	.cfi_def_cfa 7, 8
	ret
	.cfi_endproc
.LFE960:
	.section	.gcc_except_table
.LLSDA960:
	.byte	0xff
	.byte	0xff
	.byte	0x1
	.uleb128 .LLSDACSE960-.LLSDACSB960
.LLSDACSB960:
	.uleb128 .LEHB2-.LFB960
	.uleb128 .LEHE2-.LEHB2
	.uleb128 .L44-.LFB960
	.uleb128 0
	.uleb128 .LEHB3-.LFB960
	.uleb128 .LEHE3-.LEHB3
	.uleb128 0
	.uleb128 0
.LLSDACSE960:
	.text
	.size	_ZN8CmdFlagsC2EiPPc, .-_ZN8CmdFlagsC2EiPPc
	.globl	_ZN8CmdFlagsC1EiPPc
	.set	_ZN8CmdFlagsC1EiPPc,_ZN8CmdFlagsC2EiPPc
.Letext0:
	.file 12 "/usr/include/c++/5/bits/basic_string.tcc"
	.file 13 "/usr/include/c++/5/bits/stringfwd.h"
	.file 14 "/usr/include/c++/5/bits/cpp_type_traits.h"
	.file 15 "/usr/include/c++/5/bits/stl_iterator_base_types.h"
	.file 16 "/usr/include/x86_64-linux-gnu/c++/5/bits/c++config.h"
	.file 17 "/usr/include/c++/5/bits/allocator.h"
	.file 18 "/usr/include/c++/5/bits/stl_construct.h"
	.file 19 "/usr/include/c++/5/bits/stl_uninitialized.h"
	.file 20 "/usr/include/c++/5/cwchar"
	.file 21 "/usr/include/c++/5/clocale"
	.file 22 "/usr/include/c++/5/cstdio"
	.file 23 "/usr/include/c++/5/cstring"
	.file 24 "/usr/include/c++/5/debug/debug.h"
	.file 25 "/usr/include/c++/5/bits/predefined_ops.h"
	.file 26 "/usr/include/c++/5/ext/numeric_traits.h"
	.file 27 "/usr/include/c++/5/ext/alloc_traits.h"
	.file 28 "/usr/include/c++/5/ext/type_traits.h"
	.file 29 "/usr/include/stdio.h"
	.file 30 "/usr/include/libio.h"
	.file 31 "<built-in>"
	.file 32 "/usr/lib/gcc/x86_64-linux-gnu/5/include/stddef.h"
	.file 33 "/usr/include/wchar.h"
	.file 34 "/usr/include/x86_64-linux-gnu/bits/wchar2.h"
	.file 35 "/usr/include/time.h"
	.file 36 "/usr/include/locale.h"
	.file 37 "/usr/include/x86_64-linux-gnu/bits/types.h"
	.file 38 "src/shared/cmdflags.hpp"
	.file 39 "/usr/include/_G_config.h"
	.file 40 "/usr/include/x86_64-linux-gnu/bits/stdio.h"
	.file 41 "/usr/include/string.h"
	.file 42 "/usr/include/c++/5/bits/functexcept.h"
	.file 43 "/usr/include/c++/5/new"
	.file 44 "src/shared/common.h"
	.section	.data.DW.ref.__gxx_personality_v0,"awG",@progbits,DW.ref.__gxx_personality_v0,comdat
	.align 8
	.type	DW.ref.__gxx_personality_v0, @object
	.size	DW.ref.__gxx_personality_v0, 8
DW.ref.__gxx_personality_v0:
	.quad	__gxx_personality_v0
	.ident	"GCC: (Ubuntu 5.4.0-6ubuntu1~16.04.10) 5.4.0 20160609"
	.section	.note.GNU-stack,"",@progbits
